ARM GAS  /tmp/ccvxPp7R.s 			page 1


   1              		.syntax unified
   2              		.cpu cortex-m3
   3              		.fpu softvfp
   4              		.eabi_attribute 20, 1	@ Tag_ABI_FP_denormal
   5              		.eabi_attribute 21, 1	@ Tag_ABI_FP_exceptions
   6              		.eabi_attribute 23, 3	@ Tag_ABI_FP_number_model
   7              		.eabi_attribute 24, 1	@ Tag_ABI_align8_needed
   8              		.eabi_attribute 25, 1	@ Tag_ABI_align8_preserved
   9              		.eabi_attribute 26, 1	@ Tag_ABI_enum_size
  10              		.eabi_attribute 30, 6	@ Tag_ABI_optimization_goals
  11              		.eabi_attribute 34, 1	@ Tag_CPU_unaligned_access
  12              		.eabi_attribute 18, 4	@ Tag_ABI_PCS_wchar_t
  13              		.file	"stm32f10x_gpio.c"
  14              	@ GNU C (15:4.9.3+svn231177-1) version 4.9.3 20150529 (prerelease) (arm-none-eabi)
  15              	@	compiled by GNU C version 5.2.1 20151129, GMP version 6.1.0, MPFR version 3.1.3, MPC version 1.0.
  16              	@ warning: MPFR header version 3.1.3 differs from library version 3.1.4.
  17              	@ GGC heuristics: --param ggc-min-expand=100 --param ggc-min-heapsize=131072
  18              	@ options passed:  -I .
  19              	@ -I ../../STM32F10x_StdPeriph_Lib_V3.5.0/Libraries/CMSIS/CM3/DeviceSupport/ST/STM32F10x
  20              	@ -I ../../STM32F10x_StdPeriph_Lib_V3.5.0/Libraries/CMSIS/CM3/CoreSupport
  21              	@ -I ../../STM32F10x_StdPeriph_Lib_V3.5.0/Libraries/STM32F10x_StdPeriph_Driver/inc
  22              	@ -I ./inc -imultilib armv7-m -D__USES_INITFINI__ -D STM32F10X_MD
  23              	@ -D USE_STDPERIPH_DRIVER -D __GNUC__ -D RUN_FROM_FLASH=1
  24              	@ ../../STM32F10x_StdPeriph_Lib_V3.5.0/Libraries/STM32F10x_StdPeriph_Driver/src/stm32f10x_gpio.c
  25              	@ -mcpu=cortex-m3 -mthumb
  26              	@ -auxbase-strip ../../STM32F10x_StdPeriph_Lib_V3.5.0/Libraries/STM32F10x_StdPeriph_Driver/src/stm3
  27              	@ -gdwarf-2 -O0 -Wall -Wstrict-prototypes -fomit-frame-pointer
  28              	@ -fverbose-asm
  29              	@ options enabled:  -faggressive-loop-optimizations -fauto-inc-dec -fcommon
  30              	@ -fdelete-null-pointer-checks -fdwarf2-cfi-asm -fearly-inlining
  31              	@ -feliminate-unused-debug-types -ffunction-cse -fgcse-lm -fgnu-runtime
  32              	@ -fgnu-unique -fident -finline-atomics -fira-hoist-pressure
  33              	@ -fira-share-save-slots -fira-share-spill-slots -fivopts
  34              	@ -fkeep-static-consts -fleading-underscore -flifetime-dse -fmath-errno
  35              	@ -fmerge-debug-strings -fomit-frame-pointer -fpeephole
  36              	@ -fprefetch-loop-arrays -freg-struct-return
  37              	@ -fsched-critical-path-heuristic -fsched-dep-count-heuristic
  38              	@ -fsched-group-heuristic -fsched-interblock -fsched-last-insn-heuristic
  39              	@ -fsched-rank-heuristic -fsched-spec -fsched-spec-insn-heuristic
  40              	@ -fsched-stalled-insns-dep -fshow-column -fsigned-zeros
  41              	@ -fsplit-ivs-in-unroller -fstrict-volatile-bitfields -fsync-libcalls
  42              	@ -ftrapping-math -ftree-coalesce-vars -ftree-cselim -ftree-forwprop
  43              	@ -ftree-loop-if-convert -ftree-loop-im -ftree-loop-ivcanon
  44              	@ -ftree-loop-optimize -ftree-parallelize-loops= -ftree-phiprop
  45              	@ -ftree-reassoc -ftree-scev-cprop -funit-at-a-time -fverbose-asm
  46              	@ -fzero-initialized-in-bss -mfix-cortex-m3-ldrd -mlittle-endian -mlra
  47              	@ -mpic-data-is-text-relative -msched-prolog -mthumb -munaligned-access
  48              	@ -mvectorize-with-neon-quad
  49              	
  50              		.text
  51              	.Ltext0:
  52              		.cfi_sections	.debug_frame
  53              		.align	2
  54              		.global	GPIO_DeInit
  55              		.thumb
  56              		.thumb_func
  57              		.type	GPIO_DeInit, %function
ARM GAS  /tmp/ccvxPp7R.s 			page 2


  58              	GPIO_DeInit:
  59              	.LFB29:
  60              		.file 1 "../../STM32F10x_StdPeriph_Lib_V3.5.0/Libraries/STM32F10x_StdPeriph_Driver/src/stm32f10x_g
   1:../../STM32F10x_StdPeriph_Lib_V3.5.0/Libraries/STM32F10x_StdPeriph_Driver/src/stm32f10x_gpio.c **** /**
   2:../../STM32F10x_StdPeriph_Lib_V3.5.0/Libraries/STM32F10x_StdPeriph_Driver/src/stm32f10x_gpio.c ****   ******************************************************************************
   3:../../STM32F10x_StdPeriph_Lib_V3.5.0/Libraries/STM32F10x_StdPeriph_Driver/src/stm32f10x_gpio.c ****   * @file    stm32f10x_gpio.c
   4:../../STM32F10x_StdPeriph_Lib_V3.5.0/Libraries/STM32F10x_StdPeriph_Driver/src/stm32f10x_gpio.c ****   * @author  MCD Application Team
   5:../../STM32F10x_StdPeriph_Lib_V3.5.0/Libraries/STM32F10x_StdPeriph_Driver/src/stm32f10x_gpio.c ****   * @version V3.5.0
   6:../../STM32F10x_StdPeriph_Lib_V3.5.0/Libraries/STM32F10x_StdPeriph_Driver/src/stm32f10x_gpio.c ****   * @date    11-March-2011
   7:../../STM32F10x_StdPeriph_Lib_V3.5.0/Libraries/STM32F10x_StdPeriph_Driver/src/stm32f10x_gpio.c ****   * @brief   This file provides all the GPIO firmware functions.
   8:../../STM32F10x_StdPeriph_Lib_V3.5.0/Libraries/STM32F10x_StdPeriph_Driver/src/stm32f10x_gpio.c ****   ******************************************************************************
   9:../../STM32F10x_StdPeriph_Lib_V3.5.0/Libraries/STM32F10x_StdPeriph_Driver/src/stm32f10x_gpio.c ****   * @attention
  10:../../STM32F10x_StdPeriph_Lib_V3.5.0/Libraries/STM32F10x_StdPeriph_Driver/src/stm32f10x_gpio.c ****   *
  11:../../STM32F10x_StdPeriph_Lib_V3.5.0/Libraries/STM32F10x_StdPeriph_Driver/src/stm32f10x_gpio.c ****   * THE PRESENT FIRMWARE WHICH IS FOR GUIDANCE ONLY AIMS AT PROVIDING CUSTOMERS
  12:../../STM32F10x_StdPeriph_Lib_V3.5.0/Libraries/STM32F10x_StdPeriph_Driver/src/stm32f10x_gpio.c ****   * WITH CODING INFORMATION REGARDING THEIR PRODUCTS IN ORDER FOR THEM TO SAVE
  13:../../STM32F10x_StdPeriph_Lib_V3.5.0/Libraries/STM32F10x_StdPeriph_Driver/src/stm32f10x_gpio.c ****   * TIME. AS A RESULT, STMICROELECTRONICS SHALL NOT BE HELD LIABLE FOR ANY
  14:../../STM32F10x_StdPeriph_Lib_V3.5.0/Libraries/STM32F10x_StdPeriph_Driver/src/stm32f10x_gpio.c ****   * DIRECT, INDIRECT OR CONSEQUENTIAL DAMAGES WITH RESPECT TO ANY CLAIMS ARISING
  15:../../STM32F10x_StdPeriph_Lib_V3.5.0/Libraries/STM32F10x_StdPeriph_Driver/src/stm32f10x_gpio.c ****   * FROM THE CONTENT OF SUCH FIRMWARE AND/OR THE USE MADE BY CUSTOMERS OF THE
  16:../../STM32F10x_StdPeriph_Lib_V3.5.0/Libraries/STM32F10x_StdPeriph_Driver/src/stm32f10x_gpio.c ****   * CODING INFORMATION CONTAINED HEREIN IN CONNECTION WITH THEIR PRODUCTS.
  17:../../STM32F10x_StdPeriph_Lib_V3.5.0/Libraries/STM32F10x_StdPeriph_Driver/src/stm32f10x_gpio.c ****   *
  18:../../STM32F10x_StdPeriph_Lib_V3.5.0/Libraries/STM32F10x_StdPeriph_Driver/src/stm32f10x_gpio.c ****   * <h2><center>&copy; COPYRIGHT 2011 STMicroelectronics</center></h2>
  19:../../STM32F10x_StdPeriph_Lib_V3.5.0/Libraries/STM32F10x_StdPeriph_Driver/src/stm32f10x_gpio.c ****   ******************************************************************************
  20:../../STM32F10x_StdPeriph_Lib_V3.5.0/Libraries/STM32F10x_StdPeriph_Driver/src/stm32f10x_gpio.c ****   */
  21:../../STM32F10x_StdPeriph_Lib_V3.5.0/Libraries/STM32F10x_StdPeriph_Driver/src/stm32f10x_gpio.c **** 
  22:../../STM32F10x_StdPeriph_Lib_V3.5.0/Libraries/STM32F10x_StdPeriph_Driver/src/stm32f10x_gpio.c **** /* Includes ------------------------------------------------------------------*/
  23:../../STM32F10x_StdPeriph_Lib_V3.5.0/Libraries/STM32F10x_StdPeriph_Driver/src/stm32f10x_gpio.c **** #include "stm32f10x_gpio.h"
  24:../../STM32F10x_StdPeriph_Lib_V3.5.0/Libraries/STM32F10x_StdPeriph_Driver/src/stm32f10x_gpio.c **** #include "stm32f10x_rcc.h"
  25:../../STM32F10x_StdPeriph_Lib_V3.5.0/Libraries/STM32F10x_StdPeriph_Driver/src/stm32f10x_gpio.c **** 
  26:../../STM32F10x_StdPeriph_Lib_V3.5.0/Libraries/STM32F10x_StdPeriph_Driver/src/stm32f10x_gpio.c **** /** @addtogroup STM32F10x_StdPeriph_Driver
  27:../../STM32F10x_StdPeriph_Lib_V3.5.0/Libraries/STM32F10x_StdPeriph_Driver/src/stm32f10x_gpio.c ****   * @{
  28:../../STM32F10x_StdPeriph_Lib_V3.5.0/Libraries/STM32F10x_StdPeriph_Driver/src/stm32f10x_gpio.c ****   */
  29:../../STM32F10x_StdPeriph_Lib_V3.5.0/Libraries/STM32F10x_StdPeriph_Driver/src/stm32f10x_gpio.c **** 
  30:../../STM32F10x_StdPeriph_Lib_V3.5.0/Libraries/STM32F10x_StdPeriph_Driver/src/stm32f10x_gpio.c **** /** @defgroup GPIO 
  31:../../STM32F10x_StdPeriph_Lib_V3.5.0/Libraries/STM32F10x_StdPeriph_Driver/src/stm32f10x_gpio.c ****   * @brief GPIO driver modules
  32:../../STM32F10x_StdPeriph_Lib_V3.5.0/Libraries/STM32F10x_StdPeriph_Driver/src/stm32f10x_gpio.c ****   * @{
  33:../../STM32F10x_StdPeriph_Lib_V3.5.0/Libraries/STM32F10x_StdPeriph_Driver/src/stm32f10x_gpio.c ****   */ 
  34:../../STM32F10x_StdPeriph_Lib_V3.5.0/Libraries/STM32F10x_StdPeriph_Driver/src/stm32f10x_gpio.c **** 
  35:../../STM32F10x_StdPeriph_Lib_V3.5.0/Libraries/STM32F10x_StdPeriph_Driver/src/stm32f10x_gpio.c **** /** @defgroup GPIO_Private_TypesDefinitions
  36:../../STM32F10x_StdPeriph_Lib_V3.5.0/Libraries/STM32F10x_StdPeriph_Driver/src/stm32f10x_gpio.c ****   * @{
  37:../../STM32F10x_StdPeriph_Lib_V3.5.0/Libraries/STM32F10x_StdPeriph_Driver/src/stm32f10x_gpio.c ****   */
  38:../../STM32F10x_StdPeriph_Lib_V3.5.0/Libraries/STM32F10x_StdPeriph_Driver/src/stm32f10x_gpio.c **** 
  39:../../STM32F10x_StdPeriph_Lib_V3.5.0/Libraries/STM32F10x_StdPeriph_Driver/src/stm32f10x_gpio.c **** /**
  40:../../STM32F10x_StdPeriph_Lib_V3.5.0/Libraries/STM32F10x_StdPeriph_Driver/src/stm32f10x_gpio.c ****   * @}
  41:../../STM32F10x_StdPeriph_Lib_V3.5.0/Libraries/STM32F10x_StdPeriph_Driver/src/stm32f10x_gpio.c ****   */
  42:../../STM32F10x_StdPeriph_Lib_V3.5.0/Libraries/STM32F10x_StdPeriph_Driver/src/stm32f10x_gpio.c **** 
  43:../../STM32F10x_StdPeriph_Lib_V3.5.0/Libraries/STM32F10x_StdPeriph_Driver/src/stm32f10x_gpio.c **** /** @defgroup GPIO_Private_Defines
  44:../../STM32F10x_StdPeriph_Lib_V3.5.0/Libraries/STM32F10x_StdPeriph_Driver/src/stm32f10x_gpio.c ****   * @{
  45:../../STM32F10x_StdPeriph_Lib_V3.5.0/Libraries/STM32F10x_StdPeriph_Driver/src/stm32f10x_gpio.c ****   */
  46:../../STM32F10x_StdPeriph_Lib_V3.5.0/Libraries/STM32F10x_StdPeriph_Driver/src/stm32f10x_gpio.c **** 
  47:../../STM32F10x_StdPeriph_Lib_V3.5.0/Libraries/STM32F10x_StdPeriph_Driver/src/stm32f10x_gpio.c **** /* ------------ RCC registers bit address in the alias region ----------------*/
  48:../../STM32F10x_StdPeriph_Lib_V3.5.0/Libraries/STM32F10x_StdPeriph_Driver/src/stm32f10x_gpio.c **** #define AFIO_OFFSET                 (AFIO_BASE - PERIPH_BASE)
  49:../../STM32F10x_StdPeriph_Lib_V3.5.0/Libraries/STM32F10x_StdPeriph_Driver/src/stm32f10x_gpio.c **** 
  50:../../STM32F10x_StdPeriph_Lib_V3.5.0/Libraries/STM32F10x_StdPeriph_Driver/src/stm32f10x_gpio.c **** /* --- EVENTCR Register -----*/
  51:../../STM32F10x_StdPeriph_Lib_V3.5.0/Libraries/STM32F10x_StdPeriph_Driver/src/stm32f10x_gpio.c **** 
  52:../../STM32F10x_StdPeriph_Lib_V3.5.0/Libraries/STM32F10x_StdPeriph_Driver/src/stm32f10x_gpio.c **** /* Alias word address of EVOE bit */
  53:../../STM32F10x_StdPeriph_Lib_V3.5.0/Libraries/STM32F10x_StdPeriph_Driver/src/stm32f10x_gpio.c **** #define EVCR_OFFSET                 (AFIO_OFFSET + 0x00)
  54:../../STM32F10x_StdPeriph_Lib_V3.5.0/Libraries/STM32F10x_StdPeriph_Driver/src/stm32f10x_gpio.c **** #define EVOE_BitNumber              ((uint8_t)0x07)
ARM GAS  /tmp/ccvxPp7R.s 			page 3


  55:../../STM32F10x_StdPeriph_Lib_V3.5.0/Libraries/STM32F10x_StdPeriph_Driver/src/stm32f10x_gpio.c **** #define EVCR_EVOE_BB                (PERIPH_BB_BASE + (EVCR_OFFSET * 32) + (EVOE_BitNumber * 4))
  56:../../STM32F10x_StdPeriph_Lib_V3.5.0/Libraries/STM32F10x_StdPeriph_Driver/src/stm32f10x_gpio.c **** 
  57:../../STM32F10x_StdPeriph_Lib_V3.5.0/Libraries/STM32F10x_StdPeriph_Driver/src/stm32f10x_gpio.c **** 
  58:../../STM32F10x_StdPeriph_Lib_V3.5.0/Libraries/STM32F10x_StdPeriph_Driver/src/stm32f10x_gpio.c **** /* ---  MAPR Register ---*/ 
  59:../../STM32F10x_StdPeriph_Lib_V3.5.0/Libraries/STM32F10x_StdPeriph_Driver/src/stm32f10x_gpio.c **** /* Alias word address of MII_RMII_SEL bit */ 
  60:../../STM32F10x_StdPeriph_Lib_V3.5.0/Libraries/STM32F10x_StdPeriph_Driver/src/stm32f10x_gpio.c **** #define MAPR_OFFSET                 (AFIO_OFFSET + 0x04) 
  61:../../STM32F10x_StdPeriph_Lib_V3.5.0/Libraries/STM32F10x_StdPeriph_Driver/src/stm32f10x_gpio.c **** #define MII_RMII_SEL_BitNumber      ((u8)0x17) 
  62:../../STM32F10x_StdPeriph_Lib_V3.5.0/Libraries/STM32F10x_StdPeriph_Driver/src/stm32f10x_gpio.c **** #define MAPR_MII_RMII_SEL_BB        (PERIPH_BB_BASE + (MAPR_OFFSET * 32) + (MII_RMII_SEL_BitNumber 
  63:../../STM32F10x_StdPeriph_Lib_V3.5.0/Libraries/STM32F10x_StdPeriph_Driver/src/stm32f10x_gpio.c **** 
  64:../../STM32F10x_StdPeriph_Lib_V3.5.0/Libraries/STM32F10x_StdPeriph_Driver/src/stm32f10x_gpio.c **** 
  65:../../STM32F10x_StdPeriph_Lib_V3.5.0/Libraries/STM32F10x_StdPeriph_Driver/src/stm32f10x_gpio.c **** #define EVCR_PORTPINCONFIG_MASK     ((uint16_t)0xFF80)
  66:../../STM32F10x_StdPeriph_Lib_V3.5.0/Libraries/STM32F10x_StdPeriph_Driver/src/stm32f10x_gpio.c **** #define LSB_MASK                    ((uint16_t)0xFFFF)
  67:../../STM32F10x_StdPeriph_Lib_V3.5.0/Libraries/STM32F10x_StdPeriph_Driver/src/stm32f10x_gpio.c **** #define DBGAFR_POSITION_MASK        ((uint32_t)0x000F0000)
  68:../../STM32F10x_StdPeriph_Lib_V3.5.0/Libraries/STM32F10x_StdPeriph_Driver/src/stm32f10x_gpio.c **** #define DBGAFR_SWJCFG_MASK          ((uint32_t)0xF0FFFFFF)
  69:../../STM32F10x_StdPeriph_Lib_V3.5.0/Libraries/STM32F10x_StdPeriph_Driver/src/stm32f10x_gpio.c **** #define DBGAFR_LOCATION_MASK        ((uint32_t)0x00200000)
  70:../../STM32F10x_StdPeriph_Lib_V3.5.0/Libraries/STM32F10x_StdPeriph_Driver/src/stm32f10x_gpio.c **** #define DBGAFR_NUMBITS_MASK         ((uint32_t)0x00100000)
  71:../../STM32F10x_StdPeriph_Lib_V3.5.0/Libraries/STM32F10x_StdPeriph_Driver/src/stm32f10x_gpio.c **** /**
  72:../../STM32F10x_StdPeriph_Lib_V3.5.0/Libraries/STM32F10x_StdPeriph_Driver/src/stm32f10x_gpio.c ****   * @}
  73:../../STM32F10x_StdPeriph_Lib_V3.5.0/Libraries/STM32F10x_StdPeriph_Driver/src/stm32f10x_gpio.c ****   */
  74:../../STM32F10x_StdPeriph_Lib_V3.5.0/Libraries/STM32F10x_StdPeriph_Driver/src/stm32f10x_gpio.c **** 
  75:../../STM32F10x_StdPeriph_Lib_V3.5.0/Libraries/STM32F10x_StdPeriph_Driver/src/stm32f10x_gpio.c **** /** @defgroup GPIO_Private_Macros
  76:../../STM32F10x_StdPeriph_Lib_V3.5.0/Libraries/STM32F10x_StdPeriph_Driver/src/stm32f10x_gpio.c ****   * @{
  77:../../STM32F10x_StdPeriph_Lib_V3.5.0/Libraries/STM32F10x_StdPeriph_Driver/src/stm32f10x_gpio.c ****   */
  78:../../STM32F10x_StdPeriph_Lib_V3.5.0/Libraries/STM32F10x_StdPeriph_Driver/src/stm32f10x_gpio.c **** 
  79:../../STM32F10x_StdPeriph_Lib_V3.5.0/Libraries/STM32F10x_StdPeriph_Driver/src/stm32f10x_gpio.c **** /**
  80:../../STM32F10x_StdPeriph_Lib_V3.5.0/Libraries/STM32F10x_StdPeriph_Driver/src/stm32f10x_gpio.c ****   * @}
  81:../../STM32F10x_StdPeriph_Lib_V3.5.0/Libraries/STM32F10x_StdPeriph_Driver/src/stm32f10x_gpio.c ****   */
  82:../../STM32F10x_StdPeriph_Lib_V3.5.0/Libraries/STM32F10x_StdPeriph_Driver/src/stm32f10x_gpio.c **** 
  83:../../STM32F10x_StdPeriph_Lib_V3.5.0/Libraries/STM32F10x_StdPeriph_Driver/src/stm32f10x_gpio.c **** /** @defgroup GPIO_Private_Variables
  84:../../STM32F10x_StdPeriph_Lib_V3.5.0/Libraries/STM32F10x_StdPeriph_Driver/src/stm32f10x_gpio.c ****   * @{
  85:../../STM32F10x_StdPeriph_Lib_V3.5.0/Libraries/STM32F10x_StdPeriph_Driver/src/stm32f10x_gpio.c ****   */
  86:../../STM32F10x_StdPeriph_Lib_V3.5.0/Libraries/STM32F10x_StdPeriph_Driver/src/stm32f10x_gpio.c **** 
  87:../../STM32F10x_StdPeriph_Lib_V3.5.0/Libraries/STM32F10x_StdPeriph_Driver/src/stm32f10x_gpio.c **** /**
  88:../../STM32F10x_StdPeriph_Lib_V3.5.0/Libraries/STM32F10x_StdPeriph_Driver/src/stm32f10x_gpio.c ****   * @}
  89:../../STM32F10x_StdPeriph_Lib_V3.5.0/Libraries/STM32F10x_StdPeriph_Driver/src/stm32f10x_gpio.c ****   */
  90:../../STM32F10x_StdPeriph_Lib_V3.5.0/Libraries/STM32F10x_StdPeriph_Driver/src/stm32f10x_gpio.c **** 
  91:../../STM32F10x_StdPeriph_Lib_V3.5.0/Libraries/STM32F10x_StdPeriph_Driver/src/stm32f10x_gpio.c **** /** @defgroup GPIO_Private_FunctionPrototypes
  92:../../STM32F10x_StdPeriph_Lib_V3.5.0/Libraries/STM32F10x_StdPeriph_Driver/src/stm32f10x_gpio.c ****   * @{
  93:../../STM32F10x_StdPeriph_Lib_V3.5.0/Libraries/STM32F10x_StdPeriph_Driver/src/stm32f10x_gpio.c ****   */
  94:../../STM32F10x_StdPeriph_Lib_V3.5.0/Libraries/STM32F10x_StdPeriph_Driver/src/stm32f10x_gpio.c **** 
  95:../../STM32F10x_StdPeriph_Lib_V3.5.0/Libraries/STM32F10x_StdPeriph_Driver/src/stm32f10x_gpio.c **** /**
  96:../../STM32F10x_StdPeriph_Lib_V3.5.0/Libraries/STM32F10x_StdPeriph_Driver/src/stm32f10x_gpio.c ****   * @}
  97:../../STM32F10x_StdPeriph_Lib_V3.5.0/Libraries/STM32F10x_StdPeriph_Driver/src/stm32f10x_gpio.c ****   */
  98:../../STM32F10x_StdPeriph_Lib_V3.5.0/Libraries/STM32F10x_StdPeriph_Driver/src/stm32f10x_gpio.c **** 
  99:../../STM32F10x_StdPeriph_Lib_V3.5.0/Libraries/STM32F10x_StdPeriph_Driver/src/stm32f10x_gpio.c **** /** @defgroup GPIO_Private_Functions
 100:../../STM32F10x_StdPeriph_Lib_V3.5.0/Libraries/STM32F10x_StdPeriph_Driver/src/stm32f10x_gpio.c ****   * @{
 101:../../STM32F10x_StdPeriph_Lib_V3.5.0/Libraries/STM32F10x_StdPeriph_Driver/src/stm32f10x_gpio.c ****   */
 102:../../STM32F10x_StdPeriph_Lib_V3.5.0/Libraries/STM32F10x_StdPeriph_Driver/src/stm32f10x_gpio.c **** 
 103:../../STM32F10x_StdPeriph_Lib_V3.5.0/Libraries/STM32F10x_StdPeriph_Driver/src/stm32f10x_gpio.c **** /**
 104:../../STM32F10x_StdPeriph_Lib_V3.5.0/Libraries/STM32F10x_StdPeriph_Driver/src/stm32f10x_gpio.c ****   * @brief  Deinitializes the GPIOx peripheral registers to their default reset values.
 105:../../STM32F10x_StdPeriph_Lib_V3.5.0/Libraries/STM32F10x_StdPeriph_Driver/src/stm32f10x_gpio.c ****   * @param  GPIOx: where x can be (A..G) to select the GPIO peripheral.
 106:../../STM32F10x_StdPeriph_Lib_V3.5.0/Libraries/STM32F10x_StdPeriph_Driver/src/stm32f10x_gpio.c ****   * @retval None
 107:../../STM32F10x_StdPeriph_Lib_V3.5.0/Libraries/STM32F10x_StdPeriph_Driver/src/stm32f10x_gpio.c ****   */
 108:../../STM32F10x_StdPeriph_Lib_V3.5.0/Libraries/STM32F10x_StdPeriph_Driver/src/stm32f10x_gpio.c **** void GPIO_DeInit(GPIO_TypeDef* GPIOx)
 109:../../STM32F10x_StdPeriph_Lib_V3.5.0/Libraries/STM32F10x_StdPeriph_Driver/src/stm32f10x_gpio.c **** {
  61              		.loc 1 109 0
  62              		.cfi_startproc
ARM GAS  /tmp/ccvxPp7R.s 			page 4


  63              		@ args = 0, pretend = 0, frame = 8
  64              		@ frame_needed = 0, uses_anonymous_args = 0
  65 0000 00B5     		push	{lr}	@
  66              	.LCFI0:
  67              		.cfi_def_cfa_offset 4
  68              		.cfi_offset 14, -4
  69 0002 83B0     		sub	sp, sp, #12	@,,
  70              	.LCFI1:
  71              		.cfi_def_cfa_offset 16
  72 0004 0190     		str	r0, [sp, #4]	@ GPIOx, GPIOx
 110:../../STM32F10x_StdPeriph_Lib_V3.5.0/Libraries/STM32F10x_StdPeriph_Driver/src/stm32f10x_gpio.c ****   /* Check the parameters */
 111:../../STM32F10x_StdPeriph_Lib_V3.5.0/Libraries/STM32F10x_StdPeriph_Driver/src/stm32f10x_gpio.c ****   assert_param(IS_GPIO_ALL_PERIPH(GPIOx));
 112:../../STM32F10x_StdPeriph_Lib_V3.5.0/Libraries/STM32F10x_StdPeriph_Driver/src/stm32f10x_gpio.c ****   
 113:../../STM32F10x_StdPeriph_Lib_V3.5.0/Libraries/STM32F10x_StdPeriph_Driver/src/stm32f10x_gpio.c ****   if (GPIOx == GPIOA)
  73              		.loc 1 113 0
  74 0006 019B     		ldr	r3, [sp, #4]	@ tmp110, GPIOx
  75 0008 2E4A     		ldr	r2, .L9	@ tmp111,
  76 000a 9342     		cmp	r3, r2	@ tmp110, tmp111
  77 000c 08D1     		bne	.L2	@,
 114:../../STM32F10x_StdPeriph_Lib_V3.5.0/Libraries/STM32F10x_StdPeriph_Driver/src/stm32f10x_gpio.c ****   {
 115:../../STM32F10x_StdPeriph_Lib_V3.5.0/Libraries/STM32F10x_StdPeriph_Driver/src/stm32f10x_gpio.c ****     RCC_APB2PeriphResetCmd(RCC_APB2Periph_GPIOA, ENABLE);
  78              		.loc 1 115 0
  79 000e 0420     		movs	r0, #4	@,
  80 0010 0121     		movs	r1, #1	@,
  81 0012 FFF7FEFF 		bl	RCC_APB2PeriphResetCmd	@
 116:../../STM32F10x_StdPeriph_Lib_V3.5.0/Libraries/STM32F10x_StdPeriph_Driver/src/stm32f10x_gpio.c ****     RCC_APB2PeriphResetCmd(RCC_APB2Periph_GPIOA, DISABLE);
  82              		.loc 1 116 0
  83 0016 0420     		movs	r0, #4	@,
  84 0018 0021     		movs	r1, #0	@,
  85 001a FFF7FEFF 		bl	RCC_APB2PeriphResetCmd	@
  86 001e 4EE0     		b	.L1	@
  87              	.L2:
 117:../../STM32F10x_StdPeriph_Lib_V3.5.0/Libraries/STM32F10x_StdPeriph_Driver/src/stm32f10x_gpio.c ****   }
 118:../../STM32F10x_StdPeriph_Lib_V3.5.0/Libraries/STM32F10x_StdPeriph_Driver/src/stm32f10x_gpio.c ****   else if (GPIOx == GPIOB)
  88              		.loc 1 118 0
  89 0020 019B     		ldr	r3, [sp, #4]	@ tmp112, GPIOx
  90 0022 294A     		ldr	r2, .L9+4	@ tmp113,
  91 0024 9342     		cmp	r3, r2	@ tmp112, tmp113
  92 0026 08D1     		bne	.L4	@,
 119:../../STM32F10x_StdPeriph_Lib_V3.5.0/Libraries/STM32F10x_StdPeriph_Driver/src/stm32f10x_gpio.c ****   {
 120:../../STM32F10x_StdPeriph_Lib_V3.5.0/Libraries/STM32F10x_StdPeriph_Driver/src/stm32f10x_gpio.c ****     RCC_APB2PeriphResetCmd(RCC_APB2Periph_GPIOB, ENABLE);
  93              		.loc 1 120 0
  94 0028 0820     		movs	r0, #8	@,
  95 002a 0121     		movs	r1, #1	@,
  96 002c FFF7FEFF 		bl	RCC_APB2PeriphResetCmd	@
 121:../../STM32F10x_StdPeriph_Lib_V3.5.0/Libraries/STM32F10x_StdPeriph_Driver/src/stm32f10x_gpio.c ****     RCC_APB2PeriphResetCmd(RCC_APB2Periph_GPIOB, DISABLE);
  97              		.loc 1 121 0
  98 0030 0820     		movs	r0, #8	@,
  99 0032 0021     		movs	r1, #0	@,
 100 0034 FFF7FEFF 		bl	RCC_APB2PeriphResetCmd	@
 101 0038 41E0     		b	.L1	@
 102              	.L4:
 122:../../STM32F10x_StdPeriph_Lib_V3.5.0/Libraries/STM32F10x_StdPeriph_Driver/src/stm32f10x_gpio.c ****   }
 123:../../STM32F10x_StdPeriph_Lib_V3.5.0/Libraries/STM32F10x_StdPeriph_Driver/src/stm32f10x_gpio.c ****   else if (GPIOx == GPIOC)
 103              		.loc 1 123 0
 104 003a 019B     		ldr	r3, [sp, #4]	@ tmp114, GPIOx
 105 003c 234A     		ldr	r2, .L9+8	@ tmp115,
ARM GAS  /tmp/ccvxPp7R.s 			page 5


 106 003e 9342     		cmp	r3, r2	@ tmp114, tmp115
 107 0040 08D1     		bne	.L5	@,
 124:../../STM32F10x_StdPeriph_Lib_V3.5.0/Libraries/STM32F10x_StdPeriph_Driver/src/stm32f10x_gpio.c ****   {
 125:../../STM32F10x_StdPeriph_Lib_V3.5.0/Libraries/STM32F10x_StdPeriph_Driver/src/stm32f10x_gpio.c ****     RCC_APB2PeriphResetCmd(RCC_APB2Periph_GPIOC, ENABLE);
 108              		.loc 1 125 0
 109 0042 1020     		movs	r0, #16	@,
 110 0044 0121     		movs	r1, #1	@,
 111 0046 FFF7FEFF 		bl	RCC_APB2PeriphResetCmd	@
 126:../../STM32F10x_StdPeriph_Lib_V3.5.0/Libraries/STM32F10x_StdPeriph_Driver/src/stm32f10x_gpio.c ****     RCC_APB2PeriphResetCmd(RCC_APB2Periph_GPIOC, DISABLE);
 112              		.loc 1 126 0
 113 004a 1020     		movs	r0, #16	@,
 114 004c 0021     		movs	r1, #0	@,
 115 004e FFF7FEFF 		bl	RCC_APB2PeriphResetCmd	@
 116 0052 34E0     		b	.L1	@
 117              	.L5:
 127:../../STM32F10x_StdPeriph_Lib_V3.5.0/Libraries/STM32F10x_StdPeriph_Driver/src/stm32f10x_gpio.c ****   }
 128:../../STM32F10x_StdPeriph_Lib_V3.5.0/Libraries/STM32F10x_StdPeriph_Driver/src/stm32f10x_gpio.c ****   else if (GPIOx == GPIOD)
 118              		.loc 1 128 0
 119 0054 019B     		ldr	r3, [sp, #4]	@ tmp116, GPIOx
 120 0056 1E4A     		ldr	r2, .L9+12	@ tmp117,
 121 0058 9342     		cmp	r3, r2	@ tmp116, tmp117
 122 005a 08D1     		bne	.L6	@,
 129:../../STM32F10x_StdPeriph_Lib_V3.5.0/Libraries/STM32F10x_StdPeriph_Driver/src/stm32f10x_gpio.c ****   {
 130:../../STM32F10x_StdPeriph_Lib_V3.5.0/Libraries/STM32F10x_StdPeriph_Driver/src/stm32f10x_gpio.c ****     RCC_APB2PeriphResetCmd(RCC_APB2Periph_GPIOD, ENABLE);
 123              		.loc 1 130 0
 124 005c 2020     		movs	r0, #32	@,
 125 005e 0121     		movs	r1, #1	@,
 126 0060 FFF7FEFF 		bl	RCC_APB2PeriphResetCmd	@
 131:../../STM32F10x_StdPeriph_Lib_V3.5.0/Libraries/STM32F10x_StdPeriph_Driver/src/stm32f10x_gpio.c ****     RCC_APB2PeriphResetCmd(RCC_APB2Periph_GPIOD, DISABLE);
 127              		.loc 1 131 0
 128 0064 2020     		movs	r0, #32	@,
 129 0066 0021     		movs	r1, #0	@,
 130 0068 FFF7FEFF 		bl	RCC_APB2PeriphResetCmd	@
 131 006c 27E0     		b	.L1	@
 132              	.L6:
 132:../../STM32F10x_StdPeriph_Lib_V3.5.0/Libraries/STM32F10x_StdPeriph_Driver/src/stm32f10x_gpio.c ****   }    
 133:../../STM32F10x_StdPeriph_Lib_V3.5.0/Libraries/STM32F10x_StdPeriph_Driver/src/stm32f10x_gpio.c ****   else if (GPIOx == GPIOE)
 133              		.loc 1 133 0
 134 006e 019B     		ldr	r3, [sp, #4]	@ tmp118, GPIOx
 135 0070 184A     		ldr	r2, .L9+16	@ tmp119,
 136 0072 9342     		cmp	r3, r2	@ tmp118, tmp119
 137 0074 08D1     		bne	.L7	@,
 134:../../STM32F10x_StdPeriph_Lib_V3.5.0/Libraries/STM32F10x_StdPeriph_Driver/src/stm32f10x_gpio.c ****   {
 135:../../STM32F10x_StdPeriph_Lib_V3.5.0/Libraries/STM32F10x_StdPeriph_Driver/src/stm32f10x_gpio.c ****     RCC_APB2PeriphResetCmd(RCC_APB2Periph_GPIOE, ENABLE);
 138              		.loc 1 135 0
 139 0076 4020     		movs	r0, #64	@,
 140 0078 0121     		movs	r1, #1	@,
 141 007a FFF7FEFF 		bl	RCC_APB2PeriphResetCmd	@
 136:../../STM32F10x_StdPeriph_Lib_V3.5.0/Libraries/STM32F10x_StdPeriph_Driver/src/stm32f10x_gpio.c ****     RCC_APB2PeriphResetCmd(RCC_APB2Periph_GPIOE, DISABLE);
 142              		.loc 1 136 0
 143 007e 4020     		movs	r0, #64	@,
 144 0080 0021     		movs	r1, #0	@,
 145 0082 FFF7FEFF 		bl	RCC_APB2PeriphResetCmd	@
 146 0086 1AE0     		b	.L1	@
 147              	.L7:
 137:../../STM32F10x_StdPeriph_Lib_V3.5.0/Libraries/STM32F10x_StdPeriph_Driver/src/stm32f10x_gpio.c ****   } 
 138:../../STM32F10x_StdPeriph_Lib_V3.5.0/Libraries/STM32F10x_StdPeriph_Driver/src/stm32f10x_gpio.c ****   else if (GPIOx == GPIOF)
ARM GAS  /tmp/ccvxPp7R.s 			page 6


 148              		.loc 1 138 0
 149 0088 019B     		ldr	r3, [sp, #4]	@ tmp120, GPIOx
 150 008a 134A     		ldr	r2, .L9+20	@ tmp121,
 151 008c 9342     		cmp	r3, r2	@ tmp120, tmp121
 152 008e 08D1     		bne	.L8	@,
 139:../../STM32F10x_StdPeriph_Lib_V3.5.0/Libraries/STM32F10x_StdPeriph_Driver/src/stm32f10x_gpio.c ****   {
 140:../../STM32F10x_StdPeriph_Lib_V3.5.0/Libraries/STM32F10x_StdPeriph_Driver/src/stm32f10x_gpio.c ****     RCC_APB2PeriphResetCmd(RCC_APB2Periph_GPIOF, ENABLE);
 153              		.loc 1 140 0
 154 0090 8020     		movs	r0, #128	@,
 155 0092 0121     		movs	r1, #1	@,
 156 0094 FFF7FEFF 		bl	RCC_APB2PeriphResetCmd	@
 141:../../STM32F10x_StdPeriph_Lib_V3.5.0/Libraries/STM32F10x_StdPeriph_Driver/src/stm32f10x_gpio.c ****     RCC_APB2PeriphResetCmd(RCC_APB2Periph_GPIOF, DISABLE);
 157              		.loc 1 141 0
 158 0098 8020     		movs	r0, #128	@,
 159 009a 0021     		movs	r1, #0	@,
 160 009c FFF7FEFF 		bl	RCC_APB2PeriphResetCmd	@
 161 00a0 0DE0     		b	.L1	@
 162              	.L8:
 142:../../STM32F10x_StdPeriph_Lib_V3.5.0/Libraries/STM32F10x_StdPeriph_Driver/src/stm32f10x_gpio.c ****   }
 143:../../STM32F10x_StdPeriph_Lib_V3.5.0/Libraries/STM32F10x_StdPeriph_Driver/src/stm32f10x_gpio.c ****   else
 144:../../STM32F10x_StdPeriph_Lib_V3.5.0/Libraries/STM32F10x_StdPeriph_Driver/src/stm32f10x_gpio.c ****   {
 145:../../STM32F10x_StdPeriph_Lib_V3.5.0/Libraries/STM32F10x_StdPeriph_Driver/src/stm32f10x_gpio.c ****     if (GPIOx == GPIOG)
 163              		.loc 1 145 0
 164 00a2 019B     		ldr	r3, [sp, #4]	@ tmp122, GPIOx
 165 00a4 0D4A     		ldr	r2, .L9+24	@ tmp123,
 166 00a6 9342     		cmp	r3, r2	@ tmp122, tmp123
 167 00a8 09D1     		bne	.L1	@,
 146:../../STM32F10x_StdPeriph_Lib_V3.5.0/Libraries/STM32F10x_StdPeriph_Driver/src/stm32f10x_gpio.c ****     {
 147:../../STM32F10x_StdPeriph_Lib_V3.5.0/Libraries/STM32F10x_StdPeriph_Driver/src/stm32f10x_gpio.c ****       RCC_APB2PeriphResetCmd(RCC_APB2Periph_GPIOG, ENABLE);
 168              		.loc 1 147 0
 169 00aa 4FF48070 		mov	r0, #256	@,
 170 00ae 0121     		movs	r1, #1	@,
 171 00b0 FFF7FEFF 		bl	RCC_APB2PeriphResetCmd	@
 148:../../STM32F10x_StdPeriph_Lib_V3.5.0/Libraries/STM32F10x_StdPeriph_Driver/src/stm32f10x_gpio.c ****       RCC_APB2PeriphResetCmd(RCC_APB2Periph_GPIOG, DISABLE);
 172              		.loc 1 148 0
 173 00b4 4FF48070 		mov	r0, #256	@,
 174 00b8 0021     		movs	r1, #0	@,
 175 00ba FFF7FEFF 		bl	RCC_APB2PeriphResetCmd	@
 176              	.L1:
 149:../../STM32F10x_StdPeriph_Lib_V3.5.0/Libraries/STM32F10x_StdPeriph_Driver/src/stm32f10x_gpio.c ****     }
 150:../../STM32F10x_StdPeriph_Lib_V3.5.0/Libraries/STM32F10x_StdPeriph_Driver/src/stm32f10x_gpio.c ****   }
 151:../../STM32F10x_StdPeriph_Lib_V3.5.0/Libraries/STM32F10x_StdPeriph_Driver/src/stm32f10x_gpio.c **** }
 177              		.loc 1 151 0
 178 00be 03B0     		add	sp, sp, #12	@,,
 179              	.LCFI2:
 180              		.cfi_def_cfa_offset 4
 181              		@ sp needed	@
 182 00c0 5DF804FB 		ldr	pc, [sp], #4	@
 183              	.L10:
 184              		.align	2
 185              	.L9:
 186 00c4 00080140 		.word	1073809408
 187 00c8 000C0140 		.word	1073810432
 188 00cc 00100140 		.word	1073811456
 189 00d0 00140140 		.word	1073812480
 190 00d4 00180140 		.word	1073813504
 191 00d8 001C0140 		.word	1073814528
ARM GAS  /tmp/ccvxPp7R.s 			page 7


 192 00dc 00200140 		.word	1073815552
 193              		.cfi_endproc
 194              	.LFE29:
 195              		.size	GPIO_DeInit, .-GPIO_DeInit
 196              		.align	2
 197              		.global	GPIO_AFIODeInit
 198              		.thumb
 199              		.thumb_func
 200              		.type	GPIO_AFIODeInit, %function
 201              	GPIO_AFIODeInit:
 202              	.LFB30:
 152:../../STM32F10x_StdPeriph_Lib_V3.5.0/Libraries/STM32F10x_StdPeriph_Driver/src/stm32f10x_gpio.c **** 
 153:../../STM32F10x_StdPeriph_Lib_V3.5.0/Libraries/STM32F10x_StdPeriph_Driver/src/stm32f10x_gpio.c **** /**
 154:../../STM32F10x_StdPeriph_Lib_V3.5.0/Libraries/STM32F10x_StdPeriph_Driver/src/stm32f10x_gpio.c ****   * @brief  Deinitializes the Alternate Functions (remap, event control
 155:../../STM32F10x_StdPeriph_Lib_V3.5.0/Libraries/STM32F10x_StdPeriph_Driver/src/stm32f10x_gpio.c ****   *   and EXTI configuration) registers to their default reset values.
 156:../../STM32F10x_StdPeriph_Lib_V3.5.0/Libraries/STM32F10x_StdPeriph_Driver/src/stm32f10x_gpio.c ****   * @param  None
 157:../../STM32F10x_StdPeriph_Lib_V3.5.0/Libraries/STM32F10x_StdPeriph_Driver/src/stm32f10x_gpio.c ****   * @retval None
 158:../../STM32F10x_StdPeriph_Lib_V3.5.0/Libraries/STM32F10x_StdPeriph_Driver/src/stm32f10x_gpio.c ****   */
 159:../../STM32F10x_StdPeriph_Lib_V3.5.0/Libraries/STM32F10x_StdPeriph_Driver/src/stm32f10x_gpio.c **** void GPIO_AFIODeInit(void)
 160:../../STM32F10x_StdPeriph_Lib_V3.5.0/Libraries/STM32F10x_StdPeriph_Driver/src/stm32f10x_gpio.c **** {
 203              		.loc 1 160 0
 204              		.cfi_startproc
 205              		@ args = 0, pretend = 0, frame = 0
 206              		@ frame_needed = 0, uses_anonymous_args = 0
 207 00e0 08B5     		push	{r3, lr}	@
 208              	.LCFI3:
 209              		.cfi_def_cfa_offset 8
 210              		.cfi_offset 3, -8
 211              		.cfi_offset 14, -4
 161:../../STM32F10x_StdPeriph_Lib_V3.5.0/Libraries/STM32F10x_StdPeriph_Driver/src/stm32f10x_gpio.c ****   RCC_APB2PeriphResetCmd(RCC_APB2Periph_AFIO, ENABLE);
 212              		.loc 1 161 0
 213 00e2 0120     		movs	r0, #1	@,
 214 00e4 0121     		movs	r1, #1	@,
 215 00e6 FFF7FEFF 		bl	RCC_APB2PeriphResetCmd	@
 162:../../STM32F10x_StdPeriph_Lib_V3.5.0/Libraries/STM32F10x_StdPeriph_Driver/src/stm32f10x_gpio.c ****   RCC_APB2PeriphResetCmd(RCC_APB2Periph_AFIO, DISABLE);
 216              		.loc 1 162 0
 217 00ea 0120     		movs	r0, #1	@,
 218 00ec 0021     		movs	r1, #0	@,
 219 00ee FFF7FEFF 		bl	RCC_APB2PeriphResetCmd	@
 163:../../STM32F10x_StdPeriph_Lib_V3.5.0/Libraries/STM32F10x_StdPeriph_Driver/src/stm32f10x_gpio.c **** }
 220              		.loc 1 163 0
 221 00f2 08BD     		pop	{r3, pc}	@
 222              		.cfi_endproc
 223              	.LFE30:
 224              		.size	GPIO_AFIODeInit, .-GPIO_AFIODeInit
 225              		.align	2
 226              		.global	GPIO_Init
 227              		.thumb
 228              		.thumb_func
 229              		.type	GPIO_Init, %function
 230              	GPIO_Init:
 231              	.LFB31:
 164:../../STM32F10x_StdPeriph_Lib_V3.5.0/Libraries/STM32F10x_StdPeriph_Driver/src/stm32f10x_gpio.c **** 
 165:../../STM32F10x_StdPeriph_Lib_V3.5.0/Libraries/STM32F10x_StdPeriph_Driver/src/stm32f10x_gpio.c **** /**
 166:../../STM32F10x_StdPeriph_Lib_V3.5.0/Libraries/STM32F10x_StdPeriph_Driver/src/stm32f10x_gpio.c ****   * @brief  Initializes the GPIOx peripheral according to the specified
 167:../../STM32F10x_StdPeriph_Lib_V3.5.0/Libraries/STM32F10x_StdPeriph_Driver/src/stm32f10x_gpio.c ****   *         parameters in the GPIO_InitStruct.
 168:../../STM32F10x_StdPeriph_Lib_V3.5.0/Libraries/STM32F10x_StdPeriph_Driver/src/stm32f10x_gpio.c ****   * @param  GPIOx: where x can be (A..G) to select the GPIO peripheral.
ARM GAS  /tmp/ccvxPp7R.s 			page 8


 169:../../STM32F10x_StdPeriph_Lib_V3.5.0/Libraries/STM32F10x_StdPeriph_Driver/src/stm32f10x_gpio.c ****   * @param  GPIO_InitStruct: pointer to a GPIO_InitTypeDef structure that
 170:../../STM32F10x_StdPeriph_Lib_V3.5.0/Libraries/STM32F10x_StdPeriph_Driver/src/stm32f10x_gpio.c ****   *         contains the configuration information for the specified GPIO peripheral.
 171:../../STM32F10x_StdPeriph_Lib_V3.5.0/Libraries/STM32F10x_StdPeriph_Driver/src/stm32f10x_gpio.c ****   * @retval None
 172:../../STM32F10x_StdPeriph_Lib_V3.5.0/Libraries/STM32F10x_StdPeriph_Driver/src/stm32f10x_gpio.c ****   */
 173:../../STM32F10x_StdPeriph_Lib_V3.5.0/Libraries/STM32F10x_StdPeriph_Driver/src/stm32f10x_gpio.c **** void GPIO_Init(GPIO_TypeDef* GPIOx, GPIO_InitTypeDef* GPIO_InitStruct)
 174:../../STM32F10x_StdPeriph_Lib_V3.5.0/Libraries/STM32F10x_StdPeriph_Driver/src/stm32f10x_gpio.c **** {
 232              		.loc 1 174 0
 233              		.cfi_startproc
 234              		@ args = 0, pretend = 0, frame = 32
 235              		@ frame_needed = 0, uses_anonymous_args = 0
 236              		@ link register save eliminated.
 237 00f4 88B0     		sub	sp, sp, #32	@,,
 238              	.LCFI4:
 239              		.cfi_def_cfa_offset 32
 240 00f6 0190     		str	r0, [sp, #4]	@ GPIOx, GPIOx
 241 00f8 0091     		str	r1, [sp]	@ GPIO_InitStruct, GPIO_InitStruct
 175:../../STM32F10x_StdPeriph_Lib_V3.5.0/Libraries/STM32F10x_StdPeriph_Driver/src/stm32f10x_gpio.c ****   uint32_t currentmode = 0x00, currentpin = 0x00, pinpos = 0x00, pos = 0x00;
 242              		.loc 1 175 0
 243 00fa 0023     		movs	r3, #0	@ tmp150,
 244 00fc 0793     		str	r3, [sp, #28]	@ tmp150, currentmode
 245 00fe 0023     		movs	r3, #0	@ tmp151,
 246 0100 0493     		str	r3, [sp, #16]	@ tmp151, currentpin
 247 0102 0023     		movs	r3, #0	@ tmp152,
 248 0104 0693     		str	r3, [sp, #24]	@ tmp152, pinpos
 249 0106 0023     		movs	r3, #0	@ tmp153,
 250 0108 0393     		str	r3, [sp, #12]	@ tmp153, pos
 176:../../STM32F10x_StdPeriph_Lib_V3.5.0/Libraries/STM32F10x_StdPeriph_Driver/src/stm32f10x_gpio.c ****   uint32_t tmpreg = 0x00, pinmask = 0x00;
 251              		.loc 1 176 0
 252 010a 0023     		movs	r3, #0	@ tmp154,
 253 010c 0593     		str	r3, [sp, #20]	@ tmp154, tmpreg
 254 010e 0023     		movs	r3, #0	@ tmp155,
 255 0110 0293     		str	r3, [sp, #8]	@ tmp155, pinmask
 177:../../STM32F10x_StdPeriph_Lib_V3.5.0/Libraries/STM32F10x_StdPeriph_Driver/src/stm32f10x_gpio.c ****   /* Check the parameters */
 178:../../STM32F10x_StdPeriph_Lib_V3.5.0/Libraries/STM32F10x_StdPeriph_Driver/src/stm32f10x_gpio.c ****   assert_param(IS_GPIO_ALL_PERIPH(GPIOx));
 179:../../STM32F10x_StdPeriph_Lib_V3.5.0/Libraries/STM32F10x_StdPeriph_Driver/src/stm32f10x_gpio.c ****   assert_param(IS_GPIO_MODE(GPIO_InitStruct->GPIO_Mode));
 180:../../STM32F10x_StdPeriph_Lib_V3.5.0/Libraries/STM32F10x_StdPeriph_Driver/src/stm32f10x_gpio.c ****   assert_param(IS_GPIO_PIN(GPIO_InitStruct->GPIO_Pin));  
 181:../../STM32F10x_StdPeriph_Lib_V3.5.0/Libraries/STM32F10x_StdPeriph_Driver/src/stm32f10x_gpio.c ****   
 182:../../STM32F10x_StdPeriph_Lib_V3.5.0/Libraries/STM32F10x_StdPeriph_Driver/src/stm32f10x_gpio.c **** /*---------------------------- GPIO Mode Configuration -----------------------*/
 183:../../STM32F10x_StdPeriph_Lib_V3.5.0/Libraries/STM32F10x_StdPeriph_Driver/src/stm32f10x_gpio.c ****   currentmode = ((uint32_t)GPIO_InitStruct->GPIO_Mode) & ((uint32_t)0x0F);
 256              		.loc 1 183 0
 257 0112 009B     		ldr	r3, [sp]	@ tmp156, GPIO_InitStruct
 258 0114 DB78     		ldrb	r3, [r3, #3]	@ zero_extendqisi2	@ D.6728, GPIO_InitStruct_14(D)->GPIO_Mode
 259 0116 03F00F03 		and	r3, r3, #15	@ tmp157, D.6729,
 260 011a 0793     		str	r3, [sp, #28]	@ tmp157, currentmode
 184:../../STM32F10x_StdPeriph_Lib_V3.5.0/Libraries/STM32F10x_StdPeriph_Driver/src/stm32f10x_gpio.c ****   if ((((uint32_t)GPIO_InitStruct->GPIO_Mode) & ((uint32_t)0x10)) != 0x00)
 261              		.loc 1 184 0
 262 011c 009B     		ldr	r3, [sp]	@ tmp158, GPIO_InitStruct
 263 011e DB78     		ldrb	r3, [r3, #3]	@ zero_extendqisi2	@ D.6728, GPIO_InitStruct_14(D)->GPIO_Mode
 264 0120 03F01003 		and	r3, r3, #16	@ D.6729, D.6729,
 265 0124 002B     		cmp	r3, #0	@ D.6729,
 266 0126 05D0     		beq	.L13	@,
 185:../../STM32F10x_StdPeriph_Lib_V3.5.0/Libraries/STM32F10x_StdPeriph_Driver/src/stm32f10x_gpio.c ****   { 
 186:../../STM32F10x_StdPeriph_Lib_V3.5.0/Libraries/STM32F10x_StdPeriph_Driver/src/stm32f10x_gpio.c ****     /* Check the parameters */
 187:../../STM32F10x_StdPeriph_Lib_V3.5.0/Libraries/STM32F10x_StdPeriph_Driver/src/stm32f10x_gpio.c ****     assert_param(IS_GPIO_SPEED(GPIO_InitStruct->GPIO_Speed));
 188:../../STM32F10x_StdPeriph_Lib_V3.5.0/Libraries/STM32F10x_StdPeriph_Driver/src/stm32f10x_gpio.c ****     /* Output mode */
 189:../../STM32F10x_StdPeriph_Lib_V3.5.0/Libraries/STM32F10x_StdPeriph_Driver/src/stm32f10x_gpio.c ****     currentmode |= (uint32_t)GPIO_InitStruct->GPIO_Speed;
 267              		.loc 1 189 0
ARM GAS  /tmp/ccvxPp7R.s 			page 9


 268 0128 009B     		ldr	r3, [sp]	@ tmp159, GPIO_InitStruct
 269 012a 9B78     		ldrb	r3, [r3, #2]	@ zero_extendqisi2	@ D.6730, GPIO_InitStruct_14(D)->GPIO_Speed
 270 012c 1A46     		mov	r2, r3	@ D.6729, D.6730
 271 012e 079B     		ldr	r3, [sp, #28]	@ tmp161, currentmode
 272 0130 1343     		orrs	r3, r3, r2	@, tmp160, tmp161, D.6729
 273 0132 0793     		str	r3, [sp, #28]	@ tmp160, currentmode
 274              	.L13:
 190:../../STM32F10x_StdPeriph_Lib_V3.5.0/Libraries/STM32F10x_StdPeriph_Driver/src/stm32f10x_gpio.c ****   }
 191:../../STM32F10x_StdPeriph_Lib_V3.5.0/Libraries/STM32F10x_StdPeriph_Driver/src/stm32f10x_gpio.c **** /*---------------------------- GPIO CRL Configuration ------------------------*/
 192:../../STM32F10x_StdPeriph_Lib_V3.5.0/Libraries/STM32F10x_StdPeriph_Driver/src/stm32f10x_gpio.c ****   /* Configure the eight low port pins */
 193:../../STM32F10x_StdPeriph_Lib_V3.5.0/Libraries/STM32F10x_StdPeriph_Driver/src/stm32f10x_gpio.c ****   if (((uint32_t)GPIO_InitStruct->GPIO_Pin & ((uint32_t)0x00FF)) != 0x00)
 275              		.loc 1 193 0
 276 0134 009B     		ldr	r3, [sp]	@ tmp162, GPIO_InitStruct
 277 0136 1B88     		ldrh	r3, [r3]	@ D.6731, GPIO_InitStruct_14(D)->GPIO_Pin
 278 0138 DBB2     		uxtb	r3, r3	@ D.6729, D.6729
 279 013a 002B     		cmp	r3, #0	@ D.6729,
 280 013c 44D0     		beq	.L14	@,
 194:../../STM32F10x_StdPeriph_Lib_V3.5.0/Libraries/STM32F10x_StdPeriph_Driver/src/stm32f10x_gpio.c ****   {
 195:../../STM32F10x_StdPeriph_Lib_V3.5.0/Libraries/STM32F10x_StdPeriph_Driver/src/stm32f10x_gpio.c ****     tmpreg = GPIOx->CRL;
 281              		.loc 1 195 0
 282 013e 019B     		ldr	r3, [sp, #4]	@ tmp163, GPIOx
 283 0140 1B68     		ldr	r3, [r3]	@ tmp164, GPIOx_27(D)->CRL
 284 0142 0593     		str	r3, [sp, #20]	@ tmp164, tmpreg
 196:../../STM32F10x_StdPeriph_Lib_V3.5.0/Libraries/STM32F10x_StdPeriph_Driver/src/stm32f10x_gpio.c ****     for (pinpos = 0x00; pinpos < 0x08; pinpos++)
 285              		.loc 1 196 0
 286 0144 0023     		movs	r3, #0	@ tmp165,
 287 0146 0693     		str	r3, [sp, #24]	@ tmp165, pinpos
 288 0148 38E0     		b	.L15	@
 289              	.L18:
 197:../../STM32F10x_StdPeriph_Lib_V3.5.0/Libraries/STM32F10x_StdPeriph_Driver/src/stm32f10x_gpio.c ****     {
 198:../../STM32F10x_StdPeriph_Lib_V3.5.0/Libraries/STM32F10x_StdPeriph_Driver/src/stm32f10x_gpio.c ****       pos = ((uint32_t)0x01) << pinpos;
 290              		.loc 1 198 0
 291 014a 069B     		ldr	r3, [sp, #24]	@ D.6732, pinpos
 292 014c 0122     		movs	r2, #1	@ tmp167,
 293 014e 02FA03F3 		lsl	r3, r2, r3	@ tmp166, tmp167, D.6732
 294 0152 0393     		str	r3, [sp, #12]	@ tmp166, pos
 199:../../STM32F10x_StdPeriph_Lib_V3.5.0/Libraries/STM32F10x_StdPeriph_Driver/src/stm32f10x_gpio.c ****       /* Get the port pins position */
 200:../../STM32F10x_StdPeriph_Lib_V3.5.0/Libraries/STM32F10x_StdPeriph_Driver/src/stm32f10x_gpio.c ****       currentpin = (GPIO_InitStruct->GPIO_Pin) & pos;
 295              		.loc 1 200 0
 296 0154 009B     		ldr	r3, [sp]	@ tmp168, GPIO_InitStruct
 297 0156 1B88     		ldrh	r3, [r3]	@ D.6731, GPIO_InitStruct_14(D)->GPIO_Pin
 298 0158 1A46     		mov	r2, r3	@ D.6729, D.6731
 299 015a 039B     		ldr	r3, [sp, #12]	@ tmp170, pos
 300 015c 1340     		ands	r3, r3, r2	@, tmp169, tmp170, D.6729
 301 015e 0493     		str	r3, [sp, #16]	@ tmp169, currentpin
 201:../../STM32F10x_StdPeriph_Lib_V3.5.0/Libraries/STM32F10x_StdPeriph_Driver/src/stm32f10x_gpio.c ****       if (currentpin == pos)
 302              		.loc 1 201 0
 303 0160 049A     		ldr	r2, [sp, #16]	@ tmp171, currentpin
 304 0162 039B     		ldr	r3, [sp, #12]	@ tmp172, pos
 305 0164 9A42     		cmp	r2, r3	@ tmp171, tmp172
 306 0166 26D1     		bne	.L16	@,
 202:../../STM32F10x_StdPeriph_Lib_V3.5.0/Libraries/STM32F10x_StdPeriph_Driver/src/stm32f10x_gpio.c ****       {
 203:../../STM32F10x_StdPeriph_Lib_V3.5.0/Libraries/STM32F10x_StdPeriph_Driver/src/stm32f10x_gpio.c ****         pos = pinpos << 2;
 307              		.loc 1 203 0
 308 0168 069B     		ldr	r3, [sp, #24]	@ tmp174, pinpos
 309 016a 9B00     		lsls	r3, r3, #2	@ tmp173, tmp174,
 310 016c 0393     		str	r3, [sp, #12]	@ tmp173, pos
ARM GAS  /tmp/ccvxPp7R.s 			page 10


 204:../../STM32F10x_StdPeriph_Lib_V3.5.0/Libraries/STM32F10x_StdPeriph_Driver/src/stm32f10x_gpio.c ****         /* Clear the corresponding low control register bits */
 205:../../STM32F10x_StdPeriph_Lib_V3.5.0/Libraries/STM32F10x_StdPeriph_Driver/src/stm32f10x_gpio.c ****         pinmask = ((uint32_t)0x0F) << pos;
 311              		.loc 1 205 0
 312 016e 039B     		ldr	r3, [sp, #12]	@ D.6732, pos
 313 0170 0F22     		movs	r2, #15	@ tmp176,
 314 0172 02FA03F3 		lsl	r3, r2, r3	@ tmp175, tmp176, D.6732
 315 0176 0293     		str	r3, [sp, #8]	@ tmp175, pinmask
 206:../../STM32F10x_StdPeriph_Lib_V3.5.0/Libraries/STM32F10x_StdPeriph_Driver/src/stm32f10x_gpio.c ****         tmpreg &= ~pinmask;
 316              		.loc 1 206 0
 317 0178 029B     		ldr	r3, [sp, #8]	@ tmp177, pinmask
 318 017a DB43     		mvns	r3, r3	@ D.6729, tmp177
 319 017c 059A     		ldr	r2, [sp, #20]	@ tmp179, tmpreg
 320 017e 1340     		ands	r3, r3, r2	@, tmp178, D.6729, tmp179
 321 0180 0593     		str	r3, [sp, #20]	@ tmp178, tmpreg
 207:../../STM32F10x_StdPeriph_Lib_V3.5.0/Libraries/STM32F10x_StdPeriph_Driver/src/stm32f10x_gpio.c ****         /* Write the mode configuration in the corresponding bits */
 208:../../STM32F10x_StdPeriph_Lib_V3.5.0/Libraries/STM32F10x_StdPeriph_Driver/src/stm32f10x_gpio.c ****         tmpreg |= (currentmode << pos);
 322              		.loc 1 208 0
 323 0182 039B     		ldr	r3, [sp, #12]	@ D.6732, pos
 324 0184 079A     		ldr	r2, [sp, #28]	@ tmp180, currentmode
 325 0186 02FA03F3 		lsl	r3, r2, r3	@ D.6729, tmp180, D.6732
 326 018a 059A     		ldr	r2, [sp, #20]	@ tmp182, tmpreg
 327 018c 1343     		orrs	r3, r3, r2	@, tmp181, D.6729, tmp182
 328 018e 0593     		str	r3, [sp, #20]	@ tmp181, tmpreg
 209:../../STM32F10x_StdPeriph_Lib_V3.5.0/Libraries/STM32F10x_StdPeriph_Driver/src/stm32f10x_gpio.c ****         /* Reset the corresponding ODR bit */
 210:../../STM32F10x_StdPeriph_Lib_V3.5.0/Libraries/STM32F10x_StdPeriph_Driver/src/stm32f10x_gpio.c ****         if (GPIO_InitStruct->GPIO_Mode == GPIO_Mode_IPD)
 329              		.loc 1 210 0
 330 0190 009B     		ldr	r3, [sp]	@ tmp183, GPIO_InitStruct
 331 0192 DB78     		ldrb	r3, [r3, #3]	@ zero_extendqisi2	@ D.6728, GPIO_InitStruct_14(D)->GPIO_Mode
 332 0194 282B     		cmp	r3, #40	@ D.6728,
 333 0196 05D1     		bne	.L17	@,
 211:../../STM32F10x_StdPeriph_Lib_V3.5.0/Libraries/STM32F10x_StdPeriph_Driver/src/stm32f10x_gpio.c ****         {
 212:../../STM32F10x_StdPeriph_Lib_V3.5.0/Libraries/STM32F10x_StdPeriph_Driver/src/stm32f10x_gpio.c ****           GPIOx->BRR = (((uint32_t)0x01) << pinpos);
 334              		.loc 1 212 0
 335 0198 069B     		ldr	r3, [sp, #24]	@ D.6732, pinpos
 336 019a 0122     		movs	r2, #1	@ tmp184,
 337 019c 9A40     		lsls	r2, r2, r3	@ D.6729, tmp184, D.6732
 338 019e 019B     		ldr	r3, [sp, #4]	@ tmp185, GPIOx
 339 01a0 5A61     		str	r2, [r3, #20]	@ D.6729, GPIOx_27(D)->BRR
 340 01a2 08E0     		b	.L16	@
 341              	.L17:
 213:../../STM32F10x_StdPeriph_Lib_V3.5.0/Libraries/STM32F10x_StdPeriph_Driver/src/stm32f10x_gpio.c ****         }
 214:../../STM32F10x_StdPeriph_Lib_V3.5.0/Libraries/STM32F10x_StdPeriph_Driver/src/stm32f10x_gpio.c ****         else
 215:../../STM32F10x_StdPeriph_Lib_V3.5.0/Libraries/STM32F10x_StdPeriph_Driver/src/stm32f10x_gpio.c ****         {
 216:../../STM32F10x_StdPeriph_Lib_V3.5.0/Libraries/STM32F10x_StdPeriph_Driver/src/stm32f10x_gpio.c ****           /* Set the corresponding ODR bit */
 217:../../STM32F10x_StdPeriph_Lib_V3.5.0/Libraries/STM32F10x_StdPeriph_Driver/src/stm32f10x_gpio.c ****           if (GPIO_InitStruct->GPIO_Mode == GPIO_Mode_IPU)
 342              		.loc 1 217 0
 343 01a4 009B     		ldr	r3, [sp]	@ tmp186, GPIO_InitStruct
 344 01a6 DB78     		ldrb	r3, [r3, #3]	@ zero_extendqisi2	@ D.6728, GPIO_InitStruct_14(D)->GPIO_Mode
 345 01a8 482B     		cmp	r3, #72	@ D.6728,
 346 01aa 04D1     		bne	.L16	@,
 218:../../STM32F10x_StdPeriph_Lib_V3.5.0/Libraries/STM32F10x_StdPeriph_Driver/src/stm32f10x_gpio.c ****           {
 219:../../STM32F10x_StdPeriph_Lib_V3.5.0/Libraries/STM32F10x_StdPeriph_Driver/src/stm32f10x_gpio.c ****             GPIOx->BSRR = (((uint32_t)0x01) << pinpos);
 347              		.loc 1 219 0
 348 01ac 069B     		ldr	r3, [sp, #24]	@ D.6732, pinpos
 349 01ae 0122     		movs	r2, #1	@ tmp187,
 350 01b0 9A40     		lsls	r2, r2, r3	@ D.6729, tmp187, D.6732
 351 01b2 019B     		ldr	r3, [sp, #4]	@ tmp188, GPIOx
ARM GAS  /tmp/ccvxPp7R.s 			page 11


 352 01b4 1A61     		str	r2, [r3, #16]	@ D.6729, GPIOx_27(D)->BSRR
 353              	.L16:
 196:../../STM32F10x_StdPeriph_Lib_V3.5.0/Libraries/STM32F10x_StdPeriph_Driver/src/stm32f10x_gpio.c ****     {
 354              		.loc 1 196 0 discriminator 2
 355 01b6 069B     		ldr	r3, [sp, #24]	@ tmp190, pinpos
 356 01b8 0133     		adds	r3, r3, #1	@ tmp189, tmp190,
 357 01ba 0693     		str	r3, [sp, #24]	@ tmp189, pinpos
 358              	.L15:
 196:../../STM32F10x_StdPeriph_Lib_V3.5.0/Libraries/STM32F10x_StdPeriph_Driver/src/stm32f10x_gpio.c ****     {
 359              		.loc 1 196 0 is_stmt 0 discriminator 1
 360 01bc 069B     		ldr	r3, [sp, #24]	@ tmp191, pinpos
 361 01be 072B     		cmp	r3, #7	@ tmp191,
 362 01c0 C3D9     		bls	.L18	@,
 220:../../STM32F10x_StdPeriph_Lib_V3.5.0/Libraries/STM32F10x_StdPeriph_Driver/src/stm32f10x_gpio.c ****           }
 221:../../STM32F10x_StdPeriph_Lib_V3.5.0/Libraries/STM32F10x_StdPeriph_Driver/src/stm32f10x_gpio.c ****         }
 222:../../STM32F10x_StdPeriph_Lib_V3.5.0/Libraries/STM32F10x_StdPeriph_Driver/src/stm32f10x_gpio.c ****       }
 223:../../STM32F10x_StdPeriph_Lib_V3.5.0/Libraries/STM32F10x_StdPeriph_Driver/src/stm32f10x_gpio.c ****     }
 224:../../STM32F10x_StdPeriph_Lib_V3.5.0/Libraries/STM32F10x_StdPeriph_Driver/src/stm32f10x_gpio.c ****     GPIOx->CRL = tmpreg;
 363              		.loc 1 224 0 is_stmt 1
 364 01c2 019B     		ldr	r3, [sp, #4]	@ tmp192, GPIOx
 365 01c4 059A     		ldr	r2, [sp, #20]	@ tmp193, tmpreg
 366 01c6 1A60     		str	r2, [r3]	@ tmp193, GPIOx_27(D)->CRL
 367              	.L14:
 225:../../STM32F10x_StdPeriph_Lib_V3.5.0/Libraries/STM32F10x_StdPeriph_Driver/src/stm32f10x_gpio.c ****   }
 226:../../STM32F10x_StdPeriph_Lib_V3.5.0/Libraries/STM32F10x_StdPeriph_Driver/src/stm32f10x_gpio.c **** /*---------------------------- GPIO CRH Configuration ------------------------*/
 227:../../STM32F10x_StdPeriph_Lib_V3.5.0/Libraries/STM32F10x_StdPeriph_Driver/src/stm32f10x_gpio.c ****   /* Configure the eight high port pins */
 228:../../STM32F10x_StdPeriph_Lib_V3.5.0/Libraries/STM32F10x_StdPeriph_Driver/src/stm32f10x_gpio.c ****   if (GPIO_InitStruct->GPIO_Pin > 0x00FF)
 368              		.loc 1 228 0
 369 01c8 009B     		ldr	r3, [sp]	@ tmp194, GPIO_InitStruct
 370 01ca 1B88     		ldrh	r3, [r3]	@ D.6731, GPIO_InitStruct_14(D)->GPIO_Pin
 371 01cc FF2B     		cmp	r3, #255	@ D.6731,
 372 01ce 4AD9     		bls	.L12	@,
 229:../../STM32F10x_StdPeriph_Lib_V3.5.0/Libraries/STM32F10x_StdPeriph_Driver/src/stm32f10x_gpio.c ****   {
 230:../../STM32F10x_StdPeriph_Lib_V3.5.0/Libraries/STM32F10x_StdPeriph_Driver/src/stm32f10x_gpio.c ****     tmpreg = GPIOx->CRH;
 373              		.loc 1 230 0
 374 01d0 019B     		ldr	r3, [sp, #4]	@ tmp195, GPIOx
 375 01d2 5B68     		ldr	r3, [r3, #4]	@ tmp196, GPIOx_27(D)->CRH
 376 01d4 0593     		str	r3, [sp, #20]	@ tmp196, tmpreg
 231:../../STM32F10x_StdPeriph_Lib_V3.5.0/Libraries/STM32F10x_StdPeriph_Driver/src/stm32f10x_gpio.c ****     for (pinpos = 0x00; pinpos < 0x08; pinpos++)
 377              		.loc 1 231 0
 378 01d6 0023     		movs	r3, #0	@ tmp197,
 379 01d8 0693     		str	r3, [sp, #24]	@ tmp197, pinpos
 380 01da 3EE0     		b	.L20	@
 381              	.L23:
 232:../../STM32F10x_StdPeriph_Lib_V3.5.0/Libraries/STM32F10x_StdPeriph_Driver/src/stm32f10x_gpio.c ****     {
 233:../../STM32F10x_StdPeriph_Lib_V3.5.0/Libraries/STM32F10x_StdPeriph_Driver/src/stm32f10x_gpio.c ****       pos = (((uint32_t)0x01) << (pinpos + 0x08));
 382              		.loc 1 233 0
 383 01dc 069B     		ldr	r3, [sp, #24]	@ tmp198, pinpos
 384 01de 0833     		adds	r3, r3, #8	@ D.6729, tmp198,
 385 01e0 1A46     		mov	r2, r3	@ D.6732, D.6729
 386 01e2 0123     		movs	r3, #1	@ tmp200,
 387 01e4 9340     		lsls	r3, r3, r2	@ tmp199, tmp200, D.6732
 388 01e6 0393     		str	r3, [sp, #12]	@ tmp199, pos
 234:../../STM32F10x_StdPeriph_Lib_V3.5.0/Libraries/STM32F10x_StdPeriph_Driver/src/stm32f10x_gpio.c ****       /* Get the port pins position */
 235:../../STM32F10x_StdPeriph_Lib_V3.5.0/Libraries/STM32F10x_StdPeriph_Driver/src/stm32f10x_gpio.c ****       currentpin = ((GPIO_InitStruct->GPIO_Pin) & pos);
 389              		.loc 1 235 0
 390 01e8 009B     		ldr	r3, [sp]	@ tmp201, GPIO_InitStruct
ARM GAS  /tmp/ccvxPp7R.s 			page 12


 391 01ea 1B88     		ldrh	r3, [r3]	@ D.6731, GPIO_InitStruct_14(D)->GPIO_Pin
 392 01ec 1A46     		mov	r2, r3	@ D.6729, D.6731
 393 01ee 039B     		ldr	r3, [sp, #12]	@ tmp203, pos
 394 01f0 1340     		ands	r3, r3, r2	@, tmp202, tmp203, D.6729
 395 01f2 0493     		str	r3, [sp, #16]	@ tmp202, currentpin
 236:../../STM32F10x_StdPeriph_Lib_V3.5.0/Libraries/STM32F10x_StdPeriph_Driver/src/stm32f10x_gpio.c ****       if (currentpin == pos)
 396              		.loc 1 236 0
 397 01f4 049A     		ldr	r2, [sp, #16]	@ tmp204, currentpin
 398 01f6 039B     		ldr	r3, [sp, #12]	@ tmp205, pos
 399 01f8 9A42     		cmp	r2, r3	@ tmp204, tmp205
 400 01fa 2BD1     		bne	.L21	@,
 237:../../STM32F10x_StdPeriph_Lib_V3.5.0/Libraries/STM32F10x_StdPeriph_Driver/src/stm32f10x_gpio.c ****       {
 238:../../STM32F10x_StdPeriph_Lib_V3.5.0/Libraries/STM32F10x_StdPeriph_Driver/src/stm32f10x_gpio.c ****         pos = pinpos << 2;
 401              		.loc 1 238 0
 402 01fc 069B     		ldr	r3, [sp, #24]	@ tmp207, pinpos
 403 01fe 9B00     		lsls	r3, r3, #2	@ tmp206, tmp207,
 404 0200 0393     		str	r3, [sp, #12]	@ tmp206, pos
 239:../../STM32F10x_StdPeriph_Lib_V3.5.0/Libraries/STM32F10x_StdPeriph_Driver/src/stm32f10x_gpio.c ****         /* Clear the corresponding high control register bits */
 240:../../STM32F10x_StdPeriph_Lib_V3.5.0/Libraries/STM32F10x_StdPeriph_Driver/src/stm32f10x_gpio.c ****         pinmask = ((uint32_t)0x0F) << pos;
 405              		.loc 1 240 0
 406 0202 039B     		ldr	r3, [sp, #12]	@ D.6732, pos
 407 0204 0F22     		movs	r2, #15	@ tmp209,
 408 0206 02FA03F3 		lsl	r3, r2, r3	@ tmp208, tmp209, D.6732
 409 020a 0293     		str	r3, [sp, #8]	@ tmp208, pinmask
 241:../../STM32F10x_StdPeriph_Lib_V3.5.0/Libraries/STM32F10x_StdPeriph_Driver/src/stm32f10x_gpio.c ****         tmpreg &= ~pinmask;
 410              		.loc 1 241 0
 411 020c 029B     		ldr	r3, [sp, #8]	@ tmp210, pinmask
 412 020e DB43     		mvns	r3, r3	@ D.6729, tmp210
 413 0210 059A     		ldr	r2, [sp, #20]	@ tmp212, tmpreg
 414 0212 1340     		ands	r3, r3, r2	@, tmp211, D.6729, tmp212
 415 0214 0593     		str	r3, [sp, #20]	@ tmp211, tmpreg
 242:../../STM32F10x_StdPeriph_Lib_V3.5.0/Libraries/STM32F10x_StdPeriph_Driver/src/stm32f10x_gpio.c ****         /* Write the mode configuration in the corresponding bits */
 243:../../STM32F10x_StdPeriph_Lib_V3.5.0/Libraries/STM32F10x_StdPeriph_Driver/src/stm32f10x_gpio.c ****         tmpreg |= (currentmode << pos);
 416              		.loc 1 243 0
 417 0216 039B     		ldr	r3, [sp, #12]	@ D.6732, pos
 418 0218 079A     		ldr	r2, [sp, #28]	@ tmp213, currentmode
 419 021a 02FA03F3 		lsl	r3, r2, r3	@ D.6729, tmp213, D.6732
 420 021e 059A     		ldr	r2, [sp, #20]	@ tmp215, tmpreg
 421 0220 1343     		orrs	r3, r3, r2	@, tmp214, D.6729, tmp215
 422 0222 0593     		str	r3, [sp, #20]	@ tmp214, tmpreg
 244:../../STM32F10x_StdPeriph_Lib_V3.5.0/Libraries/STM32F10x_StdPeriph_Driver/src/stm32f10x_gpio.c ****         /* Reset the corresponding ODR bit */
 245:../../STM32F10x_StdPeriph_Lib_V3.5.0/Libraries/STM32F10x_StdPeriph_Driver/src/stm32f10x_gpio.c ****         if (GPIO_InitStruct->GPIO_Mode == GPIO_Mode_IPD)
 423              		.loc 1 245 0
 424 0224 009B     		ldr	r3, [sp]	@ tmp216, GPIO_InitStruct
 425 0226 DB78     		ldrb	r3, [r3, #3]	@ zero_extendqisi2	@ D.6728, GPIO_InitStruct_14(D)->GPIO_Mode
 426 0228 282B     		cmp	r3, #40	@ D.6728,
 427 022a 07D1     		bne	.L22	@,
 246:../../STM32F10x_StdPeriph_Lib_V3.5.0/Libraries/STM32F10x_StdPeriph_Driver/src/stm32f10x_gpio.c ****         {
 247:../../STM32F10x_StdPeriph_Lib_V3.5.0/Libraries/STM32F10x_StdPeriph_Driver/src/stm32f10x_gpio.c ****           GPIOx->BRR = (((uint32_t)0x01) << (pinpos + 0x08));
 428              		.loc 1 247 0
 429 022c 069B     		ldr	r3, [sp, #24]	@ tmp217, pinpos
 430 022e 0833     		adds	r3, r3, #8	@ D.6729, tmp217,
 431 0230 1A46     		mov	r2, r3	@ D.6732, D.6729
 432 0232 0123     		movs	r3, #1	@ tmp218,
 433 0234 03FA02F2 		lsl	r2, r3, r2	@ D.6729, tmp218, D.6732
 434 0238 019B     		ldr	r3, [sp, #4]	@ tmp219, GPIOx
 435 023a 5A61     		str	r2, [r3, #20]	@ D.6729, GPIOx_27(D)->BRR
ARM GAS  /tmp/ccvxPp7R.s 			page 13


 436              	.L22:
 248:../../STM32F10x_StdPeriph_Lib_V3.5.0/Libraries/STM32F10x_StdPeriph_Driver/src/stm32f10x_gpio.c ****         }
 249:../../STM32F10x_StdPeriph_Lib_V3.5.0/Libraries/STM32F10x_StdPeriph_Driver/src/stm32f10x_gpio.c ****         /* Set the corresponding ODR bit */
 250:../../STM32F10x_StdPeriph_Lib_V3.5.0/Libraries/STM32F10x_StdPeriph_Driver/src/stm32f10x_gpio.c ****         if (GPIO_InitStruct->GPIO_Mode == GPIO_Mode_IPU)
 437              		.loc 1 250 0
 438 023c 009B     		ldr	r3, [sp]	@ tmp220, GPIO_InitStruct
 439 023e DB78     		ldrb	r3, [r3, #3]	@ zero_extendqisi2	@ D.6728, GPIO_InitStruct_14(D)->GPIO_Mode
 440 0240 482B     		cmp	r3, #72	@ D.6728,
 441 0242 07D1     		bne	.L21	@,
 251:../../STM32F10x_StdPeriph_Lib_V3.5.0/Libraries/STM32F10x_StdPeriph_Driver/src/stm32f10x_gpio.c ****         {
 252:../../STM32F10x_StdPeriph_Lib_V3.5.0/Libraries/STM32F10x_StdPeriph_Driver/src/stm32f10x_gpio.c ****           GPIOx->BSRR = (((uint32_t)0x01) << (pinpos + 0x08));
 442              		.loc 1 252 0
 443 0244 069B     		ldr	r3, [sp, #24]	@ tmp221, pinpos
 444 0246 0833     		adds	r3, r3, #8	@ D.6729, tmp221,
 445 0248 1A46     		mov	r2, r3	@ D.6732, D.6729
 446 024a 0123     		movs	r3, #1	@ tmp222,
 447 024c 03FA02F2 		lsl	r2, r3, r2	@ D.6729, tmp222, D.6732
 448 0250 019B     		ldr	r3, [sp, #4]	@ tmp223, GPIOx
 449 0252 1A61     		str	r2, [r3, #16]	@ D.6729, GPIOx_27(D)->BSRR
 450              	.L21:
 231:../../STM32F10x_StdPeriph_Lib_V3.5.0/Libraries/STM32F10x_StdPeriph_Driver/src/stm32f10x_gpio.c ****     {
 451              		.loc 1 231 0 discriminator 2
 452 0254 069B     		ldr	r3, [sp, #24]	@ tmp225, pinpos
 453 0256 0133     		adds	r3, r3, #1	@ tmp224, tmp225,
 454 0258 0693     		str	r3, [sp, #24]	@ tmp224, pinpos
 455              	.L20:
 231:../../STM32F10x_StdPeriph_Lib_V3.5.0/Libraries/STM32F10x_StdPeriph_Driver/src/stm32f10x_gpio.c ****     {
 456              		.loc 1 231 0 is_stmt 0 discriminator 1
 457 025a 069B     		ldr	r3, [sp, #24]	@ tmp226, pinpos
 458 025c 072B     		cmp	r3, #7	@ tmp226,
 459 025e BDD9     		bls	.L23	@,
 253:../../STM32F10x_StdPeriph_Lib_V3.5.0/Libraries/STM32F10x_StdPeriph_Driver/src/stm32f10x_gpio.c ****         }
 254:../../STM32F10x_StdPeriph_Lib_V3.5.0/Libraries/STM32F10x_StdPeriph_Driver/src/stm32f10x_gpio.c ****       }
 255:../../STM32F10x_StdPeriph_Lib_V3.5.0/Libraries/STM32F10x_StdPeriph_Driver/src/stm32f10x_gpio.c ****     }
 256:../../STM32F10x_StdPeriph_Lib_V3.5.0/Libraries/STM32F10x_StdPeriph_Driver/src/stm32f10x_gpio.c ****     GPIOx->CRH = tmpreg;
 460              		.loc 1 256 0 is_stmt 1
 461 0260 019B     		ldr	r3, [sp, #4]	@ tmp227, GPIOx
 462 0262 059A     		ldr	r2, [sp, #20]	@ tmp228, tmpreg
 463 0264 5A60     		str	r2, [r3, #4]	@ tmp228, GPIOx_27(D)->CRH
 464              	.L12:
 257:../../STM32F10x_StdPeriph_Lib_V3.5.0/Libraries/STM32F10x_StdPeriph_Driver/src/stm32f10x_gpio.c ****   }
 258:../../STM32F10x_StdPeriph_Lib_V3.5.0/Libraries/STM32F10x_StdPeriph_Driver/src/stm32f10x_gpio.c **** }
 465              		.loc 1 258 0
 466 0266 08B0     		add	sp, sp, #32	@,,
 467              	.LCFI5:
 468              		.cfi_def_cfa_offset 0
 469              		@ sp needed	@
 470 0268 7047     		bx	lr	@
 471              		.cfi_endproc
 472              	.LFE31:
 473              		.size	GPIO_Init, .-GPIO_Init
 474 026a 00BF     		.align	2
 475              		.global	GPIO_StructInit
 476              		.thumb
 477              		.thumb_func
 478              		.type	GPIO_StructInit, %function
 479              	GPIO_StructInit:
ARM GAS  /tmp/ccvxPp7R.s 			page 14


 480              	.LFB32:
 259:../../STM32F10x_StdPeriph_Lib_V3.5.0/Libraries/STM32F10x_StdPeriph_Driver/src/stm32f10x_gpio.c **** 
 260:../../STM32F10x_StdPeriph_Lib_V3.5.0/Libraries/STM32F10x_StdPeriph_Driver/src/stm32f10x_gpio.c **** /**
 261:../../STM32F10x_StdPeriph_Lib_V3.5.0/Libraries/STM32F10x_StdPeriph_Driver/src/stm32f10x_gpio.c ****   * @brief  Fills each GPIO_InitStruct member with its default value.
 262:../../STM32F10x_StdPeriph_Lib_V3.5.0/Libraries/STM32F10x_StdPeriph_Driver/src/stm32f10x_gpio.c ****   * @param  GPIO_InitStruct : pointer to a GPIO_InitTypeDef structure which will
 263:../../STM32F10x_StdPeriph_Lib_V3.5.0/Libraries/STM32F10x_StdPeriph_Driver/src/stm32f10x_gpio.c ****   *         be initialized.
 264:../../STM32F10x_StdPeriph_Lib_V3.5.0/Libraries/STM32F10x_StdPeriph_Driver/src/stm32f10x_gpio.c ****   * @retval None
 265:../../STM32F10x_StdPeriph_Lib_V3.5.0/Libraries/STM32F10x_StdPeriph_Driver/src/stm32f10x_gpio.c ****   */
 266:../../STM32F10x_StdPeriph_Lib_V3.5.0/Libraries/STM32F10x_StdPeriph_Driver/src/stm32f10x_gpio.c **** void GPIO_StructInit(GPIO_InitTypeDef* GPIO_InitStruct)
 267:../../STM32F10x_StdPeriph_Lib_V3.5.0/Libraries/STM32F10x_StdPeriph_Driver/src/stm32f10x_gpio.c **** {
 481              		.loc 1 267 0
 482              		.cfi_startproc
 483              		@ args = 0, pretend = 0, frame = 8
 484              		@ frame_needed = 0, uses_anonymous_args = 0
 485              		@ link register save eliminated.
 486 026c 82B0     		sub	sp, sp, #8	@,,
 487              	.LCFI6:
 488              		.cfi_def_cfa_offset 8
 489 026e 0190     		str	r0, [sp, #4]	@ GPIO_InitStruct, GPIO_InitStruct
 268:../../STM32F10x_StdPeriph_Lib_V3.5.0/Libraries/STM32F10x_StdPeriph_Driver/src/stm32f10x_gpio.c ****   /* Reset GPIO init structure parameters values */
 269:../../STM32F10x_StdPeriph_Lib_V3.5.0/Libraries/STM32F10x_StdPeriph_Driver/src/stm32f10x_gpio.c ****   GPIO_InitStruct->GPIO_Pin  = GPIO_Pin_All;
 490              		.loc 1 269 0
 491 0270 019B     		ldr	r3, [sp, #4]	@ tmp110, GPIO_InitStruct
 492 0272 4FF6FF72 		movw	r2, #65535	@ tmp112,
 493 0276 1A80     		strh	r2, [r3]	@ movhi	@ tmp111, GPIO_InitStruct_1(D)->GPIO_Pin
 270:../../STM32F10x_StdPeriph_Lib_V3.5.0/Libraries/STM32F10x_StdPeriph_Driver/src/stm32f10x_gpio.c ****   GPIO_InitStruct->GPIO_Speed = GPIO_Speed_2MHz;
 494              		.loc 1 270 0
 495 0278 019B     		ldr	r3, [sp, #4]	@ tmp113, GPIO_InitStruct
 496 027a 0222     		movs	r2, #2	@ tmp114,
 497 027c 9A70     		strb	r2, [r3, #2]	@ tmp115, GPIO_InitStruct_1(D)->GPIO_Speed
 271:../../STM32F10x_StdPeriph_Lib_V3.5.0/Libraries/STM32F10x_StdPeriph_Driver/src/stm32f10x_gpio.c ****   GPIO_InitStruct->GPIO_Mode = GPIO_Mode_IN_FLOATING;
 498              		.loc 1 271 0
 499 027e 019B     		ldr	r3, [sp, #4]	@ tmp116, GPIO_InitStruct
 500 0280 0422     		movs	r2, #4	@ tmp117,
 501 0282 DA70     		strb	r2, [r3, #3]	@ tmp118, GPIO_InitStruct_1(D)->GPIO_Mode
 272:../../STM32F10x_StdPeriph_Lib_V3.5.0/Libraries/STM32F10x_StdPeriph_Driver/src/stm32f10x_gpio.c **** }
 502              		.loc 1 272 0
 503 0284 02B0     		add	sp, sp, #8	@,,
 504              	.LCFI7:
 505              		.cfi_def_cfa_offset 0
 506              		@ sp needed	@
 507 0286 7047     		bx	lr	@
 508              		.cfi_endproc
 509              	.LFE32:
 510              		.size	GPIO_StructInit, .-GPIO_StructInit
 511              		.align	2
 512              		.global	GPIO_ReadInputDataBit
 513              		.thumb
 514              		.thumb_func
 515              		.type	GPIO_ReadInputDataBit, %function
 516              	GPIO_ReadInputDataBit:
 517              	.LFB33:
 273:../../STM32F10x_StdPeriph_Lib_V3.5.0/Libraries/STM32F10x_StdPeriph_Driver/src/stm32f10x_gpio.c **** 
 274:../../STM32F10x_StdPeriph_Lib_V3.5.0/Libraries/STM32F10x_StdPeriph_Driver/src/stm32f10x_gpio.c **** /**
 275:../../STM32F10x_StdPeriph_Lib_V3.5.0/Libraries/STM32F10x_StdPeriph_Driver/src/stm32f10x_gpio.c ****   * @brief  Reads the specified input port pin.
 276:../../STM32F10x_StdPeriph_Lib_V3.5.0/Libraries/STM32F10x_StdPeriph_Driver/src/stm32f10x_gpio.c ****   * @param  GPIOx: where x can be (A..G) to select the GPIO peripheral.
 277:../../STM32F10x_StdPeriph_Lib_V3.5.0/Libraries/STM32F10x_StdPeriph_Driver/src/stm32f10x_gpio.c ****   * @param  GPIO_Pin:  specifies the port bit to read.
ARM GAS  /tmp/ccvxPp7R.s 			page 15


 278:../../STM32F10x_StdPeriph_Lib_V3.5.0/Libraries/STM32F10x_StdPeriph_Driver/src/stm32f10x_gpio.c ****   *   This parameter can be GPIO_Pin_x where x can be (0..15).
 279:../../STM32F10x_StdPeriph_Lib_V3.5.0/Libraries/STM32F10x_StdPeriph_Driver/src/stm32f10x_gpio.c ****   * @retval The input port pin value.
 280:../../STM32F10x_StdPeriph_Lib_V3.5.0/Libraries/STM32F10x_StdPeriph_Driver/src/stm32f10x_gpio.c ****   */
 281:../../STM32F10x_StdPeriph_Lib_V3.5.0/Libraries/STM32F10x_StdPeriph_Driver/src/stm32f10x_gpio.c **** uint8_t GPIO_ReadInputDataBit(GPIO_TypeDef* GPIOx, uint16_t GPIO_Pin)
 282:../../STM32F10x_StdPeriph_Lib_V3.5.0/Libraries/STM32F10x_StdPeriph_Driver/src/stm32f10x_gpio.c **** {
 518              		.loc 1 282 0
 519              		.cfi_startproc
 520              		@ args = 0, pretend = 0, frame = 16
 521              		@ frame_needed = 0, uses_anonymous_args = 0
 522              		@ link register save eliminated.
 523 0288 84B0     		sub	sp, sp, #16	@,,
 524              	.LCFI8:
 525              		.cfi_def_cfa_offset 16
 526 028a 0190     		str	r0, [sp, #4]	@ GPIOx, GPIOx
 527 028c 0B46     		mov	r3, r1	@ tmp115, GPIO_Pin
 528 028e ADF80230 		strh	r3, [sp, #2]	@ movhi	@ tmp116, GPIO_Pin
 283:../../STM32F10x_StdPeriph_Lib_V3.5.0/Libraries/STM32F10x_StdPeriph_Driver/src/stm32f10x_gpio.c ****   uint8_t bitstatus = 0x00;
 529              		.loc 1 283 0
 530 0292 0023     		movs	r3, #0	@ tmp117,
 531 0294 8DF80F30 		strb	r3, [sp, #15]	@ tmp118, bitstatus
 284:../../STM32F10x_StdPeriph_Lib_V3.5.0/Libraries/STM32F10x_StdPeriph_Driver/src/stm32f10x_gpio.c ****   
 285:../../STM32F10x_StdPeriph_Lib_V3.5.0/Libraries/STM32F10x_StdPeriph_Driver/src/stm32f10x_gpio.c ****   /* Check the parameters */
 286:../../STM32F10x_StdPeriph_Lib_V3.5.0/Libraries/STM32F10x_StdPeriph_Driver/src/stm32f10x_gpio.c ****   assert_param(IS_GPIO_ALL_PERIPH(GPIOx));
 287:../../STM32F10x_StdPeriph_Lib_V3.5.0/Libraries/STM32F10x_StdPeriph_Driver/src/stm32f10x_gpio.c ****   assert_param(IS_GET_GPIO_PIN(GPIO_Pin)); 
 288:../../STM32F10x_StdPeriph_Lib_V3.5.0/Libraries/STM32F10x_StdPeriph_Driver/src/stm32f10x_gpio.c ****   
 289:../../STM32F10x_StdPeriph_Lib_V3.5.0/Libraries/STM32F10x_StdPeriph_Driver/src/stm32f10x_gpio.c ****   if ((GPIOx->IDR & GPIO_Pin) != (uint32_t)Bit_RESET)
 532              		.loc 1 289 0
 533 0298 019B     		ldr	r3, [sp, #4]	@ tmp119, GPIOx
 534 029a 9A68     		ldr	r2, [r3, #8]	@ D.6733, GPIOx_3(D)->IDR
 535 029c BDF80230 		ldrh	r3, [sp, #2]	@ D.6733, GPIO_Pin
 536 02a0 1340     		ands	r3, r3, r2	@, D.6733, D.6733, D.6733
 537 02a2 002B     		cmp	r3, #0	@ D.6733,
 538 02a4 03D0     		beq	.L26	@,
 290:../../STM32F10x_StdPeriph_Lib_V3.5.0/Libraries/STM32F10x_StdPeriph_Driver/src/stm32f10x_gpio.c ****   {
 291:../../STM32F10x_StdPeriph_Lib_V3.5.0/Libraries/STM32F10x_StdPeriph_Driver/src/stm32f10x_gpio.c ****     bitstatus = (uint8_t)Bit_SET;
 539              		.loc 1 291 0
 540 02a6 0123     		movs	r3, #1	@ tmp120,
 541 02a8 8DF80F30 		strb	r3, [sp, #15]	@ tmp121, bitstatus
 542 02ac 02E0     		b	.L27	@
 543              	.L26:
 292:../../STM32F10x_StdPeriph_Lib_V3.5.0/Libraries/STM32F10x_StdPeriph_Driver/src/stm32f10x_gpio.c ****   }
 293:../../STM32F10x_StdPeriph_Lib_V3.5.0/Libraries/STM32F10x_StdPeriph_Driver/src/stm32f10x_gpio.c ****   else
 294:../../STM32F10x_StdPeriph_Lib_V3.5.0/Libraries/STM32F10x_StdPeriph_Driver/src/stm32f10x_gpio.c ****   {
 295:../../STM32F10x_StdPeriph_Lib_V3.5.0/Libraries/STM32F10x_StdPeriph_Driver/src/stm32f10x_gpio.c ****     bitstatus = (uint8_t)Bit_RESET;
 544              		.loc 1 295 0
 545 02ae 0023     		movs	r3, #0	@ tmp122,
 546 02b0 8DF80F30 		strb	r3, [sp, #15]	@ tmp123, bitstatus
 547              	.L27:
 296:../../STM32F10x_StdPeriph_Lib_V3.5.0/Libraries/STM32F10x_StdPeriph_Driver/src/stm32f10x_gpio.c ****   }
 297:../../STM32F10x_StdPeriph_Lib_V3.5.0/Libraries/STM32F10x_StdPeriph_Driver/src/stm32f10x_gpio.c ****   return bitstatus;
 548              		.loc 1 297 0
 549 02b4 9DF80F30 		ldrb	r3, [sp, #15]	@ zero_extendqisi2	@ D.6734, bitstatus
 298:../../STM32F10x_StdPeriph_Lib_V3.5.0/Libraries/STM32F10x_StdPeriph_Driver/src/stm32f10x_gpio.c **** }
 550              		.loc 1 298 0
 551 02b8 1846     		mov	r0, r3	@, <retval>
 552 02ba 04B0     		add	sp, sp, #16	@,,
 553              	.LCFI9:
ARM GAS  /tmp/ccvxPp7R.s 			page 16


 554              		.cfi_def_cfa_offset 0
 555              		@ sp needed	@
 556 02bc 7047     		bx	lr	@
 557              		.cfi_endproc
 558              	.LFE33:
 559              		.size	GPIO_ReadInputDataBit, .-GPIO_ReadInputDataBit
 560 02be 00BF     		.align	2
 561              		.global	GPIO_ReadInputData
 562              		.thumb
 563              		.thumb_func
 564              		.type	GPIO_ReadInputData, %function
 565              	GPIO_ReadInputData:
 566              	.LFB34:
 299:../../STM32F10x_StdPeriph_Lib_V3.5.0/Libraries/STM32F10x_StdPeriph_Driver/src/stm32f10x_gpio.c **** 
 300:../../STM32F10x_StdPeriph_Lib_V3.5.0/Libraries/STM32F10x_StdPeriph_Driver/src/stm32f10x_gpio.c **** /**
 301:../../STM32F10x_StdPeriph_Lib_V3.5.0/Libraries/STM32F10x_StdPeriph_Driver/src/stm32f10x_gpio.c ****   * @brief  Reads the specified GPIO input data port.
 302:../../STM32F10x_StdPeriph_Lib_V3.5.0/Libraries/STM32F10x_StdPeriph_Driver/src/stm32f10x_gpio.c ****   * @param  GPIOx: where x can be (A..G) to select the GPIO peripheral.
 303:../../STM32F10x_StdPeriph_Lib_V3.5.0/Libraries/STM32F10x_StdPeriph_Driver/src/stm32f10x_gpio.c ****   * @retval GPIO input data port value.
 304:../../STM32F10x_StdPeriph_Lib_V3.5.0/Libraries/STM32F10x_StdPeriph_Driver/src/stm32f10x_gpio.c ****   */
 305:../../STM32F10x_StdPeriph_Lib_V3.5.0/Libraries/STM32F10x_StdPeriph_Driver/src/stm32f10x_gpio.c **** uint16_t GPIO_ReadInputData(GPIO_TypeDef* GPIOx)
 306:../../STM32F10x_StdPeriph_Lib_V3.5.0/Libraries/STM32F10x_StdPeriph_Driver/src/stm32f10x_gpio.c **** {
 567              		.loc 1 306 0
 568              		.cfi_startproc
 569              		@ args = 0, pretend = 0, frame = 8
 570              		@ frame_needed = 0, uses_anonymous_args = 0
 571              		@ link register save eliminated.
 572 02c0 82B0     		sub	sp, sp, #8	@,,
 573              	.LCFI10:
 574              		.cfi_def_cfa_offset 8
 575 02c2 0190     		str	r0, [sp, #4]	@ GPIOx, GPIOx
 307:../../STM32F10x_StdPeriph_Lib_V3.5.0/Libraries/STM32F10x_StdPeriph_Driver/src/stm32f10x_gpio.c ****   /* Check the parameters */
 308:../../STM32F10x_StdPeriph_Lib_V3.5.0/Libraries/STM32F10x_StdPeriph_Driver/src/stm32f10x_gpio.c ****   assert_param(IS_GPIO_ALL_PERIPH(GPIOx));
 309:../../STM32F10x_StdPeriph_Lib_V3.5.0/Libraries/STM32F10x_StdPeriph_Driver/src/stm32f10x_gpio.c ****   
 310:../../STM32F10x_StdPeriph_Lib_V3.5.0/Libraries/STM32F10x_StdPeriph_Driver/src/stm32f10x_gpio.c ****   return ((uint16_t)GPIOx->IDR);
 576              		.loc 1 310 0
 577 02c4 019B     		ldr	r3, [sp, #4]	@ tmp113, GPIOx
 578 02c6 9B68     		ldr	r3, [r3, #8]	@ D.6735, GPIOx_1(D)->IDR
 579 02c8 9BB2     		uxth	r3, r3	@ D.6736, D.6735
 311:../../STM32F10x_StdPeriph_Lib_V3.5.0/Libraries/STM32F10x_StdPeriph_Driver/src/stm32f10x_gpio.c **** }
 580              		.loc 1 311 0
 581 02ca 1846     		mov	r0, r3	@, <retval>
 582 02cc 02B0     		add	sp, sp, #8	@,,
 583              	.LCFI11:
 584              		.cfi_def_cfa_offset 0
 585              		@ sp needed	@
 586 02ce 7047     		bx	lr	@
 587              		.cfi_endproc
 588              	.LFE34:
 589              		.size	GPIO_ReadInputData, .-GPIO_ReadInputData
 590              		.align	2
 591              		.global	GPIO_ReadOutputDataBit
 592              		.thumb
 593              		.thumb_func
 594              		.type	GPIO_ReadOutputDataBit, %function
 595              	GPIO_ReadOutputDataBit:
 596              	.LFB35:
 312:../../STM32F10x_StdPeriph_Lib_V3.5.0/Libraries/STM32F10x_StdPeriph_Driver/src/stm32f10x_gpio.c **** 
ARM GAS  /tmp/ccvxPp7R.s 			page 17


 313:../../STM32F10x_StdPeriph_Lib_V3.5.0/Libraries/STM32F10x_StdPeriph_Driver/src/stm32f10x_gpio.c **** /**
 314:../../STM32F10x_StdPeriph_Lib_V3.5.0/Libraries/STM32F10x_StdPeriph_Driver/src/stm32f10x_gpio.c ****   * @brief  Reads the specified output data port bit.
 315:../../STM32F10x_StdPeriph_Lib_V3.5.0/Libraries/STM32F10x_StdPeriph_Driver/src/stm32f10x_gpio.c ****   * @param  GPIOx: where x can be (A..G) to select the GPIO peripheral.
 316:../../STM32F10x_StdPeriph_Lib_V3.5.0/Libraries/STM32F10x_StdPeriph_Driver/src/stm32f10x_gpio.c ****   * @param  GPIO_Pin:  specifies the port bit to read.
 317:../../STM32F10x_StdPeriph_Lib_V3.5.0/Libraries/STM32F10x_StdPeriph_Driver/src/stm32f10x_gpio.c ****   *   This parameter can be GPIO_Pin_x where x can be (0..15).
 318:../../STM32F10x_StdPeriph_Lib_V3.5.0/Libraries/STM32F10x_StdPeriph_Driver/src/stm32f10x_gpio.c ****   * @retval The output port pin value.
 319:../../STM32F10x_StdPeriph_Lib_V3.5.0/Libraries/STM32F10x_StdPeriph_Driver/src/stm32f10x_gpio.c ****   */
 320:../../STM32F10x_StdPeriph_Lib_V3.5.0/Libraries/STM32F10x_StdPeriph_Driver/src/stm32f10x_gpio.c **** uint8_t GPIO_ReadOutputDataBit(GPIO_TypeDef* GPIOx, uint16_t GPIO_Pin)
 321:../../STM32F10x_StdPeriph_Lib_V3.5.0/Libraries/STM32F10x_StdPeriph_Driver/src/stm32f10x_gpio.c **** {
 597              		.loc 1 321 0
 598              		.cfi_startproc
 599              		@ args = 0, pretend = 0, frame = 16
 600              		@ frame_needed = 0, uses_anonymous_args = 0
 601              		@ link register save eliminated.
 602 02d0 84B0     		sub	sp, sp, #16	@,,
 603              	.LCFI12:
 604              		.cfi_def_cfa_offset 16
 605 02d2 0190     		str	r0, [sp, #4]	@ GPIOx, GPIOx
 606 02d4 0B46     		mov	r3, r1	@ tmp115, GPIO_Pin
 607 02d6 ADF80230 		strh	r3, [sp, #2]	@ movhi	@ tmp116, GPIO_Pin
 322:../../STM32F10x_StdPeriph_Lib_V3.5.0/Libraries/STM32F10x_StdPeriph_Driver/src/stm32f10x_gpio.c ****   uint8_t bitstatus = 0x00;
 608              		.loc 1 322 0
 609 02da 0023     		movs	r3, #0	@ tmp117,
 610 02dc 8DF80F30 		strb	r3, [sp, #15]	@ tmp118, bitstatus
 323:../../STM32F10x_StdPeriph_Lib_V3.5.0/Libraries/STM32F10x_StdPeriph_Driver/src/stm32f10x_gpio.c ****   /* Check the parameters */
 324:../../STM32F10x_StdPeriph_Lib_V3.5.0/Libraries/STM32F10x_StdPeriph_Driver/src/stm32f10x_gpio.c ****   assert_param(IS_GPIO_ALL_PERIPH(GPIOx));
 325:../../STM32F10x_StdPeriph_Lib_V3.5.0/Libraries/STM32F10x_StdPeriph_Driver/src/stm32f10x_gpio.c ****   assert_param(IS_GET_GPIO_PIN(GPIO_Pin)); 
 326:../../STM32F10x_StdPeriph_Lib_V3.5.0/Libraries/STM32F10x_StdPeriph_Driver/src/stm32f10x_gpio.c ****   
 327:../../STM32F10x_StdPeriph_Lib_V3.5.0/Libraries/STM32F10x_StdPeriph_Driver/src/stm32f10x_gpio.c ****   if ((GPIOx->ODR & GPIO_Pin) != (uint32_t)Bit_RESET)
 611              		.loc 1 327 0
 612 02e0 019B     		ldr	r3, [sp, #4]	@ tmp119, GPIOx
 613 02e2 DA68     		ldr	r2, [r3, #12]	@ D.6737, GPIOx_3(D)->ODR
 614 02e4 BDF80230 		ldrh	r3, [sp, #2]	@ D.6737, GPIO_Pin
 615 02e8 1340     		ands	r3, r3, r2	@, D.6737, D.6737, D.6737
 616 02ea 002B     		cmp	r3, #0	@ D.6737,
 617 02ec 03D0     		beq	.L32	@,
 328:../../STM32F10x_StdPeriph_Lib_V3.5.0/Libraries/STM32F10x_StdPeriph_Driver/src/stm32f10x_gpio.c ****   {
 329:../../STM32F10x_StdPeriph_Lib_V3.5.0/Libraries/STM32F10x_StdPeriph_Driver/src/stm32f10x_gpio.c ****     bitstatus = (uint8_t)Bit_SET;
 618              		.loc 1 329 0
 619 02ee 0123     		movs	r3, #1	@ tmp120,
 620 02f0 8DF80F30 		strb	r3, [sp, #15]	@ tmp121, bitstatus
 621 02f4 02E0     		b	.L33	@
 622              	.L32:
 330:../../STM32F10x_StdPeriph_Lib_V3.5.0/Libraries/STM32F10x_StdPeriph_Driver/src/stm32f10x_gpio.c ****   }
 331:../../STM32F10x_StdPeriph_Lib_V3.5.0/Libraries/STM32F10x_StdPeriph_Driver/src/stm32f10x_gpio.c ****   else
 332:../../STM32F10x_StdPeriph_Lib_V3.5.0/Libraries/STM32F10x_StdPeriph_Driver/src/stm32f10x_gpio.c ****   {
 333:../../STM32F10x_StdPeriph_Lib_V3.5.0/Libraries/STM32F10x_StdPeriph_Driver/src/stm32f10x_gpio.c ****     bitstatus = (uint8_t)Bit_RESET;
 623              		.loc 1 333 0
 624 02f6 0023     		movs	r3, #0	@ tmp122,
 625 02f8 8DF80F30 		strb	r3, [sp, #15]	@ tmp123, bitstatus
 626              	.L33:
 334:../../STM32F10x_StdPeriph_Lib_V3.5.0/Libraries/STM32F10x_StdPeriph_Driver/src/stm32f10x_gpio.c ****   }
 335:../../STM32F10x_StdPeriph_Lib_V3.5.0/Libraries/STM32F10x_StdPeriph_Driver/src/stm32f10x_gpio.c ****   return bitstatus;
 627              		.loc 1 335 0
 628 02fc 9DF80F30 		ldrb	r3, [sp, #15]	@ zero_extendqisi2	@ D.6738, bitstatus
 336:../../STM32F10x_StdPeriph_Lib_V3.5.0/Libraries/STM32F10x_StdPeriph_Driver/src/stm32f10x_gpio.c **** }
 629              		.loc 1 336 0
ARM GAS  /tmp/ccvxPp7R.s 			page 18


 630 0300 1846     		mov	r0, r3	@, <retval>
 631 0302 04B0     		add	sp, sp, #16	@,,
 632              	.LCFI13:
 633              		.cfi_def_cfa_offset 0
 634              		@ sp needed	@
 635 0304 7047     		bx	lr	@
 636              		.cfi_endproc
 637              	.LFE35:
 638              		.size	GPIO_ReadOutputDataBit, .-GPIO_ReadOutputDataBit
 639 0306 00BF     		.align	2
 640              		.global	GPIO_ReadOutputData
 641              		.thumb
 642              		.thumb_func
 643              		.type	GPIO_ReadOutputData, %function
 644              	GPIO_ReadOutputData:
 645              	.LFB36:
 337:../../STM32F10x_StdPeriph_Lib_V3.5.0/Libraries/STM32F10x_StdPeriph_Driver/src/stm32f10x_gpio.c **** 
 338:../../STM32F10x_StdPeriph_Lib_V3.5.0/Libraries/STM32F10x_StdPeriph_Driver/src/stm32f10x_gpio.c **** /**
 339:../../STM32F10x_StdPeriph_Lib_V3.5.0/Libraries/STM32F10x_StdPeriph_Driver/src/stm32f10x_gpio.c ****   * @brief  Reads the specified GPIO output data port.
 340:../../STM32F10x_StdPeriph_Lib_V3.5.0/Libraries/STM32F10x_StdPeriph_Driver/src/stm32f10x_gpio.c ****   * @param  GPIOx: where x can be (A..G) to select the GPIO peripheral.
 341:../../STM32F10x_StdPeriph_Lib_V3.5.0/Libraries/STM32F10x_StdPeriph_Driver/src/stm32f10x_gpio.c ****   * @retval GPIO output data port value.
 342:../../STM32F10x_StdPeriph_Lib_V3.5.0/Libraries/STM32F10x_StdPeriph_Driver/src/stm32f10x_gpio.c ****   */
 343:../../STM32F10x_StdPeriph_Lib_V3.5.0/Libraries/STM32F10x_StdPeriph_Driver/src/stm32f10x_gpio.c **** uint16_t GPIO_ReadOutputData(GPIO_TypeDef* GPIOx)
 344:../../STM32F10x_StdPeriph_Lib_V3.5.0/Libraries/STM32F10x_StdPeriph_Driver/src/stm32f10x_gpio.c **** {
 646              		.loc 1 344 0
 647              		.cfi_startproc
 648              		@ args = 0, pretend = 0, frame = 8
 649              		@ frame_needed = 0, uses_anonymous_args = 0
 650              		@ link register save eliminated.
 651 0308 82B0     		sub	sp, sp, #8	@,,
 652              	.LCFI14:
 653              		.cfi_def_cfa_offset 8
 654 030a 0190     		str	r0, [sp, #4]	@ GPIOx, GPIOx
 345:../../STM32F10x_StdPeriph_Lib_V3.5.0/Libraries/STM32F10x_StdPeriph_Driver/src/stm32f10x_gpio.c ****   /* Check the parameters */
 346:../../STM32F10x_StdPeriph_Lib_V3.5.0/Libraries/STM32F10x_StdPeriph_Driver/src/stm32f10x_gpio.c ****   assert_param(IS_GPIO_ALL_PERIPH(GPIOx));
 347:../../STM32F10x_StdPeriph_Lib_V3.5.0/Libraries/STM32F10x_StdPeriph_Driver/src/stm32f10x_gpio.c ****     
 348:../../STM32F10x_StdPeriph_Lib_V3.5.0/Libraries/STM32F10x_StdPeriph_Driver/src/stm32f10x_gpio.c ****   return ((uint16_t)GPIOx->ODR);
 655              		.loc 1 348 0
 656 030c 019B     		ldr	r3, [sp, #4]	@ tmp113, GPIOx
 657 030e DB68     		ldr	r3, [r3, #12]	@ D.6739, GPIOx_1(D)->ODR
 658 0310 9BB2     		uxth	r3, r3	@ D.6740, D.6739
 349:../../STM32F10x_StdPeriph_Lib_V3.5.0/Libraries/STM32F10x_StdPeriph_Driver/src/stm32f10x_gpio.c **** }
 659              		.loc 1 349 0
 660 0312 1846     		mov	r0, r3	@, <retval>
 661 0314 02B0     		add	sp, sp, #8	@,,
 662              	.LCFI15:
 663              		.cfi_def_cfa_offset 0
 664              		@ sp needed	@
 665 0316 7047     		bx	lr	@
 666              		.cfi_endproc
 667              	.LFE36:
 668              		.size	GPIO_ReadOutputData, .-GPIO_ReadOutputData
 669              		.align	2
 670              		.global	GPIO_SetBits
 671              		.thumb
 672              		.thumb_func
 673              		.type	GPIO_SetBits, %function
ARM GAS  /tmp/ccvxPp7R.s 			page 19


 674              	GPIO_SetBits:
 675              	.LFB37:
 350:../../STM32F10x_StdPeriph_Lib_V3.5.0/Libraries/STM32F10x_StdPeriph_Driver/src/stm32f10x_gpio.c **** 
 351:../../STM32F10x_StdPeriph_Lib_V3.5.0/Libraries/STM32F10x_StdPeriph_Driver/src/stm32f10x_gpio.c **** /**
 352:../../STM32F10x_StdPeriph_Lib_V3.5.0/Libraries/STM32F10x_StdPeriph_Driver/src/stm32f10x_gpio.c ****   * @brief  Sets the selected data port bits.
 353:../../STM32F10x_StdPeriph_Lib_V3.5.0/Libraries/STM32F10x_StdPeriph_Driver/src/stm32f10x_gpio.c ****   * @param  GPIOx: where x can be (A..G) to select the GPIO peripheral.
 354:../../STM32F10x_StdPeriph_Lib_V3.5.0/Libraries/STM32F10x_StdPeriph_Driver/src/stm32f10x_gpio.c ****   * @param  GPIO_Pin: specifies the port bits to be written.
 355:../../STM32F10x_StdPeriph_Lib_V3.5.0/Libraries/STM32F10x_StdPeriph_Driver/src/stm32f10x_gpio.c ****   *   This parameter can be any combination of GPIO_Pin_x where x can be (0..15).
 356:../../STM32F10x_StdPeriph_Lib_V3.5.0/Libraries/STM32F10x_StdPeriph_Driver/src/stm32f10x_gpio.c ****   * @retval None
 357:../../STM32F10x_StdPeriph_Lib_V3.5.0/Libraries/STM32F10x_StdPeriph_Driver/src/stm32f10x_gpio.c ****   */
 358:../../STM32F10x_StdPeriph_Lib_V3.5.0/Libraries/STM32F10x_StdPeriph_Driver/src/stm32f10x_gpio.c **** void GPIO_SetBits(GPIO_TypeDef* GPIOx, uint16_t GPIO_Pin)
 359:../../STM32F10x_StdPeriph_Lib_V3.5.0/Libraries/STM32F10x_StdPeriph_Driver/src/stm32f10x_gpio.c **** {
 676              		.loc 1 359 0
 677              		.cfi_startproc
 678              		@ args = 0, pretend = 0, frame = 8
 679              		@ frame_needed = 0, uses_anonymous_args = 0
 680              		@ link register save eliminated.
 681 0318 82B0     		sub	sp, sp, #8	@,,
 682              	.LCFI16:
 683              		.cfi_def_cfa_offset 8
 684 031a 0190     		str	r0, [sp, #4]	@ GPIOx, GPIOx
 685 031c 0B46     		mov	r3, r1	@ tmp111, GPIO_Pin
 686 031e ADF80230 		strh	r3, [sp, #2]	@ movhi	@ tmp112, GPIO_Pin
 360:../../STM32F10x_StdPeriph_Lib_V3.5.0/Libraries/STM32F10x_StdPeriph_Driver/src/stm32f10x_gpio.c ****   /* Check the parameters */
 361:../../STM32F10x_StdPeriph_Lib_V3.5.0/Libraries/STM32F10x_StdPeriph_Driver/src/stm32f10x_gpio.c ****   assert_param(IS_GPIO_ALL_PERIPH(GPIOx));
 362:../../STM32F10x_StdPeriph_Lib_V3.5.0/Libraries/STM32F10x_StdPeriph_Driver/src/stm32f10x_gpio.c ****   assert_param(IS_GPIO_PIN(GPIO_Pin));
 363:../../STM32F10x_StdPeriph_Lib_V3.5.0/Libraries/STM32F10x_StdPeriph_Driver/src/stm32f10x_gpio.c ****   
 364:../../STM32F10x_StdPeriph_Lib_V3.5.0/Libraries/STM32F10x_StdPeriph_Driver/src/stm32f10x_gpio.c ****   GPIOx->BSRR = GPIO_Pin;
 687              		.loc 1 364 0
 688 0322 BDF80220 		ldrh	r2, [sp, #2]	@ D.6741, GPIO_Pin
 689 0326 019B     		ldr	r3, [sp, #4]	@ tmp113, GPIOx
 690 0328 1A61     		str	r2, [r3, #16]	@ D.6741, GPIOx_3(D)->BSRR
 365:../../STM32F10x_StdPeriph_Lib_V3.5.0/Libraries/STM32F10x_StdPeriph_Driver/src/stm32f10x_gpio.c **** }
 691              		.loc 1 365 0
 692 032a 02B0     		add	sp, sp, #8	@,,
 693              	.LCFI17:
 694              		.cfi_def_cfa_offset 0
 695              		@ sp needed	@
 696 032c 7047     		bx	lr	@
 697              		.cfi_endproc
 698              	.LFE37:
 699              		.size	GPIO_SetBits, .-GPIO_SetBits
 700 032e 00BF     		.align	2
 701              		.global	GPIO_ResetBits
 702              		.thumb
 703              		.thumb_func
 704              		.type	GPIO_ResetBits, %function
 705              	GPIO_ResetBits:
 706              	.LFB38:
 366:../../STM32F10x_StdPeriph_Lib_V3.5.0/Libraries/STM32F10x_StdPeriph_Driver/src/stm32f10x_gpio.c **** 
 367:../../STM32F10x_StdPeriph_Lib_V3.5.0/Libraries/STM32F10x_StdPeriph_Driver/src/stm32f10x_gpio.c **** /**
 368:../../STM32F10x_StdPeriph_Lib_V3.5.0/Libraries/STM32F10x_StdPeriph_Driver/src/stm32f10x_gpio.c ****   * @brief  Clears the selected data port bits.
 369:../../STM32F10x_StdPeriph_Lib_V3.5.0/Libraries/STM32F10x_StdPeriph_Driver/src/stm32f10x_gpio.c ****   * @param  GPIOx: where x can be (A..G) to select the GPIO peripheral.
 370:../../STM32F10x_StdPeriph_Lib_V3.5.0/Libraries/STM32F10x_StdPeriph_Driver/src/stm32f10x_gpio.c ****   * @param  GPIO_Pin: specifies the port bits to be written.
 371:../../STM32F10x_StdPeriph_Lib_V3.5.0/Libraries/STM32F10x_StdPeriph_Driver/src/stm32f10x_gpio.c ****   *   This parameter can be any combination of GPIO_Pin_x where x can be (0..15).
 372:../../STM32F10x_StdPeriph_Lib_V3.5.0/Libraries/STM32F10x_StdPeriph_Driver/src/stm32f10x_gpio.c ****   * @retval None
 373:../../STM32F10x_StdPeriph_Lib_V3.5.0/Libraries/STM32F10x_StdPeriph_Driver/src/stm32f10x_gpio.c ****   */
ARM GAS  /tmp/ccvxPp7R.s 			page 20


 374:../../STM32F10x_StdPeriph_Lib_V3.5.0/Libraries/STM32F10x_StdPeriph_Driver/src/stm32f10x_gpio.c **** void GPIO_ResetBits(GPIO_TypeDef* GPIOx, uint16_t GPIO_Pin)
 375:../../STM32F10x_StdPeriph_Lib_V3.5.0/Libraries/STM32F10x_StdPeriph_Driver/src/stm32f10x_gpio.c **** {
 707              		.loc 1 375 0
 708              		.cfi_startproc
 709              		@ args = 0, pretend = 0, frame = 8
 710              		@ frame_needed = 0, uses_anonymous_args = 0
 711              		@ link register save eliminated.
 712 0330 82B0     		sub	sp, sp, #8	@,,
 713              	.LCFI18:
 714              		.cfi_def_cfa_offset 8
 715 0332 0190     		str	r0, [sp, #4]	@ GPIOx, GPIOx
 716 0334 0B46     		mov	r3, r1	@ tmp111, GPIO_Pin
 717 0336 ADF80230 		strh	r3, [sp, #2]	@ movhi	@ tmp112, GPIO_Pin
 376:../../STM32F10x_StdPeriph_Lib_V3.5.0/Libraries/STM32F10x_StdPeriph_Driver/src/stm32f10x_gpio.c ****   /* Check the parameters */
 377:../../STM32F10x_StdPeriph_Lib_V3.5.0/Libraries/STM32F10x_StdPeriph_Driver/src/stm32f10x_gpio.c ****   assert_param(IS_GPIO_ALL_PERIPH(GPIOx));
 378:../../STM32F10x_StdPeriph_Lib_V3.5.0/Libraries/STM32F10x_StdPeriph_Driver/src/stm32f10x_gpio.c ****   assert_param(IS_GPIO_PIN(GPIO_Pin));
 379:../../STM32F10x_StdPeriph_Lib_V3.5.0/Libraries/STM32F10x_StdPeriph_Driver/src/stm32f10x_gpio.c ****   
 380:../../STM32F10x_StdPeriph_Lib_V3.5.0/Libraries/STM32F10x_StdPeriph_Driver/src/stm32f10x_gpio.c ****   GPIOx->BRR = GPIO_Pin;
 718              		.loc 1 380 0
 719 033a BDF80220 		ldrh	r2, [sp, #2]	@ D.6742, GPIO_Pin
 720 033e 019B     		ldr	r3, [sp, #4]	@ tmp113, GPIOx
 721 0340 5A61     		str	r2, [r3, #20]	@ D.6742, GPIOx_3(D)->BRR
 381:../../STM32F10x_StdPeriph_Lib_V3.5.0/Libraries/STM32F10x_StdPeriph_Driver/src/stm32f10x_gpio.c **** }
 722              		.loc 1 381 0
 723 0342 02B0     		add	sp, sp, #8	@,,
 724              	.LCFI19:
 725              		.cfi_def_cfa_offset 0
 726              		@ sp needed	@
 727 0344 7047     		bx	lr	@
 728              		.cfi_endproc
 729              	.LFE38:
 730              		.size	GPIO_ResetBits, .-GPIO_ResetBits
 731 0346 00BF     		.align	2
 732              		.global	GPIO_WriteBit
 733              		.thumb
 734              		.thumb_func
 735              		.type	GPIO_WriteBit, %function
 736              	GPIO_WriteBit:
 737              	.LFB39:
 382:../../STM32F10x_StdPeriph_Lib_V3.5.0/Libraries/STM32F10x_StdPeriph_Driver/src/stm32f10x_gpio.c **** 
 383:../../STM32F10x_StdPeriph_Lib_V3.5.0/Libraries/STM32F10x_StdPeriph_Driver/src/stm32f10x_gpio.c **** /**
 384:../../STM32F10x_StdPeriph_Lib_V3.5.0/Libraries/STM32F10x_StdPeriph_Driver/src/stm32f10x_gpio.c ****   * @brief  Sets or clears the selected data port bit.
 385:../../STM32F10x_StdPeriph_Lib_V3.5.0/Libraries/STM32F10x_StdPeriph_Driver/src/stm32f10x_gpio.c ****   * @param  GPIOx: where x can be (A..G) to select the GPIO peripheral.
 386:../../STM32F10x_StdPeriph_Lib_V3.5.0/Libraries/STM32F10x_StdPeriph_Driver/src/stm32f10x_gpio.c ****   * @param  GPIO_Pin: specifies the port bit to be written.
 387:../../STM32F10x_StdPeriph_Lib_V3.5.0/Libraries/STM32F10x_StdPeriph_Driver/src/stm32f10x_gpio.c ****   *   This parameter can be one of GPIO_Pin_x where x can be (0..15).
 388:../../STM32F10x_StdPeriph_Lib_V3.5.0/Libraries/STM32F10x_StdPeriph_Driver/src/stm32f10x_gpio.c ****   * @param  BitVal: specifies the value to be written to the selected bit.
 389:../../STM32F10x_StdPeriph_Lib_V3.5.0/Libraries/STM32F10x_StdPeriph_Driver/src/stm32f10x_gpio.c ****   *   This parameter can be one of the BitAction enum values:
 390:../../STM32F10x_StdPeriph_Lib_V3.5.0/Libraries/STM32F10x_StdPeriph_Driver/src/stm32f10x_gpio.c ****   *     @arg Bit_RESET: to clear the port pin
 391:../../STM32F10x_StdPeriph_Lib_V3.5.0/Libraries/STM32F10x_StdPeriph_Driver/src/stm32f10x_gpio.c ****   *     @arg Bit_SET: to set the port pin
 392:../../STM32F10x_StdPeriph_Lib_V3.5.0/Libraries/STM32F10x_StdPeriph_Driver/src/stm32f10x_gpio.c ****   * @retval None
 393:../../STM32F10x_StdPeriph_Lib_V3.5.0/Libraries/STM32F10x_StdPeriph_Driver/src/stm32f10x_gpio.c ****   */
 394:../../STM32F10x_StdPeriph_Lib_V3.5.0/Libraries/STM32F10x_StdPeriph_Driver/src/stm32f10x_gpio.c **** void GPIO_WriteBit(GPIO_TypeDef* GPIOx, uint16_t GPIO_Pin, BitAction BitVal)
 395:../../STM32F10x_StdPeriph_Lib_V3.5.0/Libraries/STM32F10x_StdPeriph_Driver/src/stm32f10x_gpio.c **** {
 738              		.loc 1 395 0
 739              		.cfi_startproc
 740              		@ args = 0, pretend = 0, frame = 8
 741              		@ frame_needed = 0, uses_anonymous_args = 0
ARM GAS  /tmp/ccvxPp7R.s 			page 21


 742              		@ link register save eliminated.
 743 0348 82B0     		sub	sp, sp, #8	@,,
 744              	.LCFI20:
 745              		.cfi_def_cfa_offset 8
 746 034a 0190     		str	r0, [sp, #4]	@ GPIOx, GPIOx
 747 034c 0B46     		mov	r3, r1	@ tmp112, GPIO_Pin
 748 034e ADF80230 		strh	r3, [sp, #2]	@ movhi	@ tmp113, GPIO_Pin
 749 0352 1346     		mov	r3, r2	@ tmp115, tmp114
 750 0354 8DF80130 		strb	r3, [sp, #1]	@ tmp115, BitVal
 396:../../STM32F10x_StdPeriph_Lib_V3.5.0/Libraries/STM32F10x_StdPeriph_Driver/src/stm32f10x_gpio.c ****   /* Check the parameters */
 397:../../STM32F10x_StdPeriph_Lib_V3.5.0/Libraries/STM32F10x_StdPeriph_Driver/src/stm32f10x_gpio.c ****   assert_param(IS_GPIO_ALL_PERIPH(GPIOx));
 398:../../STM32F10x_StdPeriph_Lib_V3.5.0/Libraries/STM32F10x_StdPeriph_Driver/src/stm32f10x_gpio.c ****   assert_param(IS_GET_GPIO_PIN(GPIO_Pin));
 399:../../STM32F10x_StdPeriph_Lib_V3.5.0/Libraries/STM32F10x_StdPeriph_Driver/src/stm32f10x_gpio.c ****   assert_param(IS_GPIO_BIT_ACTION(BitVal)); 
 400:../../STM32F10x_StdPeriph_Lib_V3.5.0/Libraries/STM32F10x_StdPeriph_Driver/src/stm32f10x_gpio.c ****   
 401:../../STM32F10x_StdPeriph_Lib_V3.5.0/Libraries/STM32F10x_StdPeriph_Driver/src/stm32f10x_gpio.c ****   if (BitVal != Bit_RESET)
 751              		.loc 1 401 0
 752 0358 9DF80130 		ldrb	r3, [sp, #1]	@ zero_extendqisi2	@ tmp116, BitVal
 753 035c 002B     		cmp	r3, #0	@ tmp116,
 754 035e 04D0     		beq	.L40	@,
 402:../../STM32F10x_StdPeriph_Lib_V3.5.0/Libraries/STM32F10x_StdPeriph_Driver/src/stm32f10x_gpio.c ****   {
 403:../../STM32F10x_StdPeriph_Lib_V3.5.0/Libraries/STM32F10x_StdPeriph_Driver/src/stm32f10x_gpio.c ****     GPIOx->BSRR = GPIO_Pin;
 755              		.loc 1 403 0
 756 0360 BDF80220 		ldrh	r2, [sp, #2]	@ D.6743, GPIO_Pin
 757 0364 019B     		ldr	r3, [sp, #4]	@ tmp117, GPIOx
 758 0366 1A61     		str	r2, [r3, #16]	@ D.6743, GPIOx_4(D)->BSRR
 759 0368 03E0     		b	.L39	@
 760              	.L40:
 404:../../STM32F10x_StdPeriph_Lib_V3.5.0/Libraries/STM32F10x_StdPeriph_Driver/src/stm32f10x_gpio.c ****   }
 405:../../STM32F10x_StdPeriph_Lib_V3.5.0/Libraries/STM32F10x_StdPeriph_Driver/src/stm32f10x_gpio.c ****   else
 406:../../STM32F10x_StdPeriph_Lib_V3.5.0/Libraries/STM32F10x_StdPeriph_Driver/src/stm32f10x_gpio.c ****   {
 407:../../STM32F10x_StdPeriph_Lib_V3.5.0/Libraries/STM32F10x_StdPeriph_Driver/src/stm32f10x_gpio.c ****     GPIOx->BRR = GPIO_Pin;
 761              		.loc 1 407 0
 762 036a BDF80220 		ldrh	r2, [sp, #2]	@ D.6743, GPIO_Pin
 763 036e 019B     		ldr	r3, [sp, #4]	@ tmp118, GPIOx
 764 0370 5A61     		str	r2, [r3, #20]	@ D.6743, GPIOx_4(D)->BRR
 765              	.L39:
 408:../../STM32F10x_StdPeriph_Lib_V3.5.0/Libraries/STM32F10x_StdPeriph_Driver/src/stm32f10x_gpio.c ****   }
 409:../../STM32F10x_StdPeriph_Lib_V3.5.0/Libraries/STM32F10x_StdPeriph_Driver/src/stm32f10x_gpio.c **** }
 766              		.loc 1 409 0
 767 0372 02B0     		add	sp, sp, #8	@,,
 768              	.LCFI21:
 769              		.cfi_def_cfa_offset 0
 770              		@ sp needed	@
 771 0374 7047     		bx	lr	@
 772              		.cfi_endproc
 773              	.LFE39:
 774              		.size	GPIO_WriteBit, .-GPIO_WriteBit
 775 0376 00BF     		.align	2
 776              		.global	GPIO_Write
 777              		.thumb
 778              		.thumb_func
 779              		.type	GPIO_Write, %function
 780              	GPIO_Write:
 781              	.LFB40:
 410:../../STM32F10x_StdPeriph_Lib_V3.5.0/Libraries/STM32F10x_StdPeriph_Driver/src/stm32f10x_gpio.c **** 
 411:../../STM32F10x_StdPeriph_Lib_V3.5.0/Libraries/STM32F10x_StdPeriph_Driver/src/stm32f10x_gpio.c **** /**
 412:../../STM32F10x_StdPeriph_Lib_V3.5.0/Libraries/STM32F10x_StdPeriph_Driver/src/stm32f10x_gpio.c ****   * @brief  Writes data to the specified GPIO data port.
ARM GAS  /tmp/ccvxPp7R.s 			page 22


 413:../../STM32F10x_StdPeriph_Lib_V3.5.0/Libraries/STM32F10x_StdPeriph_Driver/src/stm32f10x_gpio.c ****   * @param  GPIOx: where x can be (A..G) to select the GPIO peripheral.
 414:../../STM32F10x_StdPeriph_Lib_V3.5.0/Libraries/STM32F10x_StdPeriph_Driver/src/stm32f10x_gpio.c ****   * @param  PortVal: specifies the value to be written to the port output data register.
 415:../../STM32F10x_StdPeriph_Lib_V3.5.0/Libraries/STM32F10x_StdPeriph_Driver/src/stm32f10x_gpio.c ****   * @retval None
 416:../../STM32F10x_StdPeriph_Lib_V3.5.0/Libraries/STM32F10x_StdPeriph_Driver/src/stm32f10x_gpio.c ****   */
 417:../../STM32F10x_StdPeriph_Lib_V3.5.0/Libraries/STM32F10x_StdPeriph_Driver/src/stm32f10x_gpio.c **** void GPIO_Write(GPIO_TypeDef* GPIOx, uint16_t PortVal)
 418:../../STM32F10x_StdPeriph_Lib_V3.5.0/Libraries/STM32F10x_StdPeriph_Driver/src/stm32f10x_gpio.c **** {
 782              		.loc 1 418 0
 783              		.cfi_startproc
 784              		@ args = 0, pretend = 0, frame = 8
 785              		@ frame_needed = 0, uses_anonymous_args = 0
 786              		@ link register save eliminated.
 787 0378 82B0     		sub	sp, sp, #8	@,,
 788              	.LCFI22:
 789              		.cfi_def_cfa_offset 8
 790 037a 0190     		str	r0, [sp, #4]	@ GPIOx, GPIOx
 791 037c 0B46     		mov	r3, r1	@ tmp111, PortVal
 792 037e ADF80230 		strh	r3, [sp, #2]	@ movhi	@ tmp112, PortVal
 419:../../STM32F10x_StdPeriph_Lib_V3.5.0/Libraries/STM32F10x_StdPeriph_Driver/src/stm32f10x_gpio.c ****   /* Check the parameters */
 420:../../STM32F10x_StdPeriph_Lib_V3.5.0/Libraries/STM32F10x_StdPeriph_Driver/src/stm32f10x_gpio.c ****   assert_param(IS_GPIO_ALL_PERIPH(GPIOx));
 421:../../STM32F10x_StdPeriph_Lib_V3.5.0/Libraries/STM32F10x_StdPeriph_Driver/src/stm32f10x_gpio.c ****   
 422:../../STM32F10x_StdPeriph_Lib_V3.5.0/Libraries/STM32F10x_StdPeriph_Driver/src/stm32f10x_gpio.c ****   GPIOx->ODR = PortVal;
 793              		.loc 1 422 0
 794 0382 BDF80220 		ldrh	r2, [sp, #2]	@ D.6744, PortVal
 795 0386 019B     		ldr	r3, [sp, #4]	@ tmp113, GPIOx
 796 0388 DA60     		str	r2, [r3, #12]	@ D.6744, GPIOx_3(D)->ODR
 423:../../STM32F10x_StdPeriph_Lib_V3.5.0/Libraries/STM32F10x_StdPeriph_Driver/src/stm32f10x_gpio.c **** }
 797              		.loc 1 423 0
 798 038a 02B0     		add	sp, sp, #8	@,,
 799              	.LCFI23:
 800              		.cfi_def_cfa_offset 0
 801              		@ sp needed	@
 802 038c 7047     		bx	lr	@
 803              		.cfi_endproc
 804              	.LFE40:
 805              		.size	GPIO_Write, .-GPIO_Write
 806 038e 00BF     		.align	2
 807              		.global	GPIO_PinLockConfig
 808              		.thumb
 809              		.thumb_func
 810              		.type	GPIO_PinLockConfig, %function
 811              	GPIO_PinLockConfig:
 812              	.LFB41:
 424:../../STM32F10x_StdPeriph_Lib_V3.5.0/Libraries/STM32F10x_StdPeriph_Driver/src/stm32f10x_gpio.c **** 
 425:../../STM32F10x_StdPeriph_Lib_V3.5.0/Libraries/STM32F10x_StdPeriph_Driver/src/stm32f10x_gpio.c **** /**
 426:../../STM32F10x_StdPeriph_Lib_V3.5.0/Libraries/STM32F10x_StdPeriph_Driver/src/stm32f10x_gpio.c ****   * @brief  Locks GPIO Pins configuration registers.
 427:../../STM32F10x_StdPeriph_Lib_V3.5.0/Libraries/STM32F10x_StdPeriph_Driver/src/stm32f10x_gpio.c ****   * @param  GPIOx: where x can be (A..G) to select the GPIO peripheral.
 428:../../STM32F10x_StdPeriph_Lib_V3.5.0/Libraries/STM32F10x_StdPeriph_Driver/src/stm32f10x_gpio.c ****   * @param  GPIO_Pin: specifies the port bit to be written.
 429:../../STM32F10x_StdPeriph_Lib_V3.5.0/Libraries/STM32F10x_StdPeriph_Driver/src/stm32f10x_gpio.c ****   *   This parameter can be any combination of GPIO_Pin_x where x can be (0..15).
 430:../../STM32F10x_StdPeriph_Lib_V3.5.0/Libraries/STM32F10x_StdPeriph_Driver/src/stm32f10x_gpio.c ****   * @retval None
 431:../../STM32F10x_StdPeriph_Lib_V3.5.0/Libraries/STM32F10x_StdPeriph_Driver/src/stm32f10x_gpio.c ****   */
 432:../../STM32F10x_StdPeriph_Lib_V3.5.0/Libraries/STM32F10x_StdPeriph_Driver/src/stm32f10x_gpio.c **** void GPIO_PinLockConfig(GPIO_TypeDef* GPIOx, uint16_t GPIO_Pin)
 433:../../STM32F10x_StdPeriph_Lib_V3.5.0/Libraries/STM32F10x_StdPeriph_Driver/src/stm32f10x_gpio.c **** {
 813              		.loc 1 433 0
 814              		.cfi_startproc
 815              		@ args = 0, pretend = 0, frame = 16
 816              		@ frame_needed = 0, uses_anonymous_args = 0
 817              		@ link register save eliminated.
ARM GAS  /tmp/ccvxPp7R.s 			page 23


 818 0390 84B0     		sub	sp, sp, #16	@,,
 819              	.LCFI24:
 820              		.cfi_def_cfa_offset 16
 821 0392 0190     		str	r0, [sp, #4]	@ GPIOx, GPIOx
 822 0394 0B46     		mov	r3, r1	@ tmp112, GPIO_Pin
 823 0396 ADF80230 		strh	r3, [sp, #2]	@ movhi	@ tmp113, GPIO_Pin
 434:../../STM32F10x_StdPeriph_Lib_V3.5.0/Libraries/STM32F10x_StdPeriph_Driver/src/stm32f10x_gpio.c ****   uint32_t tmp = 0x00010000;
 824              		.loc 1 434 0
 825 039a 4FF48033 		mov	r3, #65536	@ tmp114,
 826 039e 0393     		str	r3, [sp, #12]	@ tmp114, tmp
 435:../../STM32F10x_StdPeriph_Lib_V3.5.0/Libraries/STM32F10x_StdPeriph_Driver/src/stm32f10x_gpio.c ****   
 436:../../STM32F10x_StdPeriph_Lib_V3.5.0/Libraries/STM32F10x_StdPeriph_Driver/src/stm32f10x_gpio.c ****   /* Check the parameters */
 437:../../STM32F10x_StdPeriph_Lib_V3.5.0/Libraries/STM32F10x_StdPeriph_Driver/src/stm32f10x_gpio.c ****   assert_param(IS_GPIO_ALL_PERIPH(GPIOx));
 438:../../STM32F10x_StdPeriph_Lib_V3.5.0/Libraries/STM32F10x_StdPeriph_Driver/src/stm32f10x_gpio.c ****   assert_param(IS_GPIO_PIN(GPIO_Pin));
 439:../../STM32F10x_StdPeriph_Lib_V3.5.0/Libraries/STM32F10x_StdPeriph_Driver/src/stm32f10x_gpio.c ****   
 440:../../STM32F10x_StdPeriph_Lib_V3.5.0/Libraries/STM32F10x_StdPeriph_Driver/src/stm32f10x_gpio.c ****   tmp |= GPIO_Pin;
 827              		.loc 1 440 0
 828 03a0 BDF80230 		ldrh	r3, [sp, #2]	@ D.6745, GPIO_Pin
 829 03a4 039A     		ldr	r2, [sp, #12]	@ tmp116, tmp
 830 03a6 1343     		orrs	r3, r3, r2	@, tmp115, D.6745, tmp116
 831 03a8 0393     		str	r3, [sp, #12]	@ tmp115, tmp
 441:../../STM32F10x_StdPeriph_Lib_V3.5.0/Libraries/STM32F10x_StdPeriph_Driver/src/stm32f10x_gpio.c ****   /* Set LCKK bit */
 442:../../STM32F10x_StdPeriph_Lib_V3.5.0/Libraries/STM32F10x_StdPeriph_Driver/src/stm32f10x_gpio.c ****   GPIOx->LCKR = tmp;
 832              		.loc 1 442 0
 833 03aa 019B     		ldr	r3, [sp, #4]	@ tmp117, GPIOx
 834 03ac 039A     		ldr	r2, [sp, #12]	@ tmp118, tmp
 835 03ae 9A61     		str	r2, [r3, #24]	@ tmp118, GPIOx_5(D)->LCKR
 443:../../STM32F10x_StdPeriph_Lib_V3.5.0/Libraries/STM32F10x_StdPeriph_Driver/src/stm32f10x_gpio.c ****   /* Reset LCKK bit */
 444:../../STM32F10x_StdPeriph_Lib_V3.5.0/Libraries/STM32F10x_StdPeriph_Driver/src/stm32f10x_gpio.c ****   GPIOx->LCKR =  GPIO_Pin;
 836              		.loc 1 444 0
 837 03b0 BDF80220 		ldrh	r2, [sp, #2]	@ D.6745, GPIO_Pin
 838 03b4 019B     		ldr	r3, [sp, #4]	@ tmp119, GPIOx
 839 03b6 9A61     		str	r2, [r3, #24]	@ D.6745, GPIOx_5(D)->LCKR
 445:../../STM32F10x_StdPeriph_Lib_V3.5.0/Libraries/STM32F10x_StdPeriph_Driver/src/stm32f10x_gpio.c ****   /* Set LCKK bit */
 446:../../STM32F10x_StdPeriph_Lib_V3.5.0/Libraries/STM32F10x_StdPeriph_Driver/src/stm32f10x_gpio.c ****   GPIOx->LCKR = tmp;
 840              		.loc 1 446 0
 841 03b8 019B     		ldr	r3, [sp, #4]	@ tmp120, GPIOx
 842 03ba 039A     		ldr	r2, [sp, #12]	@ tmp121, tmp
 843 03bc 9A61     		str	r2, [r3, #24]	@ tmp121, GPIOx_5(D)->LCKR
 447:../../STM32F10x_StdPeriph_Lib_V3.5.0/Libraries/STM32F10x_StdPeriph_Driver/src/stm32f10x_gpio.c ****   /* Read LCKK bit*/
 448:../../STM32F10x_StdPeriph_Lib_V3.5.0/Libraries/STM32F10x_StdPeriph_Driver/src/stm32f10x_gpio.c ****   tmp = GPIOx->LCKR;
 844              		.loc 1 448 0
 845 03be 019B     		ldr	r3, [sp, #4]	@ tmp122, GPIOx
 846 03c0 9B69     		ldr	r3, [r3, #24]	@ tmp123, GPIOx_5(D)->LCKR
 847 03c2 0393     		str	r3, [sp, #12]	@ tmp123, tmp
 449:../../STM32F10x_StdPeriph_Lib_V3.5.0/Libraries/STM32F10x_StdPeriph_Driver/src/stm32f10x_gpio.c ****   /* Read LCKK bit*/
 450:../../STM32F10x_StdPeriph_Lib_V3.5.0/Libraries/STM32F10x_StdPeriph_Driver/src/stm32f10x_gpio.c ****   tmp = GPIOx->LCKR;
 848              		.loc 1 450 0
 849 03c4 019B     		ldr	r3, [sp, #4]	@ tmp124, GPIOx
 850 03c6 9B69     		ldr	r3, [r3, #24]	@ tmp125, GPIOx_5(D)->LCKR
 851 03c8 0393     		str	r3, [sp, #12]	@ tmp125, tmp
 451:../../STM32F10x_StdPeriph_Lib_V3.5.0/Libraries/STM32F10x_StdPeriph_Driver/src/stm32f10x_gpio.c **** }
 852              		.loc 1 451 0
 853 03ca 04B0     		add	sp, sp, #16	@,,
 854              	.LCFI25:
 855              		.cfi_def_cfa_offset 0
 856              		@ sp needed	@
ARM GAS  /tmp/ccvxPp7R.s 			page 24


 857 03cc 7047     		bx	lr	@
 858              		.cfi_endproc
 859              	.LFE41:
 860              		.size	GPIO_PinLockConfig, .-GPIO_PinLockConfig
 861 03ce 00BF     		.align	2
 862              		.global	GPIO_EventOutputConfig
 863              		.thumb
 864              		.thumb_func
 865              		.type	GPIO_EventOutputConfig, %function
 866              	GPIO_EventOutputConfig:
 867              	.LFB42:
 452:../../STM32F10x_StdPeriph_Lib_V3.5.0/Libraries/STM32F10x_StdPeriph_Driver/src/stm32f10x_gpio.c **** 
 453:../../STM32F10x_StdPeriph_Lib_V3.5.0/Libraries/STM32F10x_StdPeriph_Driver/src/stm32f10x_gpio.c **** /**
 454:../../STM32F10x_StdPeriph_Lib_V3.5.0/Libraries/STM32F10x_StdPeriph_Driver/src/stm32f10x_gpio.c ****   * @brief  Selects the GPIO pin used as Event output.
 455:../../STM32F10x_StdPeriph_Lib_V3.5.0/Libraries/STM32F10x_StdPeriph_Driver/src/stm32f10x_gpio.c ****   * @param  GPIO_PortSource: selects the GPIO port to be used as source
 456:../../STM32F10x_StdPeriph_Lib_V3.5.0/Libraries/STM32F10x_StdPeriph_Driver/src/stm32f10x_gpio.c ****   *   for Event output.
 457:../../STM32F10x_StdPeriph_Lib_V3.5.0/Libraries/STM32F10x_StdPeriph_Driver/src/stm32f10x_gpio.c ****   *   This parameter can be GPIO_PortSourceGPIOx where x can be (A..E).
 458:../../STM32F10x_StdPeriph_Lib_V3.5.0/Libraries/STM32F10x_StdPeriph_Driver/src/stm32f10x_gpio.c ****   * @param  GPIO_PinSource: specifies the pin for the Event output.
 459:../../STM32F10x_StdPeriph_Lib_V3.5.0/Libraries/STM32F10x_StdPeriph_Driver/src/stm32f10x_gpio.c ****   *   This parameter can be GPIO_PinSourcex where x can be (0..15).
 460:../../STM32F10x_StdPeriph_Lib_V3.5.0/Libraries/STM32F10x_StdPeriph_Driver/src/stm32f10x_gpio.c ****   * @retval None
 461:../../STM32F10x_StdPeriph_Lib_V3.5.0/Libraries/STM32F10x_StdPeriph_Driver/src/stm32f10x_gpio.c ****   */
 462:../../STM32F10x_StdPeriph_Lib_V3.5.0/Libraries/STM32F10x_StdPeriph_Driver/src/stm32f10x_gpio.c **** void GPIO_EventOutputConfig(uint8_t GPIO_PortSource, uint8_t GPIO_PinSource)
 463:../../STM32F10x_StdPeriph_Lib_V3.5.0/Libraries/STM32F10x_StdPeriph_Driver/src/stm32f10x_gpio.c **** {
 868              		.loc 1 463 0
 869              		.cfi_startproc
 870              		@ args = 0, pretend = 0, frame = 16
 871              		@ frame_needed = 0, uses_anonymous_args = 0
 872              		@ link register save eliminated.
 873 03d0 84B0     		sub	sp, sp, #16	@,,
 874              	.LCFI26:
 875              		.cfi_def_cfa_offset 16
 876 03d2 0346     		mov	r3, r0	@ tmp115, GPIO_PortSource
 877 03d4 0A46     		mov	r2, r1	@ tmp117, GPIO_PinSource
 878 03d6 8DF80730 		strb	r3, [sp, #7]	@ tmp116, GPIO_PortSource
 879 03da 1346     		mov	r3, r2	@ tmp118, tmp117
 880 03dc 8DF80630 		strb	r3, [sp, #6]	@ tmp118, GPIO_PinSource
 464:../../STM32F10x_StdPeriph_Lib_V3.5.0/Libraries/STM32F10x_StdPeriph_Driver/src/stm32f10x_gpio.c ****   uint32_t tmpreg = 0x00;
 881              		.loc 1 464 0
 882 03e0 0023     		movs	r3, #0	@ tmp119,
 883 03e2 0393     		str	r3, [sp, #12]	@ tmp119, tmpreg
 465:../../STM32F10x_StdPeriph_Lib_V3.5.0/Libraries/STM32F10x_StdPeriph_Driver/src/stm32f10x_gpio.c ****   /* Check the parameters */
 466:../../STM32F10x_StdPeriph_Lib_V3.5.0/Libraries/STM32F10x_StdPeriph_Driver/src/stm32f10x_gpio.c ****   assert_param(IS_GPIO_EVENTOUT_PORT_SOURCE(GPIO_PortSource));
 467:../../STM32F10x_StdPeriph_Lib_V3.5.0/Libraries/STM32F10x_StdPeriph_Driver/src/stm32f10x_gpio.c ****   assert_param(IS_GPIO_PIN_SOURCE(GPIO_PinSource));
 468:../../STM32F10x_StdPeriph_Lib_V3.5.0/Libraries/STM32F10x_StdPeriph_Driver/src/stm32f10x_gpio.c ****     
 469:../../STM32F10x_StdPeriph_Lib_V3.5.0/Libraries/STM32F10x_StdPeriph_Driver/src/stm32f10x_gpio.c ****   tmpreg = AFIO->EVCR;
 884              		.loc 1 469 0
 885 03e4 0B4B     		ldr	r3, .L45	@ D.6746,
 886 03e6 1B68     		ldr	r3, [r3]	@ tmp120, _2->EVCR
 887 03e8 0393     		str	r3, [sp, #12]	@ tmp120, tmpreg
 470:../../STM32F10x_StdPeriph_Lib_V3.5.0/Libraries/STM32F10x_StdPeriph_Driver/src/stm32f10x_gpio.c ****   /* Clear the PORT[6:4] and PIN[3:0] bits */
 471:../../STM32F10x_StdPeriph_Lib_V3.5.0/Libraries/STM32F10x_StdPeriph_Driver/src/stm32f10x_gpio.c ****   tmpreg &= EVCR_PORTPINCONFIG_MASK;
 888              		.loc 1 471 0
 889 03ea 039A     		ldr	r2, [sp, #12]	@ tmp122, tmpreg
 890 03ec 4FF68073 		movw	r3, #65408	@ tmp121,
 891 03f0 1340     		ands	r3, r3, r2	@, tmp121, tmp121, tmp122
 892 03f2 0393     		str	r3, [sp, #12]	@ tmp121, tmpreg
 472:../../STM32F10x_StdPeriph_Lib_V3.5.0/Libraries/STM32F10x_StdPeriph_Driver/src/stm32f10x_gpio.c ****   tmpreg |= (uint32_t)GPIO_PortSource << 0x04;
ARM GAS  /tmp/ccvxPp7R.s 			page 25


 893              		.loc 1 472 0
 894 03f4 9DF80730 		ldrb	r3, [sp, #7]	@ zero_extendqisi2	@ D.6747, GPIO_PortSource
 895 03f8 1B01     		lsls	r3, r3, #4	@ D.6747, D.6747,
 896 03fa 039A     		ldr	r2, [sp, #12]	@ tmp124, tmpreg
 897 03fc 1343     		orrs	r3, r3, r2	@, tmp123, D.6747, tmp124
 898 03fe 0393     		str	r3, [sp, #12]	@ tmp123, tmpreg
 473:../../STM32F10x_StdPeriph_Lib_V3.5.0/Libraries/STM32F10x_StdPeriph_Driver/src/stm32f10x_gpio.c ****   tmpreg |= GPIO_PinSource;
 899              		.loc 1 473 0
 900 0400 9DF80630 		ldrb	r3, [sp, #6]	@ zero_extendqisi2	@ D.6747, GPIO_PinSource
 901 0404 039A     		ldr	r2, [sp, #12]	@ tmp126, tmpreg
 902 0406 1343     		orrs	r3, r3, r2	@, tmp125, D.6747, tmp126
 903 0408 0393     		str	r3, [sp, #12]	@ tmp125, tmpreg
 474:../../STM32F10x_StdPeriph_Lib_V3.5.0/Libraries/STM32F10x_StdPeriph_Driver/src/stm32f10x_gpio.c ****   AFIO->EVCR = tmpreg;
 904              		.loc 1 474 0
 905 040a 024A     		ldr	r2, .L45	@ D.6746,
 906 040c 039B     		ldr	r3, [sp, #12]	@ tmp127, tmpreg
 907 040e 1360     		str	r3, [r2]	@ tmp127, _12->EVCR
 475:../../STM32F10x_StdPeriph_Lib_V3.5.0/Libraries/STM32F10x_StdPeriph_Driver/src/stm32f10x_gpio.c **** }
 908              		.loc 1 475 0
 909 0410 04B0     		add	sp, sp, #16	@,,
 910              	.LCFI27:
 911              		.cfi_def_cfa_offset 0
 912              		@ sp needed	@
 913 0412 7047     		bx	lr	@
 914              	.L46:
 915              		.align	2
 916              	.L45:
 917 0414 00000140 		.word	1073807360
 918              		.cfi_endproc
 919              	.LFE42:
 920              		.size	GPIO_EventOutputConfig, .-GPIO_EventOutputConfig
 921              		.align	2
 922              		.global	GPIO_EventOutputCmd
 923              		.thumb
 924              		.thumb_func
 925              		.type	GPIO_EventOutputCmd, %function
 926              	GPIO_EventOutputCmd:
 927              	.LFB43:
 476:../../STM32F10x_StdPeriph_Lib_V3.5.0/Libraries/STM32F10x_StdPeriph_Driver/src/stm32f10x_gpio.c **** 
 477:../../STM32F10x_StdPeriph_Lib_V3.5.0/Libraries/STM32F10x_StdPeriph_Driver/src/stm32f10x_gpio.c **** /**
 478:../../STM32F10x_StdPeriph_Lib_V3.5.0/Libraries/STM32F10x_StdPeriph_Driver/src/stm32f10x_gpio.c ****   * @brief  Enables or disables the Event Output.
 479:../../STM32F10x_StdPeriph_Lib_V3.5.0/Libraries/STM32F10x_StdPeriph_Driver/src/stm32f10x_gpio.c ****   * @param  NewState: new state of the Event output.
 480:../../STM32F10x_StdPeriph_Lib_V3.5.0/Libraries/STM32F10x_StdPeriph_Driver/src/stm32f10x_gpio.c ****   *   This parameter can be: ENABLE or DISABLE.
 481:../../STM32F10x_StdPeriph_Lib_V3.5.0/Libraries/STM32F10x_StdPeriph_Driver/src/stm32f10x_gpio.c ****   * @retval None
 482:../../STM32F10x_StdPeriph_Lib_V3.5.0/Libraries/STM32F10x_StdPeriph_Driver/src/stm32f10x_gpio.c ****   */
 483:../../STM32F10x_StdPeriph_Lib_V3.5.0/Libraries/STM32F10x_StdPeriph_Driver/src/stm32f10x_gpio.c **** void GPIO_EventOutputCmd(FunctionalState NewState)
 484:../../STM32F10x_StdPeriph_Lib_V3.5.0/Libraries/STM32F10x_StdPeriph_Driver/src/stm32f10x_gpio.c **** {
 928              		.loc 1 484 0
 929              		.cfi_startproc
 930              		@ args = 0, pretend = 0, frame = 8
 931              		@ frame_needed = 0, uses_anonymous_args = 0
 932              		@ link register save eliminated.
 933 0418 82B0     		sub	sp, sp, #8	@,,
 934              	.LCFI28:
 935              		.cfi_def_cfa_offset 8
 936 041a 0346     		mov	r3, r0	@ tmp112, NewState
 937 041c 8DF80730 		strb	r3, [sp, #7]	@ tmp113, NewState
ARM GAS  /tmp/ccvxPp7R.s 			page 26


 485:../../STM32F10x_StdPeriph_Lib_V3.5.0/Libraries/STM32F10x_StdPeriph_Driver/src/stm32f10x_gpio.c ****   /* Check the parameters */
 486:../../STM32F10x_StdPeriph_Lib_V3.5.0/Libraries/STM32F10x_StdPeriph_Driver/src/stm32f10x_gpio.c ****   assert_param(IS_FUNCTIONAL_STATE(NewState));
 487:../../STM32F10x_StdPeriph_Lib_V3.5.0/Libraries/STM32F10x_StdPeriph_Driver/src/stm32f10x_gpio.c ****   
 488:../../STM32F10x_StdPeriph_Lib_V3.5.0/Libraries/STM32F10x_StdPeriph_Driver/src/stm32f10x_gpio.c ****   *(__IO uint32_t *) EVCR_EVOE_BB = (uint32_t)NewState;
 938              		.loc 1 488 0
 939 0420 024A     		ldr	r2, .L48	@ D.6748,
 940 0422 9DF80730 		ldrb	r3, [sp, #7]	@ zero_extendqisi2	@ D.6749, NewState
 941 0426 1360     		str	r3, [r2]	@ D.6749, *_1
 489:../../STM32F10x_StdPeriph_Lib_V3.5.0/Libraries/STM32F10x_StdPeriph_Driver/src/stm32f10x_gpio.c **** }
 942              		.loc 1 489 0
 943 0428 02B0     		add	sp, sp, #8	@,,
 944              	.LCFI29:
 945              		.cfi_def_cfa_offset 0
 946              		@ sp needed	@
 947 042a 7047     		bx	lr	@
 948              	.L49:
 949              		.align	2
 950              	.L48:
 951 042c 1C002042 		.word	1109393436
 952              		.cfi_endproc
 953              	.LFE43:
 954              		.size	GPIO_EventOutputCmd, .-GPIO_EventOutputCmd
 955              		.align	2
 956              		.global	GPIO_PinRemapConfig
 957              		.thumb
 958              		.thumb_func
 959              		.type	GPIO_PinRemapConfig, %function
 960              	GPIO_PinRemapConfig:
 961              	.LFB44:
 490:../../STM32F10x_StdPeriph_Lib_V3.5.0/Libraries/STM32F10x_StdPeriph_Driver/src/stm32f10x_gpio.c **** 
 491:../../STM32F10x_StdPeriph_Lib_V3.5.0/Libraries/STM32F10x_StdPeriph_Driver/src/stm32f10x_gpio.c **** /**
 492:../../STM32F10x_StdPeriph_Lib_V3.5.0/Libraries/STM32F10x_StdPeriph_Driver/src/stm32f10x_gpio.c ****   * @brief  Changes the mapping of the specified pin.
 493:../../STM32F10x_StdPeriph_Lib_V3.5.0/Libraries/STM32F10x_StdPeriph_Driver/src/stm32f10x_gpio.c ****   * @param  GPIO_Remap: selects the pin to remap.
 494:../../STM32F10x_StdPeriph_Lib_V3.5.0/Libraries/STM32F10x_StdPeriph_Driver/src/stm32f10x_gpio.c ****   *   This parameter can be one of the following values:
 495:../../STM32F10x_StdPeriph_Lib_V3.5.0/Libraries/STM32F10x_StdPeriph_Driver/src/stm32f10x_gpio.c ****   *     @arg GPIO_Remap_SPI1             : SPI1 Alternate Function mapping
 496:../../STM32F10x_StdPeriph_Lib_V3.5.0/Libraries/STM32F10x_StdPeriph_Driver/src/stm32f10x_gpio.c ****   *     @arg GPIO_Remap_I2C1             : I2C1 Alternate Function mapping
 497:../../STM32F10x_StdPeriph_Lib_V3.5.0/Libraries/STM32F10x_StdPeriph_Driver/src/stm32f10x_gpio.c ****   *     @arg GPIO_Remap_USART1           : USART1 Alternate Function mapping
 498:../../STM32F10x_StdPeriph_Lib_V3.5.0/Libraries/STM32F10x_StdPeriph_Driver/src/stm32f10x_gpio.c ****   *     @arg GPIO_Remap_USART2           : USART2 Alternate Function mapping
 499:../../STM32F10x_StdPeriph_Lib_V3.5.0/Libraries/STM32F10x_StdPeriph_Driver/src/stm32f10x_gpio.c ****   *     @arg GPIO_PartialRemap_USART3    : USART3 Partial Alternate Function mapping
 500:../../STM32F10x_StdPeriph_Lib_V3.5.0/Libraries/STM32F10x_StdPeriph_Driver/src/stm32f10x_gpio.c ****   *     @arg GPIO_FullRemap_USART3       : USART3 Full Alternate Function mapping
 501:../../STM32F10x_StdPeriph_Lib_V3.5.0/Libraries/STM32F10x_StdPeriph_Driver/src/stm32f10x_gpio.c ****   *     @arg GPIO_PartialRemap_TIM1      : TIM1 Partial Alternate Function mapping
 502:../../STM32F10x_StdPeriph_Lib_V3.5.0/Libraries/STM32F10x_StdPeriph_Driver/src/stm32f10x_gpio.c ****   *     @arg GPIO_FullRemap_TIM1         : TIM1 Full Alternate Function mapping
 503:../../STM32F10x_StdPeriph_Lib_V3.5.0/Libraries/STM32F10x_StdPeriph_Driver/src/stm32f10x_gpio.c ****   *     @arg GPIO_PartialRemap1_TIM2     : TIM2 Partial1 Alternate Function mapping
 504:../../STM32F10x_StdPeriph_Lib_V3.5.0/Libraries/STM32F10x_StdPeriph_Driver/src/stm32f10x_gpio.c ****   *     @arg GPIO_PartialRemap2_TIM2     : TIM2 Partial2 Alternate Function mapping
 505:../../STM32F10x_StdPeriph_Lib_V3.5.0/Libraries/STM32F10x_StdPeriph_Driver/src/stm32f10x_gpio.c ****   *     @arg GPIO_FullRemap_TIM2         : TIM2 Full Alternate Function mapping
 506:../../STM32F10x_StdPeriph_Lib_V3.5.0/Libraries/STM32F10x_StdPeriph_Driver/src/stm32f10x_gpio.c ****   *     @arg GPIO_PartialRemap_TIM3      : TIM3 Partial Alternate Function mapping
 507:../../STM32F10x_StdPeriph_Lib_V3.5.0/Libraries/STM32F10x_StdPeriph_Driver/src/stm32f10x_gpio.c ****   *     @arg GPIO_FullRemap_TIM3         : TIM3 Full Alternate Function mapping
 508:../../STM32F10x_StdPeriph_Lib_V3.5.0/Libraries/STM32F10x_StdPeriph_Driver/src/stm32f10x_gpio.c ****   *     @arg GPIO_Remap_TIM4             : TIM4 Alternate Function mapping
 509:../../STM32F10x_StdPeriph_Lib_V3.5.0/Libraries/STM32F10x_StdPeriph_Driver/src/stm32f10x_gpio.c ****   *     @arg GPIO_Remap1_CAN1            : CAN1 Alternate Function mapping
 510:../../STM32F10x_StdPeriph_Lib_V3.5.0/Libraries/STM32F10x_StdPeriph_Driver/src/stm32f10x_gpio.c ****   *     @arg GPIO_Remap2_CAN1            : CAN1 Alternate Function mapping
 511:../../STM32F10x_StdPeriph_Lib_V3.5.0/Libraries/STM32F10x_StdPeriph_Driver/src/stm32f10x_gpio.c ****   *     @arg GPIO_Remap_PD01             : PD01 Alternate Function mapping
 512:../../STM32F10x_StdPeriph_Lib_V3.5.0/Libraries/STM32F10x_StdPeriph_Driver/src/stm32f10x_gpio.c ****   *     @arg GPIO_Remap_TIM5CH4_LSI      : LSI connected to TIM5 Channel4 input capture for calibra
 513:../../STM32F10x_StdPeriph_Lib_V3.5.0/Libraries/STM32F10x_StdPeriph_Driver/src/stm32f10x_gpio.c ****   *     @arg GPIO_Remap_ADC1_ETRGINJ     : ADC1 External Trigger Injected Conversion remapping
 514:../../STM32F10x_StdPeriph_Lib_V3.5.0/Libraries/STM32F10x_StdPeriph_Driver/src/stm32f10x_gpio.c ****   *     @arg GPIO_Remap_ADC1_ETRGREG     : ADC1 External Trigger Regular Conversion remapping
 515:../../STM32F10x_StdPeriph_Lib_V3.5.0/Libraries/STM32F10x_StdPeriph_Driver/src/stm32f10x_gpio.c ****   *     @arg GPIO_Remap_ADC2_ETRGINJ     : ADC2 External Trigger Injected Conversion remapping
 516:../../STM32F10x_StdPeriph_Lib_V3.5.0/Libraries/STM32F10x_StdPeriph_Driver/src/stm32f10x_gpio.c ****   *     @arg GPIO_Remap_ADC2_ETRGREG     : ADC2 External Trigger Regular Conversion remapping
 517:../../STM32F10x_StdPeriph_Lib_V3.5.0/Libraries/STM32F10x_StdPeriph_Driver/src/stm32f10x_gpio.c ****   *     @arg GPIO_Remap_ETH              : Ethernet remapping (only for Connectivity line devices)
ARM GAS  /tmp/ccvxPp7R.s 			page 27


 518:../../STM32F10x_StdPeriph_Lib_V3.5.0/Libraries/STM32F10x_StdPeriph_Driver/src/stm32f10x_gpio.c ****   *     @arg GPIO_Remap_CAN2             : CAN2 remapping (only for Connectivity line devices)
 519:../../STM32F10x_StdPeriph_Lib_V3.5.0/Libraries/STM32F10x_StdPeriph_Driver/src/stm32f10x_gpio.c ****   *     @arg GPIO_Remap_SWJ_NoJTRST      : Full SWJ Enabled (JTAG-DP + SW-DP) but without JTRST
 520:../../STM32F10x_StdPeriph_Lib_V3.5.0/Libraries/STM32F10x_StdPeriph_Driver/src/stm32f10x_gpio.c ****   *     @arg GPIO_Remap_SWJ_JTAGDisable  : JTAG-DP Disabled and SW-DP Enabled
 521:../../STM32F10x_StdPeriph_Lib_V3.5.0/Libraries/STM32F10x_StdPeriph_Driver/src/stm32f10x_gpio.c ****   *     @arg GPIO_Remap_SWJ_Disable      : Full SWJ Disabled (JTAG-DP + SW-DP)
 522:../../STM32F10x_StdPeriph_Lib_V3.5.0/Libraries/STM32F10x_StdPeriph_Driver/src/stm32f10x_gpio.c ****   *     @arg GPIO_Remap_SPI3             : SPI3/I2S3 Alternate Function mapping (only for Connectiv
 523:../../STM32F10x_StdPeriph_Lib_V3.5.0/Libraries/STM32F10x_StdPeriph_Driver/src/stm32f10x_gpio.c ****   *                                        When the SPI3/I2S3 is remapped using this function, the 
 524:../../STM32F10x_StdPeriph_Lib_V3.5.0/Libraries/STM32F10x_StdPeriph_Driver/src/stm32f10x_gpio.c ****   *                                        to Full SWJ Enabled (JTAG-DP + SW-DP) but without JTRST.
 525:../../STM32F10x_StdPeriph_Lib_V3.5.0/Libraries/STM32F10x_StdPeriph_Driver/src/stm32f10x_gpio.c ****   *     @arg GPIO_Remap_TIM2ITR1_PTP_SOF : Ethernet PTP output or USB OTG SOF (Start of Frame) conn
 526:../../STM32F10x_StdPeriph_Lib_V3.5.0/Libraries/STM32F10x_StdPeriph_Driver/src/stm32f10x_gpio.c ****   *                                        to TIM2 Internal Trigger 1 for calibration (only for Con
 527:../../STM32F10x_StdPeriph_Lib_V3.5.0/Libraries/STM32F10x_StdPeriph_Driver/src/stm32f10x_gpio.c ****   *                                        If the GPIO_Remap_TIM2ITR1_PTP_SOF is enabled the TIM2 I
 528:../../STM32F10x_StdPeriph_Lib_V3.5.0/Libraries/STM32F10x_StdPeriph_Driver/src/stm32f10x_gpio.c ****   *                                        Ethernet PTP output. When Reset TIM2 ITR1 is connected t
 529:../../STM32F10x_StdPeriph_Lib_V3.5.0/Libraries/STM32F10x_StdPeriph_Driver/src/stm32f10x_gpio.c ****   *     @arg GPIO_Remap_PTP_PPS          : Ethernet MAC PPS_PTS output on PB05 (only for Connectivi
 530:../../STM32F10x_StdPeriph_Lib_V3.5.0/Libraries/STM32F10x_StdPeriph_Driver/src/stm32f10x_gpio.c ****   *     @arg GPIO_Remap_TIM15            : TIM15 Alternate Function mapping (only for Value line de
 531:../../STM32F10x_StdPeriph_Lib_V3.5.0/Libraries/STM32F10x_StdPeriph_Driver/src/stm32f10x_gpio.c ****   *     @arg GPIO_Remap_TIM16            : TIM16 Alternate Function mapping (only for Value line de
 532:../../STM32F10x_StdPeriph_Lib_V3.5.0/Libraries/STM32F10x_StdPeriph_Driver/src/stm32f10x_gpio.c ****   *     @arg GPIO_Remap_TIM17            : TIM17 Alternate Function mapping (only for Value line de
 533:../../STM32F10x_StdPeriph_Lib_V3.5.0/Libraries/STM32F10x_StdPeriph_Driver/src/stm32f10x_gpio.c ****   *     @arg GPIO_Remap_CEC              : CEC Alternate Function mapping (only for Value line devi
 534:../../STM32F10x_StdPeriph_Lib_V3.5.0/Libraries/STM32F10x_StdPeriph_Driver/src/stm32f10x_gpio.c ****   *     @arg GPIO_Remap_TIM1_DMA         : TIM1 DMA requests mapping (only for Value line devices)
 535:../../STM32F10x_StdPeriph_Lib_V3.5.0/Libraries/STM32F10x_StdPeriph_Driver/src/stm32f10x_gpio.c ****   *     @arg GPIO_Remap_TIM9             : TIM9 Alternate Function mapping (only for XL-density dev
 536:../../STM32F10x_StdPeriph_Lib_V3.5.0/Libraries/STM32F10x_StdPeriph_Driver/src/stm32f10x_gpio.c ****   *     @arg GPIO_Remap_TIM10            : TIM10 Alternate Function mapping (only for XL-density de
 537:../../STM32F10x_StdPeriph_Lib_V3.5.0/Libraries/STM32F10x_StdPeriph_Driver/src/stm32f10x_gpio.c ****   *     @arg GPIO_Remap_TIM11            : TIM11 Alternate Function mapping (only for XL-density de
 538:../../STM32F10x_StdPeriph_Lib_V3.5.0/Libraries/STM32F10x_StdPeriph_Driver/src/stm32f10x_gpio.c ****   *     @arg GPIO_Remap_TIM13            : TIM13 Alternate Function mapping (only for High density 
 539:../../STM32F10x_StdPeriph_Lib_V3.5.0/Libraries/STM32F10x_StdPeriph_Driver/src/stm32f10x_gpio.c ****   *     @arg GPIO_Remap_TIM14            : TIM14 Alternate Function mapping (only for High density 
 540:../../STM32F10x_StdPeriph_Lib_V3.5.0/Libraries/STM32F10x_StdPeriph_Driver/src/stm32f10x_gpio.c ****   *     @arg GPIO_Remap_FSMC_NADV        : FSMC_NADV Alternate Function mapping (only for High dens
 541:../../STM32F10x_StdPeriph_Lib_V3.5.0/Libraries/STM32F10x_StdPeriph_Driver/src/stm32f10x_gpio.c ****   *     @arg GPIO_Remap_TIM67_DAC_DMA    : TIM6/TIM7 and DAC DMA requests remapping (only for High 
 542:../../STM32F10x_StdPeriph_Lib_V3.5.0/Libraries/STM32F10x_StdPeriph_Driver/src/stm32f10x_gpio.c ****   *     @arg GPIO_Remap_TIM12            : TIM12 Alternate Function mapping (only for High density 
 543:../../STM32F10x_StdPeriph_Lib_V3.5.0/Libraries/STM32F10x_StdPeriph_Driver/src/stm32f10x_gpio.c ****   *     @arg GPIO_Remap_MISC             : Miscellaneous Remap (DMA2 Channel5 Position and DAC Trig
 544:../../STM32F10x_StdPeriph_Lib_V3.5.0/Libraries/STM32F10x_StdPeriph_Driver/src/stm32f10x_gpio.c ****   *                                        only for High density Value line devices)     
 545:../../STM32F10x_StdPeriph_Lib_V3.5.0/Libraries/STM32F10x_StdPeriph_Driver/src/stm32f10x_gpio.c ****   * @param  NewState: new state of the port pin remapping.
 546:../../STM32F10x_StdPeriph_Lib_V3.5.0/Libraries/STM32F10x_StdPeriph_Driver/src/stm32f10x_gpio.c ****   *   This parameter can be: ENABLE or DISABLE.
 547:../../STM32F10x_StdPeriph_Lib_V3.5.0/Libraries/STM32F10x_StdPeriph_Driver/src/stm32f10x_gpio.c ****   * @retval None
 548:../../STM32F10x_StdPeriph_Lib_V3.5.0/Libraries/STM32F10x_StdPeriph_Driver/src/stm32f10x_gpio.c ****   */
 549:../../STM32F10x_StdPeriph_Lib_V3.5.0/Libraries/STM32F10x_StdPeriph_Driver/src/stm32f10x_gpio.c **** void GPIO_PinRemapConfig(uint32_t GPIO_Remap, FunctionalState NewState)
 550:../../STM32F10x_StdPeriph_Lib_V3.5.0/Libraries/STM32F10x_StdPeriph_Driver/src/stm32f10x_gpio.c **** {
 962              		.loc 1 550 0
 963              		.cfi_startproc
 964              		@ args = 0, pretend = 0, frame = 24
 965              		@ frame_needed = 0, uses_anonymous_args = 0
 966              		@ link register save eliminated.
 967 0430 86B0     		sub	sp, sp, #24	@,,
 968              	.LCFI30:
 969              		.cfi_def_cfa_offset 24
 970 0432 0190     		str	r0, [sp, #4]	@ GPIO_Remap, GPIO_Remap
 971 0434 0B46     		mov	r3, r1	@ tmp134, NewState
 972 0436 8DF80330 		strb	r3, [sp, #3]	@ tmp135, NewState
 551:../../STM32F10x_StdPeriph_Lib_V3.5.0/Libraries/STM32F10x_StdPeriph_Driver/src/stm32f10x_gpio.c ****   uint32_t tmp = 0x00, tmp1 = 0x00, tmpreg = 0x00, tmpmask = 0x00;
 973              		.loc 1 551 0
 974 043a 0023     		movs	r3, #0	@ tmp136,
 975 043c 0493     		str	r3, [sp, #16]	@ tmp136, tmp
 976 043e 0023     		movs	r3, #0	@ tmp137,
 977 0440 0393     		str	r3, [sp, #12]	@ tmp137, tmp1
 978 0442 0023     		movs	r3, #0	@ tmp138,
 979 0444 0593     		str	r3, [sp, #20]	@ tmp138, tmpreg
 980 0446 0023     		movs	r3, #0	@ tmp139,
 981 0448 0293     		str	r3, [sp, #8]	@ tmp139, tmpmask
 552:../../STM32F10x_StdPeriph_Lib_V3.5.0/Libraries/STM32F10x_StdPeriph_Driver/src/stm32f10x_gpio.c **** 
 553:../../STM32F10x_StdPeriph_Lib_V3.5.0/Libraries/STM32F10x_StdPeriph_Driver/src/stm32f10x_gpio.c ****   /* Check the parameters */
 554:../../STM32F10x_StdPeriph_Lib_V3.5.0/Libraries/STM32F10x_StdPeriph_Driver/src/stm32f10x_gpio.c ****   assert_param(IS_GPIO_REMAP(GPIO_Remap));
ARM GAS  /tmp/ccvxPp7R.s 			page 28


 555:../../STM32F10x_StdPeriph_Lib_V3.5.0/Libraries/STM32F10x_StdPeriph_Driver/src/stm32f10x_gpio.c ****   assert_param(IS_FUNCTIONAL_STATE(NewState));  
 556:../../STM32F10x_StdPeriph_Lib_V3.5.0/Libraries/STM32F10x_StdPeriph_Driver/src/stm32f10x_gpio.c ****   
 557:../../STM32F10x_StdPeriph_Lib_V3.5.0/Libraries/STM32F10x_StdPeriph_Driver/src/stm32f10x_gpio.c ****   if((GPIO_Remap & 0x80000000) == 0x80000000)
 982              		.loc 1 557 0
 983 044a 019B     		ldr	r3, [sp, #4]	@ D.6750, GPIO_Remap
 984 044c 002B     		cmp	r3, #0	@ D.6750,
 985 044e 03DA     		bge	.L51	@,
 558:../../STM32F10x_StdPeriph_Lib_V3.5.0/Libraries/STM32F10x_StdPeriph_Driver/src/stm32f10x_gpio.c ****   {
 559:../../STM32F10x_StdPeriph_Lib_V3.5.0/Libraries/STM32F10x_StdPeriph_Driver/src/stm32f10x_gpio.c ****     tmpreg = AFIO->MAPR2;
 986              		.loc 1 559 0
 987 0450 2D4B     		ldr	r3, .L59	@ D.6751,
 988 0452 DB69     		ldr	r3, [r3, #28]	@ tmp140, _10->MAPR2
 989 0454 0593     		str	r3, [sp, #20]	@ tmp140, tmpreg
 990 0456 02E0     		b	.L52	@
 991              	.L51:
 560:../../STM32F10x_StdPeriph_Lib_V3.5.0/Libraries/STM32F10x_StdPeriph_Driver/src/stm32f10x_gpio.c ****   }
 561:../../STM32F10x_StdPeriph_Lib_V3.5.0/Libraries/STM32F10x_StdPeriph_Driver/src/stm32f10x_gpio.c ****   else
 562:../../STM32F10x_StdPeriph_Lib_V3.5.0/Libraries/STM32F10x_StdPeriph_Driver/src/stm32f10x_gpio.c ****   {
 563:../../STM32F10x_StdPeriph_Lib_V3.5.0/Libraries/STM32F10x_StdPeriph_Driver/src/stm32f10x_gpio.c ****     tmpreg = AFIO->MAPR;
 992              		.loc 1 563 0
 993 0458 2B4B     		ldr	r3, .L59	@ D.6751,
 994 045a 5B68     		ldr	r3, [r3, #4]	@ tmp141, _12->MAPR
 995 045c 0593     		str	r3, [sp, #20]	@ tmp141, tmpreg
 996              	.L52:
 564:../../STM32F10x_StdPeriph_Lib_V3.5.0/Libraries/STM32F10x_StdPeriph_Driver/src/stm32f10x_gpio.c ****   }
 565:../../STM32F10x_StdPeriph_Lib_V3.5.0/Libraries/STM32F10x_StdPeriph_Driver/src/stm32f10x_gpio.c **** 
 566:../../STM32F10x_StdPeriph_Lib_V3.5.0/Libraries/STM32F10x_StdPeriph_Driver/src/stm32f10x_gpio.c ****   tmpmask = (GPIO_Remap & DBGAFR_POSITION_MASK) >> 0x10;
 997              		.loc 1 566 0
 998 045e 019B     		ldr	r3, [sp, #4]	@ tmp142, GPIO_Remap
 999 0460 03F47023 		and	r3, r3, #983040	@ D.6752, tmp142,
 1000 0464 1B0C     		lsrs	r3, r3, #16	@ tmp143, D.6752,
 1001 0466 0293     		str	r3, [sp, #8]	@ tmp143, tmpmask
 567:../../STM32F10x_StdPeriph_Lib_V3.5.0/Libraries/STM32F10x_StdPeriph_Driver/src/stm32f10x_gpio.c ****   tmp = GPIO_Remap & LSB_MASK;
 1002              		.loc 1 567 0
 1003 0468 019B     		ldr	r3, [sp, #4]	@ tmp145, GPIO_Remap
 1004 046a 9BB2     		uxth	r3, r3	@ tmp144, tmp145
 1005 046c 0493     		str	r3, [sp, #16]	@ tmp144, tmp
 568:../../STM32F10x_StdPeriph_Lib_V3.5.0/Libraries/STM32F10x_StdPeriph_Driver/src/stm32f10x_gpio.c **** 
 569:../../STM32F10x_StdPeriph_Lib_V3.5.0/Libraries/STM32F10x_StdPeriph_Driver/src/stm32f10x_gpio.c ****   if ((GPIO_Remap & (DBGAFR_LOCATION_MASK | DBGAFR_NUMBITS_MASK)) == (DBGAFR_LOCATION_MASK | DBGAFR
 1006              		.loc 1 569 0
 1007 046e 019B     		ldr	r3, [sp, #4]	@ tmp146, GPIO_Remap
 1008 0470 03F44013 		and	r3, r3, #3145728	@ D.6752, tmp146,
 1009 0474 B3F5401F 		cmp	r3, #3145728	@ D.6752,
 1010 0478 0AD1     		bne	.L53	@,
 570:../../STM32F10x_StdPeriph_Lib_V3.5.0/Libraries/STM32F10x_StdPeriph_Driver/src/stm32f10x_gpio.c ****   {
 571:../../STM32F10x_StdPeriph_Lib_V3.5.0/Libraries/STM32F10x_StdPeriph_Driver/src/stm32f10x_gpio.c ****     tmpreg &= DBGAFR_SWJCFG_MASK;
 1011              		.loc 1 571 0
 1012 047a 059B     		ldr	r3, [sp, #20]	@ tmp148, tmpreg
 1013 047c 23F07063 		bic	r3, r3, #251658240	@ tmp147, tmp148,
 1014 0480 0593     		str	r3, [sp, #20]	@ tmp147, tmpreg
 572:../../STM32F10x_StdPeriph_Lib_V3.5.0/Libraries/STM32F10x_StdPeriph_Driver/src/stm32f10x_gpio.c ****     AFIO->MAPR &= DBGAFR_SWJCFG_MASK;
 1015              		.loc 1 572 0
 1016 0482 214A     		ldr	r2, .L59	@ D.6751,
 1017 0484 204B     		ldr	r3, .L59	@ D.6751,
 1018 0486 5B68     		ldr	r3, [r3, #4]	@ D.6752, _20->MAPR
 1019 0488 23F07063 		bic	r3, r3, #251658240	@ D.6752, D.6752,
 1020 048c 5360     		str	r3, [r2, #4]	@ D.6752, _19->MAPR
ARM GAS  /tmp/ccvxPp7R.s 			page 29


 1021 048e 21E0     		b	.L54	@
 1022              	.L53:
 573:../../STM32F10x_StdPeriph_Lib_V3.5.0/Libraries/STM32F10x_StdPeriph_Driver/src/stm32f10x_gpio.c ****   }
 574:../../STM32F10x_StdPeriph_Lib_V3.5.0/Libraries/STM32F10x_StdPeriph_Driver/src/stm32f10x_gpio.c ****   else if ((GPIO_Remap & DBGAFR_NUMBITS_MASK) == DBGAFR_NUMBITS_MASK)
 1023              		.loc 1 574 0
 1024 0490 019B     		ldr	r3, [sp, #4]	@ tmp149, GPIO_Remap
 1025 0492 03F48013 		and	r3, r3, #1048576	@ D.6752, tmp149,
 1026 0496 002B     		cmp	r3, #0	@ D.6752,
 1027 0498 0ED0     		beq	.L55	@,
 575:../../STM32F10x_StdPeriph_Lib_V3.5.0/Libraries/STM32F10x_StdPeriph_Driver/src/stm32f10x_gpio.c ****   {
 576:../../STM32F10x_StdPeriph_Lib_V3.5.0/Libraries/STM32F10x_StdPeriph_Driver/src/stm32f10x_gpio.c ****     tmp1 = ((uint32_t)0x03) << tmpmask;
 1028              		.loc 1 576 0
 1029 049a 029B     		ldr	r3, [sp, #8]	@ D.6753, tmpmask
 1030 049c 0322     		movs	r2, #3	@ tmp151,
 1031 049e 02FA03F3 		lsl	r3, r2, r3	@ tmp150, tmp151, D.6753
 1032 04a2 0393     		str	r3, [sp, #12]	@ tmp150, tmp1
 577:../../STM32F10x_StdPeriph_Lib_V3.5.0/Libraries/STM32F10x_StdPeriph_Driver/src/stm32f10x_gpio.c ****     tmpreg &= ~tmp1;
 1033              		.loc 1 577 0
 1034 04a4 039B     		ldr	r3, [sp, #12]	@ tmp152, tmp1
 1035 04a6 DB43     		mvns	r3, r3	@ D.6752, tmp152
 1036 04a8 059A     		ldr	r2, [sp, #20]	@ tmp154, tmpreg
 1037 04aa 1340     		ands	r3, r3, r2	@, tmp153, D.6752, tmp154
 1038 04ac 0593     		str	r3, [sp, #20]	@ tmp153, tmpreg
 578:../../STM32F10x_StdPeriph_Lib_V3.5.0/Libraries/STM32F10x_StdPeriph_Driver/src/stm32f10x_gpio.c ****     tmpreg |= ~DBGAFR_SWJCFG_MASK;
 1039              		.loc 1 578 0
 1040 04ae 059B     		ldr	r3, [sp, #20]	@ tmp156, tmpreg
 1041 04b0 43F07063 		orr	r3, r3, #251658240	@ tmp155, tmp156,
 1042 04b4 0593     		str	r3, [sp, #20]	@ tmp155, tmpreg
 1043 04b6 0DE0     		b	.L54	@
 1044              	.L55:
 579:../../STM32F10x_StdPeriph_Lib_V3.5.0/Libraries/STM32F10x_StdPeriph_Driver/src/stm32f10x_gpio.c ****   }
 580:../../STM32F10x_StdPeriph_Lib_V3.5.0/Libraries/STM32F10x_StdPeriph_Driver/src/stm32f10x_gpio.c ****   else
 581:../../STM32F10x_StdPeriph_Lib_V3.5.0/Libraries/STM32F10x_StdPeriph_Driver/src/stm32f10x_gpio.c ****   {
 582:../../STM32F10x_StdPeriph_Lib_V3.5.0/Libraries/STM32F10x_StdPeriph_Driver/src/stm32f10x_gpio.c ****     tmpreg &= ~(tmp << ((GPIO_Remap >> 0x15)*0x10));
 1045              		.loc 1 582 0
 1046 04b8 019B     		ldr	r3, [sp, #4]	@ tmp157, GPIO_Remap
 1047 04ba 5B0D     		lsrs	r3, r3, #21	@ D.6752, tmp157,
 1048 04bc 1B01     		lsls	r3, r3, #4	@ D.6752, D.6752,
 1049 04be 1A46     		mov	r2, r3	@ D.6753, D.6752
 1050 04c0 049B     		ldr	r3, [sp, #16]	@ tmp158, tmp
 1051 04c2 9340     		lsls	r3, r3, r2	@ D.6752, tmp158, D.6753
 1052 04c4 DB43     		mvns	r3, r3	@ D.6752, D.6752
 1053 04c6 059A     		ldr	r2, [sp, #20]	@ tmp160, tmpreg
 1054 04c8 1340     		ands	r3, r3, r2	@, tmp159, D.6752, tmp160
 1055 04ca 0593     		str	r3, [sp, #20]	@ tmp159, tmpreg
 583:../../STM32F10x_StdPeriph_Lib_V3.5.0/Libraries/STM32F10x_StdPeriph_Driver/src/stm32f10x_gpio.c ****     tmpreg |= ~DBGAFR_SWJCFG_MASK;
 1056              		.loc 1 583 0
 1057 04cc 059B     		ldr	r3, [sp, #20]	@ tmp162, tmpreg
 1058 04ce 43F07063 		orr	r3, r3, #251658240	@ tmp161, tmp162,
 1059 04d2 0593     		str	r3, [sp, #20]	@ tmp161, tmpreg
 1060              	.L54:
 584:../../STM32F10x_StdPeriph_Lib_V3.5.0/Libraries/STM32F10x_StdPeriph_Driver/src/stm32f10x_gpio.c ****   }
 585:../../STM32F10x_StdPeriph_Lib_V3.5.0/Libraries/STM32F10x_StdPeriph_Driver/src/stm32f10x_gpio.c **** 
 586:../../STM32F10x_StdPeriph_Lib_V3.5.0/Libraries/STM32F10x_StdPeriph_Driver/src/stm32f10x_gpio.c ****   if (NewState != DISABLE)
 1061              		.loc 1 586 0
 1062 04d4 9DF80330 		ldrb	r3, [sp, #3]	@ zero_extendqisi2	@ tmp163, NewState
 1063 04d8 002B     		cmp	r3, #0	@ tmp163,
ARM GAS  /tmp/ccvxPp7R.s 			page 30


 1064 04da 08D0     		beq	.L56	@,
 587:../../STM32F10x_StdPeriph_Lib_V3.5.0/Libraries/STM32F10x_StdPeriph_Driver/src/stm32f10x_gpio.c ****   {
 588:../../STM32F10x_StdPeriph_Lib_V3.5.0/Libraries/STM32F10x_StdPeriph_Driver/src/stm32f10x_gpio.c ****     tmpreg |= (tmp << ((GPIO_Remap >> 0x15)*0x10));
 1065              		.loc 1 588 0
 1066 04dc 019B     		ldr	r3, [sp, #4]	@ tmp164, GPIO_Remap
 1067 04de 5B0D     		lsrs	r3, r3, #21	@ D.6752, tmp164,
 1068 04e0 1B01     		lsls	r3, r3, #4	@ D.6752, D.6752,
 1069 04e2 1A46     		mov	r2, r3	@ D.6753, D.6752
 1070 04e4 049B     		ldr	r3, [sp, #16]	@ tmp165, tmp
 1071 04e6 9340     		lsls	r3, r3, r2	@ D.6752, tmp165, D.6753
 1072 04e8 059A     		ldr	r2, [sp, #20]	@ tmp167, tmpreg
 1073 04ea 1343     		orrs	r3, r3, r2	@, tmp166, D.6752, tmp167
 1074 04ec 0593     		str	r3, [sp, #20]	@ tmp166, tmpreg
 1075              	.L56:
 589:../../STM32F10x_StdPeriph_Lib_V3.5.0/Libraries/STM32F10x_StdPeriph_Driver/src/stm32f10x_gpio.c ****   }
 590:../../STM32F10x_StdPeriph_Lib_V3.5.0/Libraries/STM32F10x_StdPeriph_Driver/src/stm32f10x_gpio.c **** 
 591:../../STM32F10x_StdPeriph_Lib_V3.5.0/Libraries/STM32F10x_StdPeriph_Driver/src/stm32f10x_gpio.c ****   if((GPIO_Remap & 0x80000000) == 0x80000000)
 1076              		.loc 1 591 0
 1077 04ee 019B     		ldr	r3, [sp, #4]	@ D.6750, GPIO_Remap
 1078 04f0 002B     		cmp	r3, #0	@ D.6750,
 1079 04f2 03DA     		bge	.L57	@,
 592:../../STM32F10x_StdPeriph_Lib_V3.5.0/Libraries/STM32F10x_StdPeriph_Driver/src/stm32f10x_gpio.c ****   {
 593:../../STM32F10x_StdPeriph_Lib_V3.5.0/Libraries/STM32F10x_StdPeriph_Driver/src/stm32f10x_gpio.c ****     AFIO->MAPR2 = tmpreg;
 1080              		.loc 1 593 0
 1081 04f4 044A     		ldr	r2, .L59	@ D.6751,
 1082 04f6 059B     		ldr	r3, [sp, #20]	@ tmp168, tmpreg
 1083 04f8 D361     		str	r3, [r2, #28]	@ tmp168, _43->MAPR2
 1084 04fa 02E0     		b	.L50	@
 1085              	.L57:
 594:../../STM32F10x_StdPeriph_Lib_V3.5.0/Libraries/STM32F10x_StdPeriph_Driver/src/stm32f10x_gpio.c ****   }
 595:../../STM32F10x_StdPeriph_Lib_V3.5.0/Libraries/STM32F10x_StdPeriph_Driver/src/stm32f10x_gpio.c ****   else
 596:../../STM32F10x_StdPeriph_Lib_V3.5.0/Libraries/STM32F10x_StdPeriph_Driver/src/stm32f10x_gpio.c ****   {
 597:../../STM32F10x_StdPeriph_Lib_V3.5.0/Libraries/STM32F10x_StdPeriph_Driver/src/stm32f10x_gpio.c ****     AFIO->MAPR = tmpreg;
 1086              		.loc 1 597 0
 1087 04fc 024A     		ldr	r2, .L59	@ D.6751,
 1088 04fe 059B     		ldr	r3, [sp, #20]	@ tmp169, tmpreg
 1089 0500 5360     		str	r3, [r2, #4]	@ tmp169, _44->MAPR
 1090              	.L50:
 598:../../STM32F10x_StdPeriph_Lib_V3.5.0/Libraries/STM32F10x_StdPeriph_Driver/src/stm32f10x_gpio.c ****   }  
 599:../../STM32F10x_StdPeriph_Lib_V3.5.0/Libraries/STM32F10x_StdPeriph_Driver/src/stm32f10x_gpio.c **** }
 1091              		.loc 1 599 0
 1092 0502 06B0     		add	sp, sp, #24	@,,
 1093              	.LCFI31:
 1094              		.cfi_def_cfa_offset 0
 1095              		@ sp needed	@
 1096 0504 7047     		bx	lr	@
 1097              	.L60:
 1098 0506 00BF     		.align	2
 1099              	.L59:
 1100 0508 00000140 		.word	1073807360
 1101              		.cfi_endproc
 1102              	.LFE44:
 1103              		.size	GPIO_PinRemapConfig, .-GPIO_PinRemapConfig
 1104              		.align	2
 1105              		.global	GPIO_EXTILineConfig
 1106              		.thumb
 1107              		.thumb_func
ARM GAS  /tmp/ccvxPp7R.s 			page 31


 1108              		.type	GPIO_EXTILineConfig, %function
 1109              	GPIO_EXTILineConfig:
 1110              	.LFB45:
 600:../../STM32F10x_StdPeriph_Lib_V3.5.0/Libraries/STM32F10x_StdPeriph_Driver/src/stm32f10x_gpio.c **** 
 601:../../STM32F10x_StdPeriph_Lib_V3.5.0/Libraries/STM32F10x_StdPeriph_Driver/src/stm32f10x_gpio.c **** /**
 602:../../STM32F10x_StdPeriph_Lib_V3.5.0/Libraries/STM32F10x_StdPeriph_Driver/src/stm32f10x_gpio.c ****   * @brief  Selects the GPIO pin used as EXTI Line.
 603:../../STM32F10x_StdPeriph_Lib_V3.5.0/Libraries/STM32F10x_StdPeriph_Driver/src/stm32f10x_gpio.c ****   * @param  GPIO_PortSource: selects the GPIO port to be used as source for EXTI lines.
 604:../../STM32F10x_StdPeriph_Lib_V3.5.0/Libraries/STM32F10x_StdPeriph_Driver/src/stm32f10x_gpio.c ****   *   This parameter can be GPIO_PortSourceGPIOx where x can be (A..G).
 605:../../STM32F10x_StdPeriph_Lib_V3.5.0/Libraries/STM32F10x_StdPeriph_Driver/src/stm32f10x_gpio.c ****   * @param  GPIO_PinSource: specifies the EXTI line to be configured.
 606:../../STM32F10x_StdPeriph_Lib_V3.5.0/Libraries/STM32F10x_StdPeriph_Driver/src/stm32f10x_gpio.c ****   *   This parameter can be GPIO_PinSourcex where x can be (0..15).
 607:../../STM32F10x_StdPeriph_Lib_V3.5.0/Libraries/STM32F10x_StdPeriph_Driver/src/stm32f10x_gpio.c ****   * @retval None
 608:../../STM32F10x_StdPeriph_Lib_V3.5.0/Libraries/STM32F10x_StdPeriph_Driver/src/stm32f10x_gpio.c ****   */
 609:../../STM32F10x_StdPeriph_Lib_V3.5.0/Libraries/STM32F10x_StdPeriph_Driver/src/stm32f10x_gpio.c **** void GPIO_EXTILineConfig(uint8_t GPIO_PortSource, uint8_t GPIO_PinSource)
 610:../../STM32F10x_StdPeriph_Lib_V3.5.0/Libraries/STM32F10x_StdPeriph_Driver/src/stm32f10x_gpio.c **** {
 1111              		.loc 1 610 0
 1112              		.cfi_startproc
 1113              		@ args = 0, pretend = 0, frame = 16
 1114              		@ frame_needed = 0, uses_anonymous_args = 0
 1115              		@ link register save eliminated.
 1116 050c 10B4     		push	{r4}	@
 1117              	.LCFI32:
 1118              		.cfi_def_cfa_offset 4
 1119              		.cfi_offset 4, -4
 1120 050e 85B0     		sub	sp, sp, #20	@,,
 1121              	.LCFI33:
 1122              		.cfi_def_cfa_offset 24
 1123 0510 0346     		mov	r3, r0	@ tmp135, GPIO_PortSource
 1124 0512 0A46     		mov	r2, r1	@ tmp137, GPIO_PinSource
 1125 0514 8DF80730 		strb	r3, [sp, #7]	@ tmp136, GPIO_PortSource
 1126 0518 1346     		mov	r3, r2	@ tmp138, tmp137
 1127 051a 8DF80630 		strb	r3, [sp, #6]	@ tmp138, GPIO_PinSource
 611:../../STM32F10x_StdPeriph_Lib_V3.5.0/Libraries/STM32F10x_StdPeriph_Driver/src/stm32f10x_gpio.c ****   uint32_t tmp = 0x00;
 1128              		.loc 1 611 0
 1129 051e 0023     		movs	r3, #0	@ tmp139,
 1130 0520 0393     		str	r3, [sp, #12]	@ tmp139, tmp
 612:../../STM32F10x_StdPeriph_Lib_V3.5.0/Libraries/STM32F10x_StdPeriph_Driver/src/stm32f10x_gpio.c ****   /* Check the parameters */
 613:../../STM32F10x_StdPeriph_Lib_V3.5.0/Libraries/STM32F10x_StdPeriph_Driver/src/stm32f10x_gpio.c ****   assert_param(IS_GPIO_EXTI_PORT_SOURCE(GPIO_PortSource));
 614:../../STM32F10x_StdPeriph_Lib_V3.5.0/Libraries/STM32F10x_StdPeriph_Driver/src/stm32f10x_gpio.c ****   assert_param(IS_GPIO_PIN_SOURCE(GPIO_PinSource));
 615:../../STM32F10x_StdPeriph_Lib_V3.5.0/Libraries/STM32F10x_StdPeriph_Driver/src/stm32f10x_gpio.c ****   
 616:../../STM32F10x_StdPeriph_Lib_V3.5.0/Libraries/STM32F10x_StdPeriph_Driver/src/stm32f10x_gpio.c ****   tmp = ((uint32_t)0x0F) << (0x04 * (GPIO_PinSource & (uint8_t)0x03));
 1131              		.loc 1 616 0
 1132 0522 9DF80630 		ldrb	r3, [sp, #6]	@ zero_extendqisi2	@ D.6754, GPIO_PinSource
 1133 0526 03F00303 		and	r3, r3, #3	@ D.6754, D.6754,
 1134 052a 9B00     		lsls	r3, r3, #2	@ D.6754, D.6754,
 1135 052c 0F22     		movs	r2, #15	@ tmp141,
 1136 052e 02FA03F3 		lsl	r3, r2, r3	@ tmp140, tmp141, D.6754
 1137 0532 0393     		str	r3, [sp, #12]	@ tmp140, tmp
 617:../../STM32F10x_StdPeriph_Lib_V3.5.0/Libraries/STM32F10x_StdPeriph_Driver/src/stm32f10x_gpio.c ****   AFIO->EXTICR[GPIO_PinSource >> 0x02] &= ~tmp;
 1138              		.loc 1 617 0
 1139 0534 1949     		ldr	r1, .L62	@ D.6755,
 1140 0536 9DF80630 		ldrb	r3, [sp, #6]	@ zero_extendqisi2	@ tmp142, GPIO_PinSource
 1141 053a 9B08     		lsrs	r3, r3, #2	@ tmp143, tmp142,
 1142 053c DBB2     		uxtb	r3, r3	@ D.6756, tmp143
 1143 053e 1846     		mov	r0, r3	@ D.6754, D.6756
 1144 0540 164A     		ldr	r2, .L62	@ D.6755,
 1145 0542 9DF80630 		ldrb	r3, [sp, #6]	@ zero_extendqisi2	@ tmp144, GPIO_PinSource
 1146 0546 9B08     		lsrs	r3, r3, #2	@ tmp145, tmp144,
ARM GAS  /tmp/ccvxPp7R.s 			page 32


 1147 0548 DBB2     		uxtb	r3, r3	@ D.6756, tmp145
 1148 054a 0233     		adds	r3, r3, #2	@ tmp146, D.6754,
 1149 054c 52F82320 		ldr	r2, [r2, r3, lsl #2]	@ D.6757, _10->EXTICR
 1150 0550 039B     		ldr	r3, [sp, #12]	@ tmp147, tmp
 1151 0552 DB43     		mvns	r3, r3	@ D.6757, tmp147
 1152 0554 1A40     		ands	r2, r2, r3	@, D.6757, D.6757, D.6757
 1153 0556 831C     		adds	r3, r0, #2	@ tmp148, D.6754,
 1154 0558 41F82320 		str	r2, [r1, r3, lsl #2]	@ D.6757, _7->EXTICR
 618:../../STM32F10x_StdPeriph_Lib_V3.5.0/Libraries/STM32F10x_StdPeriph_Driver/src/stm32f10x_gpio.c ****   AFIO->EXTICR[GPIO_PinSource >> 0x02] |= (((uint32_t)GPIO_PortSource) << (0x04 * (GPIO_PinSource &
 1155              		.loc 1 618 0
 1156 055c 0F48     		ldr	r0, .L62	@ D.6755,
 1157 055e 9DF80630 		ldrb	r3, [sp, #6]	@ zero_extendqisi2	@ tmp149, GPIO_PinSource
 1158 0562 9B08     		lsrs	r3, r3, #2	@ tmp150, tmp149,
 1159 0564 DBB2     		uxtb	r3, r3	@ D.6756, tmp150
 1160 0566 1C46     		mov	r4, r3	@ D.6754, D.6756
 1161 0568 0C4A     		ldr	r2, .L62	@ D.6755,
 1162 056a 9DF80630 		ldrb	r3, [sp, #6]	@ zero_extendqisi2	@ tmp151, GPIO_PinSource
 1163 056e 9B08     		lsrs	r3, r3, #2	@ tmp152, tmp151,
 1164 0570 DBB2     		uxtb	r3, r3	@ D.6756, tmp152
 1165 0572 0233     		adds	r3, r3, #2	@ tmp153, D.6754,
 1166 0574 52F82320 		ldr	r2, [r2, r3, lsl #2]	@ D.6757, _19->EXTICR
 1167 0578 9DF80710 		ldrb	r1, [sp, #7]	@ zero_extendqisi2	@ D.6757, GPIO_PortSource
 1168 057c 9DF80630 		ldrb	r3, [sp, #6]	@ zero_extendqisi2	@ D.6754, GPIO_PinSource
 1169 0580 03F00303 		and	r3, r3, #3	@ D.6754, D.6754,
 1170 0584 9B00     		lsls	r3, r3, #2	@ D.6754, D.6754,
 1171 0586 01FA03F3 		lsl	r3, r1, r3	@ D.6757, D.6757, D.6754
 1172 058a 1A43     		orrs	r2, r2, r3	@, D.6757, D.6757, D.6757
 1173 058c A31C     		adds	r3, r4, #2	@ tmp154, D.6754,
 1174 058e 40F82320 		str	r2, [r0, r3, lsl #2]	@ D.6757, _16->EXTICR
 619:../../STM32F10x_StdPeriph_Lib_V3.5.0/Libraries/STM32F10x_StdPeriph_Driver/src/stm32f10x_gpio.c **** }
 1175              		.loc 1 619 0
 1176 0592 05B0     		add	sp, sp, #20	@,,
 1177              	.LCFI34:
 1178              		.cfi_def_cfa_offset 4
 1179              		@ sp needed	@
 1180 0594 5DF8044B 		ldr	r4, [sp], #4	@,
 1181              	.LCFI35:
 1182              		.cfi_restore 4
 1183              		.cfi_def_cfa_offset 0
 1184 0598 7047     		bx	lr	@
 1185              	.L63:
 1186 059a 00BF     		.align	2
 1187              	.L62:
 1188 059c 00000140 		.word	1073807360
 1189              		.cfi_endproc
 1190              	.LFE45:
 1191              		.size	GPIO_EXTILineConfig, .-GPIO_EXTILineConfig
 1192              		.align	2
 1193              		.global	GPIO_ETH_MediaInterfaceConfig
 1194              		.thumb
 1195              		.thumb_func
 1196              		.type	GPIO_ETH_MediaInterfaceConfig, %function
 1197              	GPIO_ETH_MediaInterfaceConfig:
 1198              	.LFB46:
 620:../../STM32F10x_StdPeriph_Lib_V3.5.0/Libraries/STM32F10x_StdPeriph_Driver/src/stm32f10x_gpio.c **** 
 621:../../STM32F10x_StdPeriph_Lib_V3.5.0/Libraries/STM32F10x_StdPeriph_Driver/src/stm32f10x_gpio.c **** /**
 622:../../STM32F10x_StdPeriph_Lib_V3.5.0/Libraries/STM32F10x_StdPeriph_Driver/src/stm32f10x_gpio.c ****   * @brief  Selects the Ethernet media interface.
ARM GAS  /tmp/ccvxPp7R.s 			page 33


 623:../../STM32F10x_StdPeriph_Lib_V3.5.0/Libraries/STM32F10x_StdPeriph_Driver/src/stm32f10x_gpio.c ****   * @note   This function applies only to STM32 Connectivity line devices.  
 624:../../STM32F10x_StdPeriph_Lib_V3.5.0/Libraries/STM32F10x_StdPeriph_Driver/src/stm32f10x_gpio.c ****   * @param  GPIO_ETH_MediaInterface: specifies the Media Interface mode.
 625:../../STM32F10x_StdPeriph_Lib_V3.5.0/Libraries/STM32F10x_StdPeriph_Driver/src/stm32f10x_gpio.c ****   *   This parameter can be one of the following values:
 626:../../STM32F10x_StdPeriph_Lib_V3.5.0/Libraries/STM32F10x_StdPeriph_Driver/src/stm32f10x_gpio.c ****   *     @arg GPIO_ETH_MediaInterface_MII: MII mode
 627:../../STM32F10x_StdPeriph_Lib_V3.5.0/Libraries/STM32F10x_StdPeriph_Driver/src/stm32f10x_gpio.c ****   *     @arg GPIO_ETH_MediaInterface_RMII: RMII mode    
 628:../../STM32F10x_StdPeriph_Lib_V3.5.0/Libraries/STM32F10x_StdPeriph_Driver/src/stm32f10x_gpio.c ****   * @retval None
 629:../../STM32F10x_StdPeriph_Lib_V3.5.0/Libraries/STM32F10x_StdPeriph_Driver/src/stm32f10x_gpio.c ****   */
 630:../../STM32F10x_StdPeriph_Lib_V3.5.0/Libraries/STM32F10x_StdPeriph_Driver/src/stm32f10x_gpio.c **** void GPIO_ETH_MediaInterfaceConfig(uint32_t GPIO_ETH_MediaInterface) 
 631:../../STM32F10x_StdPeriph_Lib_V3.5.0/Libraries/STM32F10x_StdPeriph_Driver/src/stm32f10x_gpio.c **** { 
 1199              		.loc 1 631 0
 1200              		.cfi_startproc
 1201              		@ args = 0, pretend = 0, frame = 8
 1202              		@ frame_needed = 0, uses_anonymous_args = 0
 1203              		@ link register save eliminated.
 1204 05a0 82B0     		sub	sp, sp, #8	@,,
 1205              	.LCFI36:
 1206              		.cfi_def_cfa_offset 8
 1207 05a2 0190     		str	r0, [sp, #4]	@ GPIO_ETH_MediaInterface, GPIO_ETH_MediaInterface
 632:../../STM32F10x_StdPeriph_Lib_V3.5.0/Libraries/STM32F10x_StdPeriph_Driver/src/stm32f10x_gpio.c ****   assert_param(IS_GPIO_ETH_MEDIA_INTERFACE(GPIO_ETH_MediaInterface)); 
 633:../../STM32F10x_StdPeriph_Lib_V3.5.0/Libraries/STM32F10x_StdPeriph_Driver/src/stm32f10x_gpio.c **** 
 634:../../STM32F10x_StdPeriph_Lib_V3.5.0/Libraries/STM32F10x_StdPeriph_Driver/src/stm32f10x_gpio.c ****   /* Configure MII_RMII selection bit */ 
 635:../../STM32F10x_StdPeriph_Lib_V3.5.0/Libraries/STM32F10x_StdPeriph_Driver/src/stm32f10x_gpio.c ****   *(__IO uint32_t *) MAPR_MII_RMII_SEL_BB = GPIO_ETH_MediaInterface; 
 1208              		.loc 1 635 0
 1209 05a4 024A     		ldr	r2, .L65	@ D.6758,
 1210 05a6 019B     		ldr	r3, [sp, #4]	@ tmp111, GPIO_ETH_MediaInterface
 1211 05a8 1360     		str	r3, [r2]	@ tmp111, *_1
 636:../../STM32F10x_StdPeriph_Lib_V3.5.0/Libraries/STM32F10x_StdPeriph_Driver/src/stm32f10x_gpio.c **** }
 1212              		.loc 1 636 0
 1213 05aa 02B0     		add	sp, sp, #8	@,,
 1214              	.LCFI37:
 1215              		.cfi_def_cfa_offset 0
 1216              		@ sp needed	@
 1217 05ac 7047     		bx	lr	@
 1218              	.L66:
 1219 05ae 00BF     		.align	2
 1220              	.L65:
 1221 05b0 DC002042 		.word	1109393628
 1222              		.cfi_endproc
 1223              	.LFE46:
 1224              		.size	GPIO_ETH_MediaInterfaceConfig, .-GPIO_ETH_MediaInterfaceConfig
 1225              	.Letext0:
 1226              		.file 2 "/usr/include/newlib/machine/_default_types.h"
 1227              		.file 3 "/usr/include/newlib/sys/_stdint.h"
 1228              		.file 4 "../../STM32F10x_StdPeriph_Lib_V3.5.0/Libraries/CMSIS/CM3/DeviceSupport/ST/STM32F10x/stm32
 1229              		.file 5 "../../STM32F10x_StdPeriph_Lib_V3.5.0/Libraries/STM32F10x_StdPeriph_Driver/inc/stm32f10x_g
 1230              		.file 6 "../../STM32F10x_StdPeriph_Lib_V3.5.0/Libraries/CMSIS/CM3/CoreSupport/core_cm3.h"
 1231              		.section	.debug_info,"",%progbits
 1232              	.Ldebug_info0:
 1233 0000 4B070000 		.4byte	0x74b
 1234 0004 0200     		.2byte	0x2
 1235 0006 00000000 		.4byte	.Ldebug_abbrev0
 1236 000a 04       		.byte	0x4
 1237 000b 01       		.uleb128 0x1
 1238 000c B7010000 		.4byte	.LASF82
 1239 0010 01       		.byte	0x1
 1240 0011 CD020000 		.4byte	.LASF83
 1241 0015 BD000000 		.4byte	.LASF84
ARM GAS  /tmp/ccvxPp7R.s 			page 34


 1242 0019 00000000 		.4byte	.Ltext0
 1243 001d B4050000 		.4byte	.Letext0
 1244 0021 00000000 		.4byte	.Ldebug_line0
 1245 0025 02       		.uleb128 0x2
 1246 0026 01       		.byte	0x1
 1247 0027 06       		.byte	0x6
 1248 0028 52010000 		.4byte	.LASF0
 1249 002c 03       		.uleb128 0x3
 1250 002d AD010000 		.4byte	.LASF3
 1251 0031 02       		.byte	0x2
 1252 0032 1D       		.byte	0x1d
 1253 0033 37000000 		.4byte	0x37
 1254 0037 02       		.uleb128 0x2
 1255 0038 01       		.byte	0x1
 1256 0039 08       		.byte	0x8
 1257 003a 55020000 		.4byte	.LASF1
 1258 003e 02       		.uleb128 0x2
 1259 003f 02       		.byte	0x2
 1260 0040 05       		.byte	0x5
 1261 0041 65000000 		.4byte	.LASF2
 1262 0045 03       		.uleb128 0x3
 1263 0046 B2000000 		.4byte	.LASF4
 1264 004a 02       		.byte	0x2
 1265 004b 2B       		.byte	0x2b
 1266 004c 50000000 		.4byte	0x50
 1267 0050 02       		.uleb128 0x2
 1268 0051 02       		.byte	0x2
 1269 0052 07       		.byte	0x7
 1270 0053 9C030000 		.4byte	.LASF5
 1271 0057 02       		.uleb128 0x2
 1272 0058 04       		.byte	0x4
 1273 0059 05       		.byte	0x5
 1274 005a 7C010000 		.4byte	.LASF6
 1275 005e 03       		.uleb128 0x3
 1276 005f A7000000 		.4byte	.LASF7
 1277 0063 02       		.byte	0x2
 1278 0064 41       		.byte	0x41
 1279 0065 69000000 		.4byte	0x69
 1280 0069 02       		.uleb128 0x2
 1281 006a 04       		.byte	0x4
 1282 006b 07       		.byte	0x7
 1283 006c 14040000 		.4byte	.LASF8
 1284 0070 02       		.uleb128 0x2
 1285 0071 08       		.byte	0x8
 1286 0072 05       		.byte	0x5
 1287 0073 6E010000 		.4byte	.LASF9
 1288 0077 02       		.uleb128 0x2
 1289 0078 08       		.byte	0x8
 1290 0079 07       		.byte	0x7
 1291 007a 87020000 		.4byte	.LASF10
 1292 007e 04       		.uleb128 0x4
 1293 007f 04       		.byte	0x4
 1294 0080 05       		.byte	0x5
 1295 0081 696E7400 		.ascii	"int\000"
 1296 0085 02       		.uleb128 0x2
 1297 0086 04       		.byte	0x4
 1298 0087 07       		.byte	0x7
ARM GAS  /tmp/ccvxPp7R.s 			page 35


 1299 0088 B7020000 		.4byte	.LASF11
 1300 008c 03       		.uleb128 0x3
 1301 008d 22010000 		.4byte	.LASF12
 1302 0091 03       		.byte	0x3
 1303 0092 14       		.byte	0x14
 1304 0093 2C000000 		.4byte	0x2c
 1305 0097 03       		.uleb128 0x3
 1306 0098 C4020000 		.4byte	.LASF13
 1307 009c 03       		.byte	0x3
 1308 009d 1A       		.byte	0x1a
 1309 009e 45000000 		.4byte	0x45
 1310 00a2 03       		.uleb128 0x3
 1311 00a3 9E020000 		.4byte	.LASF14
 1312 00a7 03       		.byte	0x3
 1313 00a8 20       		.byte	0x20
 1314 00a9 5E000000 		.4byte	0x5e
 1315 00ad 02       		.uleb128 0x2
 1316 00ae 04       		.byte	0x4
 1317 00af 07       		.byte	0x7
 1318 00b0 7F000000 		.4byte	.LASF15
 1319 00b4 05       		.uleb128 0x5
 1320 00b5 A2000000 		.4byte	0xa2
 1321 00b9 06       		.uleb128 0x6
 1322 00ba A2000000 		.4byte	0xa2
 1323 00be C9000000 		.4byte	0xc9
 1324 00c2 07       		.uleb128 0x7
 1325 00c3 AD000000 		.4byte	0xad
 1326 00c7 03       		.byte	0x3
 1327 00c8 00       		.byte	0
 1328 00c9 08       		.uleb128 0x8
 1329 00ca 753800   		.ascii	"u8\000"
 1330 00cd 04       		.byte	0x4
 1331 00ce F901     		.2byte	0x1f9
 1332 00d0 8C000000 		.4byte	0x8c
 1333 00d4 09       		.uleb128 0x9
 1334 00d5 01       		.byte	0x1
 1335 00d6 04       		.byte	0x4
 1336 00d7 0902     		.2byte	0x209
 1337 00d9 EA000000 		.4byte	0xea
 1338 00dd 0A       		.uleb128 0xa
 1339 00de 4A010000 		.4byte	.LASF16
 1340 00e2 00       		.sleb128 0
 1341 00e3 0A       		.uleb128 0xa
 1342 00e4 06010000 		.4byte	.LASF17
 1343 00e8 01       		.sleb128 1
 1344 00e9 00       		.byte	0
 1345 00ea 0B       		.uleb128 0xb
 1346 00eb 4F040000 		.4byte	.LASF18
 1347 00ef 04       		.byte	0x4
 1348 00f0 0902     		.2byte	0x209
 1349 00f2 D4000000 		.4byte	0xd4
 1350 00f6 0C       		.uleb128 0xc
 1351 00f7 1C       		.byte	0x1c
 1352 00f8 04       		.byte	0x4
 1353 00f9 E903     		.2byte	0x3e9
 1354 00fb 69010000 		.4byte	0x169
 1355 00ff 0D       		.uleb128 0xd
ARM GAS  /tmp/ccvxPp7R.s 			page 36


 1356 0100 43524C00 		.ascii	"CRL\000"
 1357 0104 04       		.byte	0x4
 1358 0105 EB03     		.2byte	0x3eb
 1359 0107 B4000000 		.4byte	0xb4
 1360 010b 02       		.byte	0x2
 1361 010c 23       		.byte	0x23
 1362 010d 00       		.uleb128 0
 1363 010e 0D       		.uleb128 0xd
 1364 010f 43524800 		.ascii	"CRH\000"
 1365 0113 04       		.byte	0x4
 1366 0114 EC03     		.2byte	0x3ec
 1367 0116 B4000000 		.4byte	0xb4
 1368 011a 02       		.byte	0x2
 1369 011b 23       		.byte	0x23
 1370 011c 04       		.uleb128 0x4
 1371 011d 0D       		.uleb128 0xd
 1372 011e 49445200 		.ascii	"IDR\000"
 1373 0122 04       		.byte	0x4
 1374 0123 ED03     		.2byte	0x3ed
 1375 0125 B4000000 		.4byte	0xb4
 1376 0129 02       		.byte	0x2
 1377 012a 23       		.byte	0x23
 1378 012b 08       		.uleb128 0x8
 1379 012c 0D       		.uleb128 0xd
 1380 012d 4F445200 		.ascii	"ODR\000"
 1381 0131 04       		.byte	0x4
 1382 0132 EE03     		.2byte	0x3ee
 1383 0134 B4000000 		.4byte	0xb4
 1384 0138 02       		.byte	0x2
 1385 0139 23       		.byte	0x23
 1386 013a 0C       		.uleb128 0xc
 1387 013b 0E       		.uleb128 0xe
 1388 013c A8010000 		.4byte	.LASF19
 1389 0140 04       		.byte	0x4
 1390 0141 EF03     		.2byte	0x3ef
 1391 0143 B4000000 		.4byte	0xb4
 1392 0147 02       		.byte	0x2
 1393 0148 23       		.byte	0x23
 1394 0149 10       		.uleb128 0x10
 1395 014a 0D       		.uleb128 0xd
 1396 014b 42525200 		.ascii	"BRR\000"
 1397 014f 04       		.byte	0x4
 1398 0150 F003     		.2byte	0x3f0
 1399 0152 B4000000 		.4byte	0xb4
 1400 0156 02       		.byte	0x2
 1401 0157 23       		.byte	0x23
 1402 0158 14       		.uleb128 0x14
 1403 0159 0E       		.uleb128 0xe
 1404 015a 4C030000 		.4byte	.LASF20
 1405 015e 04       		.byte	0x4
 1406 015f F103     		.2byte	0x3f1
 1407 0161 B4000000 		.4byte	0xb4
 1408 0165 02       		.byte	0x2
 1409 0166 23       		.byte	0x23
 1410 0167 18       		.uleb128 0x18
 1411 0168 00       		.byte	0
 1412 0169 0B       		.uleb128 0xb
ARM GAS  /tmp/ccvxPp7R.s 			page 37


 1413 016a 00000000 		.4byte	.LASF21
 1414 016e 04       		.byte	0x4
 1415 016f F203     		.2byte	0x3f2
 1416 0171 F6000000 		.4byte	0xf6
 1417 0175 0C       		.uleb128 0xc
 1418 0176 20       		.byte	0x20
 1419 0177 04       		.byte	0x4
 1420 0178 F803     		.2byte	0x3f8
 1421 017a CA010000 		.4byte	0x1ca
 1422 017e 0E       		.uleb128 0xe
 1423 017f 7B040000 		.4byte	.LASF22
 1424 0183 04       		.byte	0x4
 1425 0184 FA03     		.2byte	0x3fa
 1426 0186 B4000000 		.4byte	0xb4
 1427 018a 02       		.byte	0x2
 1428 018b 23       		.byte	0x23
 1429 018c 00       		.uleb128 0
 1430 018d 0E       		.uleb128 0xe
 1431 018e 5F040000 		.4byte	.LASF23
 1432 0192 04       		.byte	0x4
 1433 0193 FB03     		.2byte	0x3fb
 1434 0195 B4000000 		.4byte	0xb4
 1435 0199 02       		.byte	0x2
 1436 019a 23       		.byte	0x23
 1437 019b 04       		.uleb128 0x4
 1438 019c 0E       		.uleb128 0xe
 1439 019d 2A010000 		.4byte	.LASF24
 1440 01a1 04       		.byte	0x4
 1441 01a2 FC03     		.2byte	0x3fc
 1442 01a4 CA010000 		.4byte	0x1ca
 1443 01a8 02       		.byte	0x2
 1444 01a9 23       		.byte	0x23
 1445 01aa 08       		.uleb128 0x8
 1446 01ab 0E       		.uleb128 0xe
 1447 01ac DE030000 		.4byte	.LASF25
 1448 01b0 04       		.byte	0x4
 1449 01b1 FD03     		.2byte	0x3fd
 1450 01b3 A2000000 		.4byte	0xa2
 1451 01b7 02       		.byte	0x2
 1452 01b8 23       		.byte	0x23
 1453 01b9 18       		.uleb128 0x18
 1454 01ba 0E       		.uleb128 0xe
 1455 01bb D8030000 		.4byte	.LASF26
 1456 01bf 04       		.byte	0x4
 1457 01c0 FE03     		.2byte	0x3fe
 1458 01c2 B4000000 		.4byte	0xb4
 1459 01c6 02       		.byte	0x2
 1460 01c7 23       		.byte	0x23
 1461 01c8 1C       		.uleb128 0x1c
 1462 01c9 00       		.byte	0
 1463 01ca 05       		.uleb128 0x5
 1464 01cb B9000000 		.4byte	0xb9
 1465 01cf 0B       		.uleb128 0xb
 1466 01d0 26040000 		.4byte	.LASF27
 1467 01d4 04       		.byte	0x4
 1468 01d5 FF03     		.2byte	0x3ff
 1469 01d7 75010000 		.4byte	0x175
ARM GAS  /tmp/ccvxPp7R.s 			page 38


 1470 01db 0F       		.uleb128 0xf
 1471 01dc 01       		.byte	0x1
 1472 01dd 05       		.byte	0x5
 1473 01de 3B       		.byte	0x3b
 1474 01df F6010000 		.4byte	0x1f6
 1475 01e3 0A       		.uleb128 0xa
 1476 01e4 2A020000 		.4byte	.LASF28
 1477 01e8 01       		.sleb128 1
 1478 01e9 0A       		.uleb128 0xa
 1479 01ea 77020000 		.4byte	.LASF29
 1480 01ee 02       		.sleb128 2
 1481 01ef 0A       		.uleb128 0xa
 1482 01f0 80040000 		.4byte	.LASF30
 1483 01f4 03       		.sleb128 3
 1484 01f5 00       		.byte	0
 1485 01f6 03       		.uleb128 0x3
 1486 01f7 3D040000 		.4byte	.LASF31
 1487 01fb 05       		.byte	0x5
 1488 01fc 3F       		.byte	0x3f
 1489 01fd DB010000 		.4byte	0x1db
 1490 0201 0F       		.uleb128 0xf
 1491 0202 01       		.byte	0x1
 1492 0203 05       		.byte	0x5
 1493 0204 48       		.byte	0x48
 1494 0205 3B020000 		.4byte	0x23b
 1495 0209 0A       		.uleb128 0xa
 1496 020a E8030000 		.4byte	.LASF32
 1497 020e 00       		.sleb128 0
 1498 020f 0A       		.uleb128 0xa
 1499 0210 DA040000 		.4byte	.LASF33
 1500 0214 04       		.sleb128 4
 1501 0215 0A       		.uleb128 0xa
 1502 0216 7B030000 		.4byte	.LASF34
 1503 021a 28       		.sleb128 40
 1504 021b 0A       		.uleb128 0xa
 1505 021c C5030000 		.4byte	.LASF35
 1506 0220 C800     		.sleb128 72
 1507 0222 0A       		.uleb128 0xa
 1508 0223 31010000 		.4byte	.LASF36
 1509 0227 14       		.sleb128 20
 1510 0228 0A       		.uleb128 0xa
 1511 0229 6A040000 		.4byte	.LASF37
 1512 022d 10       		.sleb128 16
 1513 022e 0A       		.uleb128 0xa
 1514 022f 24050000 		.4byte	.LASF38
 1515 0233 1C       		.sleb128 28
 1516 0234 0A       		.uleb128 0xa
 1517 0235 5E010000 		.4byte	.LASF39
 1518 0239 18       		.sleb128 24
 1519 023a 00       		.byte	0
 1520 023b 03       		.uleb128 0x3
 1521 023c B2040000 		.4byte	.LASF40
 1522 0240 05       		.byte	0x5
 1523 0241 50       		.byte	0x50
 1524 0242 01020000 		.4byte	0x201
 1525 0246 10       		.uleb128 0x10
 1526 0247 04       		.byte	0x4
ARM GAS  /tmp/ccvxPp7R.s 			page 39


 1527 0248 05       		.byte	0x5
 1528 0249 5B       		.byte	0x5b
 1529 024a 79020000 		.4byte	0x279
 1530 024e 11       		.uleb128 0x11
 1531 024f 14000000 		.4byte	.LASF41
 1532 0253 05       		.byte	0x5
 1533 0254 5D       		.byte	0x5d
 1534 0255 97000000 		.4byte	0x97
 1535 0259 02       		.byte	0x2
 1536 025a 23       		.byte	0x23
 1537 025b 00       		.uleb128 0
 1538 025c 11       		.uleb128 0x11
 1539 025d 0D010000 		.4byte	.LASF42
 1540 0261 05       		.byte	0x5
 1541 0262 60       		.byte	0x60
 1542 0263 F6010000 		.4byte	0x1f6
 1543 0267 02       		.byte	0x2
 1544 0268 23       		.byte	0x23
 1545 0269 02       		.uleb128 0x2
 1546 026a 11       		.uleb128 0x11
 1547 026b 34050000 		.4byte	.LASF43
 1548 026f 05       		.byte	0x5
 1549 0270 63       		.byte	0x63
 1550 0271 3B020000 		.4byte	0x23b
 1551 0275 02       		.byte	0x2
 1552 0276 23       		.byte	0x23
 1553 0277 03       		.uleb128 0x3
 1554 0278 00       		.byte	0
 1555 0279 03       		.uleb128 0x3
 1556 027a A1040000 		.4byte	.LASF44
 1557 027e 05       		.byte	0x5
 1558 027f 65       		.byte	0x65
 1559 0280 46020000 		.4byte	0x246
 1560 0284 0F       		.uleb128 0xf
 1561 0285 01       		.byte	0x1
 1562 0286 05       		.byte	0x5
 1563 0287 6D       		.byte	0x6d
 1564 0288 99020000 		.4byte	0x299
 1565 028c 0A       		.uleb128 0xa
 1566 028d 8F000000 		.4byte	.LASF45
 1567 0291 00       		.sleb128 0
 1568 0292 0A       		.uleb128 0xa
 1569 0293 1D000000 		.4byte	.LASF46
 1570 0297 01       		.sleb128 1
 1571 0298 00       		.byte	0
 1572 0299 03       		.uleb128 0x3
 1573 029a 33040000 		.4byte	.LASF47
 1574 029e 05       		.byte	0x5
 1575 029f 6F       		.byte	0x6f
 1576 02a0 84020000 		.4byte	0x284
 1577 02a4 12       		.uleb128 0x12
 1578 02a5 01       		.byte	0x1
 1579 02a6 85010000 		.4byte	.LASF48
 1580 02aa 01       		.byte	0x1
 1581 02ab 6C       		.byte	0x6c
 1582 02ac 01       		.byte	0x1
 1583 02ad 00000000 		.4byte	.LFB29
ARM GAS  /tmp/ccvxPp7R.s 			page 40


 1584 02b1 E0000000 		.4byte	.LFE29
 1585 02b5 00000000 		.4byte	.LLST0
 1586 02b9 01       		.byte	0x1
 1587 02ba CD020000 		.4byte	0x2cd
 1588 02be 13       		.uleb128 0x13
 1589 02bf 64040000 		.4byte	.LASF50
 1590 02c3 01       		.byte	0x1
 1591 02c4 6C       		.byte	0x6c
 1592 02c5 CD020000 		.4byte	0x2cd
 1593 02c9 02       		.byte	0x2
 1594 02ca 91       		.byte	0x91
 1595 02cb 74       		.sleb128 -12
 1596 02cc 00       		.byte	0
 1597 02cd 14       		.uleb128 0x14
 1598 02ce 04       		.byte	0x4
 1599 02cf 69010000 		.4byte	0x169
 1600 02d3 15       		.uleb128 0x15
 1601 02d4 01       		.byte	0x1
 1602 02d5 14050000 		.4byte	.LASF85
 1603 02d9 01       		.byte	0x1
 1604 02da 9F       		.byte	0x9f
 1605 02db 01       		.byte	0x1
 1606 02dc E0000000 		.4byte	.LFB30
 1607 02e0 F4000000 		.4byte	.LFE30
 1608 02e4 38000000 		.4byte	.LLST1
 1609 02e8 01       		.byte	0x1
 1610 02e9 16       		.uleb128 0x16
 1611 02ea 01       		.byte	0x1
 1612 02eb 18010000 		.4byte	.LASF49
 1613 02ef 01       		.byte	0x1
 1614 02f0 AD       		.byte	0xad
 1615 02f1 01       		.byte	0x1
 1616 02f2 F4000000 		.4byte	.LFB31
 1617 02f6 6A020000 		.4byte	.LFE31
 1618 02fa 58000000 		.4byte	.LLST2
 1619 02fe 01       		.byte	0x1
 1620 02ff 74030000 		.4byte	0x374
 1621 0303 13       		.uleb128 0x13
 1622 0304 64040000 		.4byte	.LASF50
 1623 0308 01       		.byte	0x1
 1624 0309 AD       		.byte	0xad
 1625 030a CD020000 		.4byte	0x2cd
 1626 030e 02       		.byte	0x2
 1627 030f 91       		.byte	0x91
 1628 0310 64       		.sleb128 -28
 1629 0311 13       		.uleb128 0x13
 1630 0312 A7020000 		.4byte	.LASF51
 1631 0316 01       		.byte	0x1
 1632 0317 AD       		.byte	0xad
 1633 0318 74030000 		.4byte	0x374
 1634 031c 02       		.byte	0x2
 1635 031d 91       		.byte	0x91
 1636 031e 60       		.sleb128 -32
 1637 031f 17       		.uleb128 0x17
 1638 0320 2C030000 		.4byte	.LASF52
 1639 0324 01       		.byte	0x1
 1640 0325 AF       		.byte	0xaf
ARM GAS  /tmp/ccvxPp7R.s 			page 41


 1641 0326 A2000000 		.4byte	0xa2
 1642 032a 02       		.byte	0x2
 1643 032b 91       		.byte	0x91
 1644 032c 7C       		.sleb128 -4
 1645 032d 17       		.uleb128 0x17
 1646 032e AF030000 		.4byte	.LASF53
 1647 0332 01       		.byte	0x1
 1648 0333 AF       		.byte	0xaf
 1649 0334 A2000000 		.4byte	0xa2
 1650 0338 02       		.byte	0x2
 1651 0339 91       		.byte	0x91
 1652 033a 70       		.sleb128 -16
 1653 033b 17       		.uleb128 0x17
 1654 033c 0D000000 		.4byte	.LASF54
 1655 0340 01       		.byte	0x1
 1656 0341 AF       		.byte	0xaf
 1657 0342 A2000000 		.4byte	0xa2
 1658 0346 02       		.byte	0x2
 1659 0347 91       		.byte	0x91
 1660 0348 78       		.sleb128 -8
 1661 0349 18       		.uleb128 0x18
 1662 034a 706F7300 		.ascii	"pos\000"
 1663 034e 01       		.byte	0x1
 1664 034f AF       		.byte	0xaf
 1665 0350 A2000000 		.4byte	0xa2
 1666 0354 02       		.byte	0x2
 1667 0355 91       		.byte	0x91
 1668 0356 6C       		.sleb128 -20
 1669 0357 17       		.uleb128 0x17
 1670 0358 3B020000 		.4byte	.LASF55
 1671 035c 01       		.byte	0x1
 1672 035d B0       		.byte	0xb0
 1673 035e A2000000 		.4byte	0xa2
 1674 0362 02       		.byte	0x2
 1675 0363 91       		.byte	0x91
 1676 0364 74       		.sleb128 -12
 1677 0365 17       		.uleb128 0x17
 1678 0366 42010000 		.4byte	.LASF56
 1679 036a 01       		.byte	0x1
 1680 036b B0       		.byte	0xb0
 1681 036c A2000000 		.4byte	0xa2
 1682 0370 02       		.byte	0x2
 1683 0371 91       		.byte	0x91
 1684 0372 68       		.sleb128 -24
 1685 0373 00       		.byte	0
 1686 0374 14       		.uleb128 0x14
 1687 0375 04       		.byte	0x4
 1688 0376 79020000 		.4byte	0x279
 1689 037a 19       		.uleb128 0x19
 1690 037b 01       		.byte	0x1
 1691 037c 6F000000 		.4byte	.LASF57
 1692 0380 01       		.byte	0x1
 1693 0381 0A01     		.2byte	0x10a
 1694 0383 01       		.byte	0x1
 1695 0384 6C020000 		.4byte	.LFB32
 1696 0388 88020000 		.4byte	.LFE32
 1697 038c 84000000 		.4byte	.LLST3
ARM GAS  /tmp/ccvxPp7R.s 			page 42


 1698 0390 01       		.byte	0x1
 1699 0391 A5030000 		.4byte	0x3a5
 1700 0395 1A       		.uleb128 0x1a
 1701 0396 A7020000 		.4byte	.LASF51
 1702 039a 01       		.byte	0x1
 1703 039b 0A01     		.2byte	0x10a
 1704 039d 74030000 		.4byte	0x374
 1705 03a1 02       		.byte	0x2
 1706 03a2 91       		.byte	0x91
 1707 03a3 7C       		.sleb128 -4
 1708 03a4 00       		.byte	0
 1709 03a5 1B       		.uleb128 0x1b
 1710 03a6 01       		.byte	0x1
 1711 03a7 14020000 		.4byte	.LASF59
 1712 03ab 01       		.byte	0x1
 1713 03ac 1901     		.2byte	0x119
 1714 03ae 01       		.byte	0x1
 1715 03af 8C000000 		.4byte	0x8c
 1716 03b3 88020000 		.4byte	.LFB33
 1717 03b7 BE020000 		.4byte	.LFE33
 1718 03bb B0000000 		.4byte	.LLST4
 1719 03bf 01       		.byte	0x1
 1720 03c0 F2030000 		.4byte	0x3f2
 1721 03c4 1A       		.uleb128 0x1a
 1722 03c5 64040000 		.4byte	.LASF50
 1723 03c9 01       		.byte	0x1
 1724 03ca 1901     		.2byte	0x119
 1725 03cc CD020000 		.4byte	0x2cd
 1726 03d0 02       		.byte	0x2
 1727 03d1 91       		.byte	0x91
 1728 03d2 74       		.sleb128 -12
 1729 03d3 1A       		.uleb128 0x1a
 1730 03d4 14000000 		.4byte	.LASF41
 1731 03d8 01       		.byte	0x1
 1732 03d9 1901     		.2byte	0x119
 1733 03db 97000000 		.4byte	0x97
 1734 03df 02       		.byte	0x2
 1735 03e0 91       		.byte	0x91
 1736 03e1 72       		.sleb128 -14
 1737 03e2 1C       		.uleb128 0x1c
 1738 03e3 42020000 		.4byte	.LASF58
 1739 03e7 01       		.byte	0x1
 1740 03e8 1B01     		.2byte	0x11b
 1741 03ea 8C000000 		.4byte	0x8c
 1742 03ee 02       		.byte	0x2
 1743 03ef 91       		.byte	0x91
 1744 03f0 7F       		.sleb128 -1
 1745 03f1 00       		.byte	0
 1746 03f2 1B       		.uleb128 0x1b
 1747 03f3 01       		.byte	0x1
 1748 03f4 60030000 		.4byte	.LASF60
 1749 03f8 01       		.byte	0x1
 1750 03f9 3101     		.2byte	0x131
 1751 03fb 01       		.byte	0x1
 1752 03fc 97000000 		.4byte	0x97
 1753 0400 C0020000 		.4byte	.LFB34
 1754 0404 D0020000 		.4byte	.LFE34
ARM GAS  /tmp/ccvxPp7R.s 			page 43


 1755 0408 DC000000 		.4byte	.LLST5
 1756 040c 01       		.byte	0x1
 1757 040d 21040000 		.4byte	0x421
 1758 0411 1A       		.uleb128 0x1a
 1759 0412 64040000 		.4byte	.LASF50
 1760 0416 01       		.byte	0x1
 1761 0417 3101     		.2byte	0x131
 1762 0419 CD020000 		.4byte	0x2cd
 1763 041d 02       		.byte	0x2
 1764 041e 91       		.byte	0x91
 1765 041f 7C       		.sleb128 -4
 1766 0420 00       		.byte	0
 1767 0421 1B       		.uleb128 0x1b
 1768 0422 01       		.byte	0x1
 1769 0423 FD040000 		.4byte	.LASF61
 1770 0427 01       		.byte	0x1
 1771 0428 4001     		.2byte	0x140
 1772 042a 01       		.byte	0x1
 1773 042b 8C000000 		.4byte	0x8c
 1774 042f D0020000 		.4byte	.LFB35
 1775 0433 06030000 		.4byte	.LFE35
 1776 0437 08010000 		.4byte	.LLST6
 1777 043b 01       		.byte	0x1
 1778 043c 6E040000 		.4byte	0x46e
 1779 0440 1A       		.uleb128 0x1a
 1780 0441 64040000 		.4byte	.LASF50
 1781 0445 01       		.byte	0x1
 1782 0446 4001     		.2byte	0x140
 1783 0448 CD020000 		.4byte	0x2cd
 1784 044c 02       		.byte	0x2
 1785 044d 91       		.byte	0x91
 1786 044e 74       		.sleb128 -12
 1787 044f 1A       		.uleb128 0x1a
 1788 0450 14000000 		.4byte	.LASF41
 1789 0454 01       		.byte	0x1
 1790 0455 4001     		.2byte	0x140
 1791 0457 97000000 		.4byte	0x97
 1792 045b 02       		.byte	0x2
 1793 045c 91       		.byte	0x91
 1794 045d 72       		.sleb128 -14
 1795 045e 1C       		.uleb128 0x1c
 1796 045f 42020000 		.4byte	.LASF58
 1797 0463 01       		.byte	0x1
 1798 0464 4201     		.2byte	0x142
 1799 0466 8C000000 		.4byte	0x8c
 1800 046a 02       		.byte	0x2
 1801 046b 91       		.byte	0x91
 1802 046c 7F       		.sleb128 -1
 1803 046d 00       		.byte	0
 1804 046e 1B       		.uleb128 0x1b
 1805 046f 01       		.byte	0x1
 1806 0470 25000000 		.4byte	.LASF62
 1807 0474 01       		.byte	0x1
 1808 0475 5701     		.2byte	0x157
 1809 0477 01       		.byte	0x1
 1810 0478 97000000 		.4byte	0x97
 1811 047c 08030000 		.4byte	.LFB36
ARM GAS  /tmp/ccvxPp7R.s 			page 44


 1812 0480 18030000 		.4byte	.LFE36
 1813 0484 34010000 		.4byte	.LLST7
 1814 0488 01       		.byte	0x1
 1815 0489 9D040000 		.4byte	0x49d
 1816 048d 1A       		.uleb128 0x1a
 1817 048e 64040000 		.4byte	.LASF50
 1818 0492 01       		.byte	0x1
 1819 0493 5701     		.2byte	0x157
 1820 0495 CD020000 		.4byte	0x2cd
 1821 0499 02       		.byte	0x2
 1822 049a 91       		.byte	0x91
 1823 049b 7C       		.sleb128 -4
 1824 049c 00       		.byte	0
 1825 049d 19       		.uleb128 0x19
 1826 049e 01       		.byte	0x1
 1827 049f 58000000 		.4byte	.LASF63
 1828 04a3 01       		.byte	0x1
 1829 04a4 6601     		.2byte	0x166
 1830 04a6 01       		.byte	0x1
 1831 04a7 18030000 		.4byte	.LFB37
 1832 04ab 2E030000 		.4byte	.LFE37
 1833 04af 60010000 		.4byte	.LLST8
 1834 04b3 01       		.byte	0x1
 1835 04b4 D7040000 		.4byte	0x4d7
 1836 04b8 1A       		.uleb128 0x1a
 1837 04b9 64040000 		.4byte	.LASF50
 1838 04bd 01       		.byte	0x1
 1839 04be 6601     		.2byte	0x166
 1840 04c0 CD020000 		.4byte	0x2cd
 1841 04c4 02       		.byte	0x2
 1842 04c5 91       		.byte	0x91
 1843 04c6 7C       		.sleb128 -4
 1844 04c7 1A       		.uleb128 0x1a
 1845 04c8 14000000 		.4byte	.LASF41
 1846 04cc 01       		.byte	0x1
 1847 04cd 6601     		.2byte	0x166
 1848 04cf 97000000 		.4byte	0x97
 1849 04d3 02       		.byte	0x2
 1850 04d4 91       		.byte	0x91
 1851 04d5 7A       		.sleb128 -6
 1852 04d6 00       		.byte	0
 1853 04d7 19       		.uleb128 0x19
 1854 04d8 01       		.byte	0x1
 1855 04d9 CB040000 		.4byte	.LASF64
 1856 04dd 01       		.byte	0x1
 1857 04de 7601     		.2byte	0x176
 1858 04e0 01       		.byte	0x1
 1859 04e1 30030000 		.4byte	.LFB38
 1860 04e5 46030000 		.4byte	.LFE38
 1861 04e9 8C010000 		.4byte	.LLST9
 1862 04ed 01       		.byte	0x1
 1863 04ee 11050000 		.4byte	0x511
 1864 04f2 1A       		.uleb128 0x1a
 1865 04f3 64040000 		.4byte	.LASF50
 1866 04f7 01       		.byte	0x1
 1867 04f8 7601     		.2byte	0x176
 1868 04fa CD020000 		.4byte	0x2cd
ARM GAS  /tmp/ccvxPp7R.s 			page 45


 1869 04fe 02       		.byte	0x2
 1870 04ff 91       		.byte	0x91
 1871 0500 7C       		.sleb128 -4
 1872 0501 1A       		.uleb128 0x1a
 1873 0502 14000000 		.4byte	.LASF41
 1874 0506 01       		.byte	0x1
 1875 0507 7601     		.2byte	0x176
 1876 0509 97000000 		.4byte	0x97
 1877 050d 02       		.byte	0x2
 1878 050e 91       		.byte	0x91
 1879 050f 7A       		.sleb128 -6
 1880 0510 00       		.byte	0
 1881 0511 19       		.uleb128 0x19
 1882 0512 01       		.byte	0x1
 1883 0513 99000000 		.4byte	.LASF65
 1884 0517 01       		.byte	0x1
 1885 0518 8A01     		.2byte	0x18a
 1886 051a 01       		.byte	0x1
 1887 051b 48030000 		.4byte	.LFB39
 1888 051f 76030000 		.4byte	.LFE39
 1889 0523 B8010000 		.4byte	.LLST10
 1890 0527 01       		.byte	0x1
 1891 0528 5A050000 		.4byte	0x55a
 1892 052c 1A       		.uleb128 0x1a
 1893 052d 64040000 		.4byte	.LASF50
 1894 0531 01       		.byte	0x1
 1895 0532 8A01     		.2byte	0x18a
 1896 0534 CD020000 		.4byte	0x2cd
 1897 0538 02       		.byte	0x2
 1898 0539 91       		.byte	0x91
 1899 053a 7C       		.sleb128 -4
 1900 053b 1A       		.uleb128 0x1a
 1901 053c 14000000 		.4byte	.LASF41
 1902 0540 01       		.byte	0x1
 1903 0541 8A01     		.2byte	0x18a
 1904 0543 97000000 		.4byte	0x97
 1905 0547 02       		.byte	0x2
 1906 0548 91       		.byte	0x91
 1907 0549 7A       		.sleb128 -6
 1908 054a 1A       		.uleb128 0x1a
 1909 054b 88000000 		.4byte	.LASF66
 1910 054f 01       		.byte	0x1
 1911 0550 8A01     		.2byte	0x18a
 1912 0552 99020000 		.4byte	0x299
 1913 0556 02       		.byte	0x2
 1914 0557 91       		.byte	0x91
 1915 0558 79       		.sleb128 -7
 1916 0559 00       		.byte	0
 1917 055a 19       		.uleb128 0x19
 1918 055b 01       		.byte	0x1
 1919 055c BA030000 		.4byte	.LASF67
 1920 0560 01       		.byte	0x1
 1921 0561 A101     		.2byte	0x1a1
 1922 0563 01       		.byte	0x1
 1923 0564 78030000 		.4byte	.LFB40
 1924 0568 8E030000 		.4byte	.LFE40
 1925 056c E4010000 		.4byte	.LLST11
ARM GAS  /tmp/ccvxPp7R.s 			page 46


 1926 0570 01       		.byte	0x1
 1927 0571 94050000 		.4byte	0x594
 1928 0575 1A       		.uleb128 0x1a
 1929 0576 64040000 		.4byte	.LASF50
 1930 057a 01       		.byte	0x1
 1931 057b A101     		.2byte	0x1a1
 1932 057d CD020000 		.4byte	0x2cd
 1933 0581 02       		.byte	0x2
 1934 0582 91       		.byte	0x91
 1935 0583 7C       		.sleb128 -4
 1936 0584 1A       		.uleb128 0x1a
 1937 0585 C3040000 		.4byte	.LASF68
 1938 0589 01       		.byte	0x1
 1939 058a A101     		.2byte	0x1a1
 1940 058c 97000000 		.4byte	0x97
 1941 0590 02       		.byte	0x2
 1942 0591 91       		.byte	0x91
 1943 0592 7A       		.sleb128 -6
 1944 0593 00       		.byte	0
 1945 0594 19       		.uleb128 0x19
 1946 0595 01       		.byte	0x1
 1947 0596 89030000 		.4byte	.LASF69
 1948 059a 01       		.byte	0x1
 1949 059b B001     		.2byte	0x1b0
 1950 059d 01       		.byte	0x1
 1951 059e 90030000 		.4byte	.LFB41
 1952 05a2 CE030000 		.4byte	.LFE41
 1953 05a6 10020000 		.4byte	.LLST12
 1954 05aa 01       		.byte	0x1
 1955 05ab DD050000 		.4byte	0x5dd
 1956 05af 1A       		.uleb128 0x1a
 1957 05b0 64040000 		.4byte	.LASF50
 1958 05b4 01       		.byte	0x1
 1959 05b5 B001     		.2byte	0x1b0
 1960 05b7 CD020000 		.4byte	0x2cd
 1961 05bb 02       		.byte	0x2
 1962 05bc 91       		.byte	0x91
 1963 05bd 74       		.sleb128 -12
 1964 05be 1A       		.uleb128 0x1a
 1965 05bf 14000000 		.4byte	.LASF41
 1966 05c3 01       		.byte	0x1
 1967 05c4 B001     		.2byte	0x1b0
 1968 05c6 97000000 		.4byte	0x97
 1969 05ca 02       		.byte	0x2
 1970 05cb 91       		.byte	0x91
 1971 05cc 72       		.sleb128 -14
 1972 05cd 1D       		.uleb128 0x1d
 1973 05ce 746D7000 		.ascii	"tmp\000"
 1974 05d2 01       		.byte	0x1
 1975 05d3 B201     		.2byte	0x1b2
 1976 05d5 A2000000 		.4byte	0xa2
 1977 05d9 02       		.byte	0x2
 1978 05da 91       		.byte	0x91
 1979 05db 7C       		.sleb128 -4
 1980 05dc 00       		.byte	0
 1981 05dd 19       		.uleb128 0x19
 1982 05de 01       		.byte	0x1
ARM GAS  /tmp/ccvxPp7R.s 			page 47


 1983 05df 91010000 		.4byte	.LASF70
 1984 05e3 01       		.byte	0x1
 1985 05e4 CE01     		.2byte	0x1ce
 1986 05e6 01       		.byte	0x1
 1987 05e7 D0030000 		.4byte	.LFB42
 1988 05eb 18040000 		.4byte	.LFE42
 1989 05ef 3C020000 		.4byte	.LLST13
 1990 05f3 01       		.byte	0x1
 1991 05f4 26060000 		.4byte	0x626
 1992 05f8 1A       		.uleb128 0x1a
 1993 05f9 91040000 		.4byte	.LASF71
 1994 05fd 01       		.byte	0x1
 1995 05fe CE01     		.2byte	0x1ce
 1996 0600 8C000000 		.4byte	0x8c
 1997 0604 02       		.byte	0x2
 1998 0605 91       		.byte	0x91
 1999 0606 77       		.sleb128 -9
 2000 0607 1A       		.uleb128 0x1a
 2001 0608 51030000 		.4byte	.LASF72
 2002 060c 01       		.byte	0x1
 2003 060d CE01     		.2byte	0x1ce
 2004 060f 8C000000 		.4byte	0x8c
 2005 0613 02       		.byte	0x2
 2006 0614 91       		.byte	0x91
 2007 0615 76       		.sleb128 -10
 2008 0616 1C       		.uleb128 0x1c
 2009 0617 3B020000 		.4byte	.LASF55
 2010 061b 01       		.byte	0x1
 2011 061c D001     		.2byte	0x1d0
 2012 061e A2000000 		.4byte	0xa2
 2013 0622 02       		.byte	0x2
 2014 0623 91       		.byte	0x91
 2015 0624 7C       		.sleb128 -4
 2016 0625 00       		.byte	0
 2017 0626 19       		.uleb128 0x19
 2018 0627 01       		.byte	0x1
 2019 0628 39000000 		.4byte	.LASF73
 2020 062c 01       		.byte	0x1
 2021 062d E301     		.2byte	0x1e3
 2022 062f 01       		.byte	0x1
 2023 0630 18040000 		.4byte	.LFB43
 2024 0634 30040000 		.4byte	.LFE43
 2025 0638 68020000 		.4byte	.LLST14
 2026 063c 01       		.byte	0x1
 2027 063d 51060000 		.4byte	0x651
 2028 0641 1A       		.uleb128 0x1a
 2029 0642 4C020000 		.4byte	.LASF74
 2030 0646 01       		.byte	0x1
 2031 0647 E301     		.2byte	0x1e3
 2032 0649 EA000000 		.4byte	0xea
 2033 064d 02       		.byte	0x2
 2034 064e 91       		.byte	0x91
 2035 064f 7F       		.sleb128 -1
 2036 0650 00       		.byte	0
 2037 0651 19       		.uleb128 0x19
 2038 0652 01       		.byte	0x1
 2039 0653 38030000 		.4byte	.LASF75
ARM GAS  /tmp/ccvxPp7R.s 			page 48


 2040 0657 01       		.byte	0x1
 2041 0658 2502     		.2byte	0x225
 2042 065a 01       		.byte	0x1
 2043 065b 30040000 		.4byte	.LFB44
 2044 065f 0C050000 		.4byte	.LFE44
 2045 0663 94020000 		.4byte	.LLST15
 2046 0667 01       		.byte	0x1
 2047 0668 C7060000 		.4byte	0x6c7
 2048 066c 1A       		.uleb128 0x1a
 2049 066d 4D000000 		.4byte	.LASF76
 2050 0671 01       		.byte	0x1
 2051 0672 2502     		.2byte	0x225
 2052 0674 A2000000 		.4byte	0xa2
 2053 0678 02       		.byte	0x2
 2054 0679 91       		.byte	0x91
 2055 067a 6C       		.sleb128 -20
 2056 067b 1A       		.uleb128 0x1a
 2057 067c 4C020000 		.4byte	.LASF74
 2058 0680 01       		.byte	0x1
 2059 0681 2502     		.2byte	0x225
 2060 0683 EA000000 		.4byte	0xea
 2061 0687 02       		.byte	0x2
 2062 0688 91       		.byte	0x91
 2063 0689 6B       		.sleb128 -21
 2064 068a 1D       		.uleb128 0x1d
 2065 068b 746D7000 		.ascii	"tmp\000"
 2066 068f 01       		.byte	0x1
 2067 0690 2702     		.2byte	0x227
 2068 0692 A2000000 		.4byte	0xa2
 2069 0696 02       		.byte	0x2
 2070 0697 91       		.byte	0x91
 2071 0698 78       		.sleb128 -8
 2072 0699 1C       		.uleb128 0x1c
 2073 069a D3030000 		.4byte	.LASF77
 2074 069e 01       		.byte	0x1
 2075 069f 2702     		.2byte	0x227
 2076 06a1 A2000000 		.4byte	0xa2
 2077 06a5 02       		.byte	0x2
 2078 06a6 91       		.byte	0x91
 2079 06a7 74       		.sleb128 -12
 2080 06a8 1C       		.uleb128 0x1c
 2081 06a9 3B020000 		.4byte	.LASF55
 2082 06ad 01       		.byte	0x1
 2083 06ae 2702     		.2byte	0x227
 2084 06b0 A2000000 		.4byte	0xa2
 2085 06b4 02       		.byte	0x2
 2086 06b5 91       		.byte	0x91
 2087 06b6 7C       		.sleb128 -4
 2088 06b7 1C       		.uleb128 0x1c
 2089 06b8 73030000 		.4byte	.LASF78
 2090 06bc 01       		.byte	0x1
 2091 06bd 2702     		.2byte	0x227
 2092 06bf A2000000 		.4byte	0xa2
 2093 06c3 02       		.byte	0x2
 2094 06c4 91       		.byte	0x91
 2095 06c5 70       		.sleb128 -16
 2096 06c6 00       		.byte	0
ARM GAS  /tmp/ccvxPp7R.s 			page 49


 2097 06c7 19       		.uleb128 0x19
 2098 06c8 01       		.byte	0x1
 2099 06c9 63020000 		.4byte	.LASF79
 2100 06cd 01       		.byte	0x1
 2101 06ce 6102     		.2byte	0x261
 2102 06d0 01       		.byte	0x1
 2103 06d1 0C050000 		.4byte	.LFB45
 2104 06d5 A0050000 		.4byte	.LFE45
 2105 06d9 C0020000 		.4byte	.LLST16
 2106 06dd 01       		.byte	0x1
 2107 06de 10070000 		.4byte	0x710
 2108 06e2 1A       		.uleb128 0x1a
 2109 06e3 91040000 		.4byte	.LASF71
 2110 06e7 01       		.byte	0x1
 2111 06e8 6102     		.2byte	0x261
 2112 06ea 8C000000 		.4byte	0x8c
 2113 06ee 02       		.byte	0x2
 2114 06ef 91       		.byte	0x91
 2115 06f0 6F       		.sleb128 -17
 2116 06f1 1A       		.uleb128 0x1a
 2117 06f2 51030000 		.4byte	.LASF72
 2118 06f6 01       		.byte	0x1
 2119 06f7 6102     		.2byte	0x261
 2120 06f9 8C000000 		.4byte	0x8c
 2121 06fd 02       		.byte	0x2
 2122 06fe 91       		.byte	0x91
 2123 06ff 6E       		.sleb128 -18
 2124 0700 1D       		.uleb128 0x1d
 2125 0701 746D7000 		.ascii	"tmp\000"
 2126 0705 01       		.byte	0x1
 2127 0706 6302     		.2byte	0x263
 2128 0708 A2000000 		.4byte	0xa2
 2129 070c 02       		.byte	0x2
 2130 070d 91       		.byte	0x91
 2131 070e 74       		.sleb128 -12
 2132 070f 00       		.byte	0
 2133 0710 19       		.uleb128 0x19
 2134 0711 01       		.byte	0x1
 2135 0712 F6030000 		.4byte	.LASF80
 2136 0716 01       		.byte	0x1
 2137 0717 7602     		.2byte	0x276
 2138 0719 01       		.byte	0x1
 2139 071a A0050000 		.4byte	.LFB46
 2140 071e B4050000 		.4byte	.LFE46
 2141 0722 04030000 		.4byte	.LLST17
 2142 0726 01       		.byte	0x1
 2143 0727 3B070000 		.4byte	0x73b
 2144 072b 1A       		.uleb128 0x1a
 2145 072c EE000000 		.4byte	.LASF81
 2146 0730 01       		.byte	0x1
 2147 0731 7602     		.2byte	0x276
 2148 0733 A2000000 		.4byte	0xa2
 2149 0737 02       		.byte	0x2
 2150 0738 91       		.byte	0x91
 2151 0739 7C       		.sleb128 -4
 2152 073a 00       		.byte	0
 2153 073b 1E       		.uleb128 0x1e
ARM GAS  /tmp/ccvxPp7R.s 			page 50


 2154 073c F0040000 		.4byte	.LASF86
 2155 0740 06       		.byte	0x6
 2156 0741 CE06     		.2byte	0x6ce
 2157 0743 49070000 		.4byte	0x749
 2158 0747 01       		.byte	0x1
 2159 0748 01       		.byte	0x1
 2160 0749 05       		.uleb128 0x5
 2161 074a 7E000000 		.4byte	0x7e
 2162 074e 00       		.byte	0
 2163              		.section	.debug_abbrev,"",%progbits
 2164              	.Ldebug_abbrev0:
 2165 0000 01       		.uleb128 0x1
 2166 0001 11       		.uleb128 0x11
 2167 0002 01       		.byte	0x1
 2168 0003 25       		.uleb128 0x25
 2169 0004 0E       		.uleb128 0xe
 2170 0005 13       		.uleb128 0x13
 2171 0006 0B       		.uleb128 0xb
 2172 0007 03       		.uleb128 0x3
 2173 0008 0E       		.uleb128 0xe
 2174 0009 1B       		.uleb128 0x1b
 2175 000a 0E       		.uleb128 0xe
 2176 000b 11       		.uleb128 0x11
 2177 000c 01       		.uleb128 0x1
 2178 000d 12       		.uleb128 0x12
 2179 000e 01       		.uleb128 0x1
 2180 000f 10       		.uleb128 0x10
 2181 0010 06       		.uleb128 0x6
 2182 0011 00       		.byte	0
 2183 0012 00       		.byte	0
 2184 0013 02       		.uleb128 0x2
 2185 0014 24       		.uleb128 0x24
 2186 0015 00       		.byte	0
 2187 0016 0B       		.uleb128 0xb
 2188 0017 0B       		.uleb128 0xb
 2189 0018 3E       		.uleb128 0x3e
 2190 0019 0B       		.uleb128 0xb
 2191 001a 03       		.uleb128 0x3
 2192 001b 0E       		.uleb128 0xe
 2193 001c 00       		.byte	0
 2194 001d 00       		.byte	0
 2195 001e 03       		.uleb128 0x3
 2196 001f 16       		.uleb128 0x16
 2197 0020 00       		.byte	0
 2198 0021 03       		.uleb128 0x3
 2199 0022 0E       		.uleb128 0xe
 2200 0023 3A       		.uleb128 0x3a
 2201 0024 0B       		.uleb128 0xb
 2202 0025 3B       		.uleb128 0x3b
 2203 0026 0B       		.uleb128 0xb
 2204 0027 49       		.uleb128 0x49
 2205 0028 13       		.uleb128 0x13
 2206 0029 00       		.byte	0
 2207 002a 00       		.byte	0
 2208 002b 04       		.uleb128 0x4
 2209 002c 24       		.uleb128 0x24
 2210 002d 00       		.byte	0
ARM GAS  /tmp/ccvxPp7R.s 			page 51


 2211 002e 0B       		.uleb128 0xb
 2212 002f 0B       		.uleb128 0xb
 2213 0030 3E       		.uleb128 0x3e
 2214 0031 0B       		.uleb128 0xb
 2215 0032 03       		.uleb128 0x3
 2216 0033 08       		.uleb128 0x8
 2217 0034 00       		.byte	0
 2218 0035 00       		.byte	0
 2219 0036 05       		.uleb128 0x5
 2220 0037 35       		.uleb128 0x35
 2221 0038 00       		.byte	0
 2222 0039 49       		.uleb128 0x49
 2223 003a 13       		.uleb128 0x13
 2224 003b 00       		.byte	0
 2225 003c 00       		.byte	0
 2226 003d 06       		.uleb128 0x6
 2227 003e 01       		.uleb128 0x1
 2228 003f 01       		.byte	0x1
 2229 0040 49       		.uleb128 0x49
 2230 0041 13       		.uleb128 0x13
 2231 0042 01       		.uleb128 0x1
 2232 0043 13       		.uleb128 0x13
 2233 0044 00       		.byte	0
 2234 0045 00       		.byte	0
 2235 0046 07       		.uleb128 0x7
 2236 0047 21       		.uleb128 0x21
 2237 0048 00       		.byte	0
 2238 0049 49       		.uleb128 0x49
 2239 004a 13       		.uleb128 0x13
 2240 004b 2F       		.uleb128 0x2f
 2241 004c 0B       		.uleb128 0xb
 2242 004d 00       		.byte	0
 2243 004e 00       		.byte	0
 2244 004f 08       		.uleb128 0x8
 2245 0050 16       		.uleb128 0x16
 2246 0051 00       		.byte	0
 2247 0052 03       		.uleb128 0x3
 2248 0053 08       		.uleb128 0x8
 2249 0054 3A       		.uleb128 0x3a
 2250 0055 0B       		.uleb128 0xb
 2251 0056 3B       		.uleb128 0x3b
 2252 0057 05       		.uleb128 0x5
 2253 0058 49       		.uleb128 0x49
 2254 0059 13       		.uleb128 0x13
 2255 005a 00       		.byte	0
 2256 005b 00       		.byte	0
 2257 005c 09       		.uleb128 0x9
 2258 005d 04       		.uleb128 0x4
 2259 005e 01       		.byte	0x1
 2260 005f 0B       		.uleb128 0xb
 2261 0060 0B       		.uleb128 0xb
 2262 0061 3A       		.uleb128 0x3a
 2263 0062 0B       		.uleb128 0xb
 2264 0063 3B       		.uleb128 0x3b
 2265 0064 05       		.uleb128 0x5
 2266 0065 01       		.uleb128 0x1
 2267 0066 13       		.uleb128 0x13
ARM GAS  /tmp/ccvxPp7R.s 			page 52


 2268 0067 00       		.byte	0
 2269 0068 00       		.byte	0
 2270 0069 0A       		.uleb128 0xa
 2271 006a 28       		.uleb128 0x28
 2272 006b 00       		.byte	0
 2273 006c 03       		.uleb128 0x3
 2274 006d 0E       		.uleb128 0xe
 2275 006e 1C       		.uleb128 0x1c
 2276 006f 0D       		.uleb128 0xd
 2277 0070 00       		.byte	0
 2278 0071 00       		.byte	0
 2279 0072 0B       		.uleb128 0xb
 2280 0073 16       		.uleb128 0x16
 2281 0074 00       		.byte	0
 2282 0075 03       		.uleb128 0x3
 2283 0076 0E       		.uleb128 0xe
 2284 0077 3A       		.uleb128 0x3a
 2285 0078 0B       		.uleb128 0xb
 2286 0079 3B       		.uleb128 0x3b
 2287 007a 05       		.uleb128 0x5
 2288 007b 49       		.uleb128 0x49
 2289 007c 13       		.uleb128 0x13
 2290 007d 00       		.byte	0
 2291 007e 00       		.byte	0
 2292 007f 0C       		.uleb128 0xc
 2293 0080 13       		.uleb128 0x13
 2294 0081 01       		.byte	0x1
 2295 0082 0B       		.uleb128 0xb
 2296 0083 0B       		.uleb128 0xb
 2297 0084 3A       		.uleb128 0x3a
 2298 0085 0B       		.uleb128 0xb
 2299 0086 3B       		.uleb128 0x3b
 2300 0087 05       		.uleb128 0x5
 2301 0088 01       		.uleb128 0x1
 2302 0089 13       		.uleb128 0x13
 2303 008a 00       		.byte	0
 2304 008b 00       		.byte	0
 2305 008c 0D       		.uleb128 0xd
 2306 008d 0D       		.uleb128 0xd
 2307 008e 00       		.byte	0
 2308 008f 03       		.uleb128 0x3
 2309 0090 08       		.uleb128 0x8
 2310 0091 3A       		.uleb128 0x3a
 2311 0092 0B       		.uleb128 0xb
 2312 0093 3B       		.uleb128 0x3b
 2313 0094 05       		.uleb128 0x5
 2314 0095 49       		.uleb128 0x49
 2315 0096 13       		.uleb128 0x13
 2316 0097 38       		.uleb128 0x38
 2317 0098 0A       		.uleb128 0xa
 2318 0099 00       		.byte	0
 2319 009a 00       		.byte	0
 2320 009b 0E       		.uleb128 0xe
 2321 009c 0D       		.uleb128 0xd
 2322 009d 00       		.byte	0
 2323 009e 03       		.uleb128 0x3
 2324 009f 0E       		.uleb128 0xe
ARM GAS  /tmp/ccvxPp7R.s 			page 53


 2325 00a0 3A       		.uleb128 0x3a
 2326 00a1 0B       		.uleb128 0xb
 2327 00a2 3B       		.uleb128 0x3b
 2328 00a3 05       		.uleb128 0x5
 2329 00a4 49       		.uleb128 0x49
 2330 00a5 13       		.uleb128 0x13
 2331 00a6 38       		.uleb128 0x38
 2332 00a7 0A       		.uleb128 0xa
 2333 00a8 00       		.byte	0
 2334 00a9 00       		.byte	0
 2335 00aa 0F       		.uleb128 0xf
 2336 00ab 04       		.uleb128 0x4
 2337 00ac 01       		.byte	0x1
 2338 00ad 0B       		.uleb128 0xb
 2339 00ae 0B       		.uleb128 0xb
 2340 00af 3A       		.uleb128 0x3a
 2341 00b0 0B       		.uleb128 0xb
 2342 00b1 3B       		.uleb128 0x3b
 2343 00b2 0B       		.uleb128 0xb
 2344 00b3 01       		.uleb128 0x1
 2345 00b4 13       		.uleb128 0x13
 2346 00b5 00       		.byte	0
 2347 00b6 00       		.byte	0
 2348 00b7 10       		.uleb128 0x10
 2349 00b8 13       		.uleb128 0x13
 2350 00b9 01       		.byte	0x1
 2351 00ba 0B       		.uleb128 0xb
 2352 00bb 0B       		.uleb128 0xb
 2353 00bc 3A       		.uleb128 0x3a
 2354 00bd 0B       		.uleb128 0xb
 2355 00be 3B       		.uleb128 0x3b
 2356 00bf 0B       		.uleb128 0xb
 2357 00c0 01       		.uleb128 0x1
 2358 00c1 13       		.uleb128 0x13
 2359 00c2 00       		.byte	0
 2360 00c3 00       		.byte	0
 2361 00c4 11       		.uleb128 0x11
 2362 00c5 0D       		.uleb128 0xd
 2363 00c6 00       		.byte	0
 2364 00c7 03       		.uleb128 0x3
 2365 00c8 0E       		.uleb128 0xe
 2366 00c9 3A       		.uleb128 0x3a
 2367 00ca 0B       		.uleb128 0xb
 2368 00cb 3B       		.uleb128 0x3b
 2369 00cc 0B       		.uleb128 0xb
 2370 00cd 49       		.uleb128 0x49
 2371 00ce 13       		.uleb128 0x13
 2372 00cf 38       		.uleb128 0x38
 2373 00d0 0A       		.uleb128 0xa
 2374 00d1 00       		.byte	0
 2375 00d2 00       		.byte	0
 2376 00d3 12       		.uleb128 0x12
 2377 00d4 2E       		.uleb128 0x2e
 2378 00d5 01       		.byte	0x1
 2379 00d6 3F       		.uleb128 0x3f
 2380 00d7 0C       		.uleb128 0xc
 2381 00d8 03       		.uleb128 0x3
ARM GAS  /tmp/ccvxPp7R.s 			page 54


 2382 00d9 0E       		.uleb128 0xe
 2383 00da 3A       		.uleb128 0x3a
 2384 00db 0B       		.uleb128 0xb
 2385 00dc 3B       		.uleb128 0x3b
 2386 00dd 0B       		.uleb128 0xb
 2387 00de 27       		.uleb128 0x27
 2388 00df 0C       		.uleb128 0xc
 2389 00e0 11       		.uleb128 0x11
 2390 00e1 01       		.uleb128 0x1
 2391 00e2 12       		.uleb128 0x12
 2392 00e3 01       		.uleb128 0x1
 2393 00e4 40       		.uleb128 0x40
 2394 00e5 06       		.uleb128 0x6
 2395 00e6 9642     		.uleb128 0x2116
 2396 00e8 0C       		.uleb128 0xc
 2397 00e9 01       		.uleb128 0x1
 2398 00ea 13       		.uleb128 0x13
 2399 00eb 00       		.byte	0
 2400 00ec 00       		.byte	0
 2401 00ed 13       		.uleb128 0x13
 2402 00ee 05       		.uleb128 0x5
 2403 00ef 00       		.byte	0
 2404 00f0 03       		.uleb128 0x3
 2405 00f1 0E       		.uleb128 0xe
 2406 00f2 3A       		.uleb128 0x3a
 2407 00f3 0B       		.uleb128 0xb
 2408 00f4 3B       		.uleb128 0x3b
 2409 00f5 0B       		.uleb128 0xb
 2410 00f6 49       		.uleb128 0x49
 2411 00f7 13       		.uleb128 0x13
 2412 00f8 02       		.uleb128 0x2
 2413 00f9 0A       		.uleb128 0xa
 2414 00fa 00       		.byte	0
 2415 00fb 00       		.byte	0
 2416 00fc 14       		.uleb128 0x14
 2417 00fd 0F       		.uleb128 0xf
 2418 00fe 00       		.byte	0
 2419 00ff 0B       		.uleb128 0xb
 2420 0100 0B       		.uleb128 0xb
 2421 0101 49       		.uleb128 0x49
 2422 0102 13       		.uleb128 0x13
 2423 0103 00       		.byte	0
 2424 0104 00       		.byte	0
 2425 0105 15       		.uleb128 0x15
 2426 0106 2E       		.uleb128 0x2e
 2427 0107 00       		.byte	0
 2428 0108 3F       		.uleb128 0x3f
 2429 0109 0C       		.uleb128 0xc
 2430 010a 03       		.uleb128 0x3
 2431 010b 0E       		.uleb128 0xe
 2432 010c 3A       		.uleb128 0x3a
 2433 010d 0B       		.uleb128 0xb
 2434 010e 3B       		.uleb128 0x3b
 2435 010f 0B       		.uleb128 0xb
 2436 0110 27       		.uleb128 0x27
 2437 0111 0C       		.uleb128 0xc
 2438 0112 11       		.uleb128 0x11
ARM GAS  /tmp/ccvxPp7R.s 			page 55


 2439 0113 01       		.uleb128 0x1
 2440 0114 12       		.uleb128 0x12
 2441 0115 01       		.uleb128 0x1
 2442 0116 40       		.uleb128 0x40
 2443 0117 06       		.uleb128 0x6
 2444 0118 9642     		.uleb128 0x2116
 2445 011a 0C       		.uleb128 0xc
 2446 011b 00       		.byte	0
 2447 011c 00       		.byte	0
 2448 011d 16       		.uleb128 0x16
 2449 011e 2E       		.uleb128 0x2e
 2450 011f 01       		.byte	0x1
 2451 0120 3F       		.uleb128 0x3f
 2452 0121 0C       		.uleb128 0xc
 2453 0122 03       		.uleb128 0x3
 2454 0123 0E       		.uleb128 0xe
 2455 0124 3A       		.uleb128 0x3a
 2456 0125 0B       		.uleb128 0xb
 2457 0126 3B       		.uleb128 0x3b
 2458 0127 0B       		.uleb128 0xb
 2459 0128 27       		.uleb128 0x27
 2460 0129 0C       		.uleb128 0xc
 2461 012a 11       		.uleb128 0x11
 2462 012b 01       		.uleb128 0x1
 2463 012c 12       		.uleb128 0x12
 2464 012d 01       		.uleb128 0x1
 2465 012e 40       		.uleb128 0x40
 2466 012f 06       		.uleb128 0x6
 2467 0130 9742     		.uleb128 0x2117
 2468 0132 0C       		.uleb128 0xc
 2469 0133 01       		.uleb128 0x1
 2470 0134 13       		.uleb128 0x13
 2471 0135 00       		.byte	0
 2472 0136 00       		.byte	0
 2473 0137 17       		.uleb128 0x17
 2474 0138 34       		.uleb128 0x34
 2475 0139 00       		.byte	0
 2476 013a 03       		.uleb128 0x3
 2477 013b 0E       		.uleb128 0xe
 2478 013c 3A       		.uleb128 0x3a
 2479 013d 0B       		.uleb128 0xb
 2480 013e 3B       		.uleb128 0x3b
 2481 013f 0B       		.uleb128 0xb
 2482 0140 49       		.uleb128 0x49
 2483 0141 13       		.uleb128 0x13
 2484 0142 02       		.uleb128 0x2
 2485 0143 0A       		.uleb128 0xa
 2486 0144 00       		.byte	0
 2487 0145 00       		.byte	0
 2488 0146 18       		.uleb128 0x18
 2489 0147 34       		.uleb128 0x34
 2490 0148 00       		.byte	0
 2491 0149 03       		.uleb128 0x3
 2492 014a 08       		.uleb128 0x8
 2493 014b 3A       		.uleb128 0x3a
 2494 014c 0B       		.uleb128 0xb
 2495 014d 3B       		.uleb128 0x3b
ARM GAS  /tmp/ccvxPp7R.s 			page 56


 2496 014e 0B       		.uleb128 0xb
 2497 014f 49       		.uleb128 0x49
 2498 0150 13       		.uleb128 0x13
 2499 0151 02       		.uleb128 0x2
 2500 0152 0A       		.uleb128 0xa
 2501 0153 00       		.byte	0
 2502 0154 00       		.byte	0
 2503 0155 19       		.uleb128 0x19
 2504 0156 2E       		.uleb128 0x2e
 2505 0157 01       		.byte	0x1
 2506 0158 3F       		.uleb128 0x3f
 2507 0159 0C       		.uleb128 0xc
 2508 015a 03       		.uleb128 0x3
 2509 015b 0E       		.uleb128 0xe
 2510 015c 3A       		.uleb128 0x3a
 2511 015d 0B       		.uleb128 0xb
 2512 015e 3B       		.uleb128 0x3b
 2513 015f 05       		.uleb128 0x5
 2514 0160 27       		.uleb128 0x27
 2515 0161 0C       		.uleb128 0xc
 2516 0162 11       		.uleb128 0x11
 2517 0163 01       		.uleb128 0x1
 2518 0164 12       		.uleb128 0x12
 2519 0165 01       		.uleb128 0x1
 2520 0166 40       		.uleb128 0x40
 2521 0167 06       		.uleb128 0x6
 2522 0168 9742     		.uleb128 0x2117
 2523 016a 0C       		.uleb128 0xc
 2524 016b 01       		.uleb128 0x1
 2525 016c 13       		.uleb128 0x13
 2526 016d 00       		.byte	0
 2527 016e 00       		.byte	0
 2528 016f 1A       		.uleb128 0x1a
 2529 0170 05       		.uleb128 0x5
 2530 0171 00       		.byte	0
 2531 0172 03       		.uleb128 0x3
 2532 0173 0E       		.uleb128 0xe
 2533 0174 3A       		.uleb128 0x3a
 2534 0175 0B       		.uleb128 0xb
 2535 0176 3B       		.uleb128 0x3b
 2536 0177 05       		.uleb128 0x5
 2537 0178 49       		.uleb128 0x49
 2538 0179 13       		.uleb128 0x13
 2539 017a 02       		.uleb128 0x2
 2540 017b 0A       		.uleb128 0xa
 2541 017c 00       		.byte	0
 2542 017d 00       		.byte	0
 2543 017e 1B       		.uleb128 0x1b
 2544 017f 2E       		.uleb128 0x2e
 2545 0180 01       		.byte	0x1
 2546 0181 3F       		.uleb128 0x3f
 2547 0182 0C       		.uleb128 0xc
 2548 0183 03       		.uleb128 0x3
 2549 0184 0E       		.uleb128 0xe
 2550 0185 3A       		.uleb128 0x3a
 2551 0186 0B       		.uleb128 0xb
 2552 0187 3B       		.uleb128 0x3b
ARM GAS  /tmp/ccvxPp7R.s 			page 57


 2553 0188 05       		.uleb128 0x5
 2554 0189 27       		.uleb128 0x27
 2555 018a 0C       		.uleb128 0xc
 2556 018b 49       		.uleb128 0x49
 2557 018c 13       		.uleb128 0x13
 2558 018d 11       		.uleb128 0x11
 2559 018e 01       		.uleb128 0x1
 2560 018f 12       		.uleb128 0x12
 2561 0190 01       		.uleb128 0x1
 2562 0191 40       		.uleb128 0x40
 2563 0192 06       		.uleb128 0x6
 2564 0193 9742     		.uleb128 0x2117
 2565 0195 0C       		.uleb128 0xc
 2566 0196 01       		.uleb128 0x1
 2567 0197 13       		.uleb128 0x13
 2568 0198 00       		.byte	0
 2569 0199 00       		.byte	0
 2570 019a 1C       		.uleb128 0x1c
 2571 019b 34       		.uleb128 0x34
 2572 019c 00       		.byte	0
 2573 019d 03       		.uleb128 0x3
 2574 019e 0E       		.uleb128 0xe
 2575 019f 3A       		.uleb128 0x3a
 2576 01a0 0B       		.uleb128 0xb
 2577 01a1 3B       		.uleb128 0x3b
 2578 01a2 05       		.uleb128 0x5
 2579 01a3 49       		.uleb128 0x49
 2580 01a4 13       		.uleb128 0x13
 2581 01a5 02       		.uleb128 0x2
 2582 01a6 0A       		.uleb128 0xa
 2583 01a7 00       		.byte	0
 2584 01a8 00       		.byte	0
 2585 01a9 1D       		.uleb128 0x1d
 2586 01aa 34       		.uleb128 0x34
 2587 01ab 00       		.byte	0
 2588 01ac 03       		.uleb128 0x3
 2589 01ad 08       		.uleb128 0x8
 2590 01ae 3A       		.uleb128 0x3a
 2591 01af 0B       		.uleb128 0xb
 2592 01b0 3B       		.uleb128 0x3b
 2593 01b1 05       		.uleb128 0x5
 2594 01b2 49       		.uleb128 0x49
 2595 01b3 13       		.uleb128 0x13
 2596 01b4 02       		.uleb128 0x2
 2597 01b5 0A       		.uleb128 0xa
 2598 01b6 00       		.byte	0
 2599 01b7 00       		.byte	0
 2600 01b8 1E       		.uleb128 0x1e
 2601 01b9 34       		.uleb128 0x34
 2602 01ba 00       		.byte	0
 2603 01bb 03       		.uleb128 0x3
 2604 01bc 0E       		.uleb128 0xe
 2605 01bd 3A       		.uleb128 0x3a
 2606 01be 0B       		.uleb128 0xb
 2607 01bf 3B       		.uleb128 0x3b
 2608 01c0 05       		.uleb128 0x5
 2609 01c1 49       		.uleb128 0x49
ARM GAS  /tmp/ccvxPp7R.s 			page 58


 2610 01c2 13       		.uleb128 0x13
 2611 01c3 3F       		.uleb128 0x3f
 2612 01c4 0C       		.uleb128 0xc
 2613 01c5 3C       		.uleb128 0x3c
 2614 01c6 0C       		.uleb128 0xc
 2615 01c7 00       		.byte	0
 2616 01c8 00       		.byte	0
 2617 01c9 00       		.byte	0
 2618              		.section	.debug_loc,"",%progbits
 2619              	.Ldebug_loc0:
 2620              	.LLST0:
 2621 0000 00000000 		.4byte	.LFB29-.Ltext0
 2622 0004 02000000 		.4byte	.LCFI0-.Ltext0
 2623 0008 0200     		.2byte	0x2
 2624 000a 7D       		.byte	0x7d
 2625 000b 00       		.sleb128 0
 2626 000c 02000000 		.4byte	.LCFI0-.Ltext0
 2627 0010 04000000 		.4byte	.LCFI1-.Ltext0
 2628 0014 0200     		.2byte	0x2
 2629 0016 7D       		.byte	0x7d
 2630 0017 04       		.sleb128 4
 2631 0018 04000000 		.4byte	.LCFI1-.Ltext0
 2632 001c C0000000 		.4byte	.LCFI2-.Ltext0
 2633 0020 0200     		.2byte	0x2
 2634 0022 7D       		.byte	0x7d
 2635 0023 10       		.sleb128 16
 2636 0024 C0000000 		.4byte	.LCFI2-.Ltext0
 2637 0028 E0000000 		.4byte	.LFE29-.Ltext0
 2638 002c 0200     		.2byte	0x2
 2639 002e 7D       		.byte	0x7d
 2640 002f 04       		.sleb128 4
 2641 0030 00000000 		.4byte	0
 2642 0034 00000000 		.4byte	0
 2643              	.LLST1:
 2644 0038 E0000000 		.4byte	.LFB30-.Ltext0
 2645 003c E2000000 		.4byte	.LCFI3-.Ltext0
 2646 0040 0200     		.2byte	0x2
 2647 0042 7D       		.byte	0x7d
 2648 0043 00       		.sleb128 0
 2649 0044 E2000000 		.4byte	.LCFI3-.Ltext0
 2650 0048 F4000000 		.4byte	.LFE30-.Ltext0
 2651 004c 0200     		.2byte	0x2
 2652 004e 7D       		.byte	0x7d
 2653 004f 08       		.sleb128 8
 2654 0050 00000000 		.4byte	0
 2655 0054 00000000 		.4byte	0
 2656              	.LLST2:
 2657 0058 F4000000 		.4byte	.LFB31-.Ltext0
 2658 005c F6000000 		.4byte	.LCFI4-.Ltext0
 2659 0060 0200     		.2byte	0x2
 2660 0062 7D       		.byte	0x7d
 2661 0063 00       		.sleb128 0
 2662 0064 F6000000 		.4byte	.LCFI4-.Ltext0
 2663 0068 68020000 		.4byte	.LCFI5-.Ltext0
 2664 006c 0200     		.2byte	0x2
 2665 006e 7D       		.byte	0x7d
 2666 006f 20       		.sleb128 32
ARM GAS  /tmp/ccvxPp7R.s 			page 59


 2667 0070 68020000 		.4byte	.LCFI5-.Ltext0
 2668 0074 6A020000 		.4byte	.LFE31-.Ltext0
 2669 0078 0200     		.2byte	0x2
 2670 007a 7D       		.byte	0x7d
 2671 007b 00       		.sleb128 0
 2672 007c 00000000 		.4byte	0
 2673 0080 00000000 		.4byte	0
 2674              	.LLST3:
 2675 0084 6C020000 		.4byte	.LFB32-.Ltext0
 2676 0088 6E020000 		.4byte	.LCFI6-.Ltext0
 2677 008c 0200     		.2byte	0x2
 2678 008e 7D       		.byte	0x7d
 2679 008f 00       		.sleb128 0
 2680 0090 6E020000 		.4byte	.LCFI6-.Ltext0
 2681 0094 86020000 		.4byte	.LCFI7-.Ltext0
 2682 0098 0200     		.2byte	0x2
 2683 009a 7D       		.byte	0x7d
 2684 009b 08       		.sleb128 8
 2685 009c 86020000 		.4byte	.LCFI7-.Ltext0
 2686 00a0 88020000 		.4byte	.LFE32-.Ltext0
 2687 00a4 0200     		.2byte	0x2
 2688 00a6 7D       		.byte	0x7d
 2689 00a7 00       		.sleb128 0
 2690 00a8 00000000 		.4byte	0
 2691 00ac 00000000 		.4byte	0
 2692              	.LLST4:
 2693 00b0 88020000 		.4byte	.LFB33-.Ltext0
 2694 00b4 8A020000 		.4byte	.LCFI8-.Ltext0
 2695 00b8 0200     		.2byte	0x2
 2696 00ba 7D       		.byte	0x7d
 2697 00bb 00       		.sleb128 0
 2698 00bc 8A020000 		.4byte	.LCFI8-.Ltext0
 2699 00c0 BC020000 		.4byte	.LCFI9-.Ltext0
 2700 00c4 0200     		.2byte	0x2
 2701 00c6 7D       		.byte	0x7d
 2702 00c7 10       		.sleb128 16
 2703 00c8 BC020000 		.4byte	.LCFI9-.Ltext0
 2704 00cc BE020000 		.4byte	.LFE33-.Ltext0
 2705 00d0 0200     		.2byte	0x2
 2706 00d2 7D       		.byte	0x7d
 2707 00d3 00       		.sleb128 0
 2708 00d4 00000000 		.4byte	0
 2709 00d8 00000000 		.4byte	0
 2710              	.LLST5:
 2711 00dc C0020000 		.4byte	.LFB34-.Ltext0
 2712 00e0 C2020000 		.4byte	.LCFI10-.Ltext0
 2713 00e4 0200     		.2byte	0x2
 2714 00e6 7D       		.byte	0x7d
 2715 00e7 00       		.sleb128 0
 2716 00e8 C2020000 		.4byte	.LCFI10-.Ltext0
 2717 00ec CE020000 		.4byte	.LCFI11-.Ltext0
 2718 00f0 0200     		.2byte	0x2
 2719 00f2 7D       		.byte	0x7d
 2720 00f3 08       		.sleb128 8
 2721 00f4 CE020000 		.4byte	.LCFI11-.Ltext0
 2722 00f8 D0020000 		.4byte	.LFE34-.Ltext0
 2723 00fc 0200     		.2byte	0x2
ARM GAS  /tmp/ccvxPp7R.s 			page 60


 2724 00fe 7D       		.byte	0x7d
 2725 00ff 00       		.sleb128 0
 2726 0100 00000000 		.4byte	0
 2727 0104 00000000 		.4byte	0
 2728              	.LLST6:
 2729 0108 D0020000 		.4byte	.LFB35-.Ltext0
 2730 010c D2020000 		.4byte	.LCFI12-.Ltext0
 2731 0110 0200     		.2byte	0x2
 2732 0112 7D       		.byte	0x7d
 2733 0113 00       		.sleb128 0
 2734 0114 D2020000 		.4byte	.LCFI12-.Ltext0
 2735 0118 04030000 		.4byte	.LCFI13-.Ltext0
 2736 011c 0200     		.2byte	0x2
 2737 011e 7D       		.byte	0x7d
 2738 011f 10       		.sleb128 16
 2739 0120 04030000 		.4byte	.LCFI13-.Ltext0
 2740 0124 06030000 		.4byte	.LFE35-.Ltext0
 2741 0128 0200     		.2byte	0x2
 2742 012a 7D       		.byte	0x7d
 2743 012b 00       		.sleb128 0
 2744 012c 00000000 		.4byte	0
 2745 0130 00000000 		.4byte	0
 2746              	.LLST7:
 2747 0134 08030000 		.4byte	.LFB36-.Ltext0
 2748 0138 0A030000 		.4byte	.LCFI14-.Ltext0
 2749 013c 0200     		.2byte	0x2
 2750 013e 7D       		.byte	0x7d
 2751 013f 00       		.sleb128 0
 2752 0140 0A030000 		.4byte	.LCFI14-.Ltext0
 2753 0144 16030000 		.4byte	.LCFI15-.Ltext0
 2754 0148 0200     		.2byte	0x2
 2755 014a 7D       		.byte	0x7d
 2756 014b 08       		.sleb128 8
 2757 014c 16030000 		.4byte	.LCFI15-.Ltext0
 2758 0150 18030000 		.4byte	.LFE36-.Ltext0
 2759 0154 0200     		.2byte	0x2
 2760 0156 7D       		.byte	0x7d
 2761 0157 00       		.sleb128 0
 2762 0158 00000000 		.4byte	0
 2763 015c 00000000 		.4byte	0
 2764              	.LLST8:
 2765 0160 18030000 		.4byte	.LFB37-.Ltext0
 2766 0164 1A030000 		.4byte	.LCFI16-.Ltext0
 2767 0168 0200     		.2byte	0x2
 2768 016a 7D       		.byte	0x7d
 2769 016b 00       		.sleb128 0
 2770 016c 1A030000 		.4byte	.LCFI16-.Ltext0
 2771 0170 2C030000 		.4byte	.LCFI17-.Ltext0
 2772 0174 0200     		.2byte	0x2
 2773 0176 7D       		.byte	0x7d
 2774 0177 08       		.sleb128 8
 2775 0178 2C030000 		.4byte	.LCFI17-.Ltext0
 2776 017c 2E030000 		.4byte	.LFE37-.Ltext0
 2777 0180 0200     		.2byte	0x2
 2778 0182 7D       		.byte	0x7d
 2779 0183 00       		.sleb128 0
 2780 0184 00000000 		.4byte	0
ARM GAS  /tmp/ccvxPp7R.s 			page 61


 2781 0188 00000000 		.4byte	0
 2782              	.LLST9:
 2783 018c 30030000 		.4byte	.LFB38-.Ltext0
 2784 0190 32030000 		.4byte	.LCFI18-.Ltext0
 2785 0194 0200     		.2byte	0x2
 2786 0196 7D       		.byte	0x7d
 2787 0197 00       		.sleb128 0
 2788 0198 32030000 		.4byte	.LCFI18-.Ltext0
 2789 019c 44030000 		.4byte	.LCFI19-.Ltext0
 2790 01a0 0200     		.2byte	0x2
 2791 01a2 7D       		.byte	0x7d
 2792 01a3 08       		.sleb128 8
 2793 01a4 44030000 		.4byte	.LCFI19-.Ltext0
 2794 01a8 46030000 		.4byte	.LFE38-.Ltext0
 2795 01ac 0200     		.2byte	0x2
 2796 01ae 7D       		.byte	0x7d
 2797 01af 00       		.sleb128 0
 2798 01b0 00000000 		.4byte	0
 2799 01b4 00000000 		.4byte	0
 2800              	.LLST10:
 2801 01b8 48030000 		.4byte	.LFB39-.Ltext0
 2802 01bc 4A030000 		.4byte	.LCFI20-.Ltext0
 2803 01c0 0200     		.2byte	0x2
 2804 01c2 7D       		.byte	0x7d
 2805 01c3 00       		.sleb128 0
 2806 01c4 4A030000 		.4byte	.LCFI20-.Ltext0
 2807 01c8 74030000 		.4byte	.LCFI21-.Ltext0
 2808 01cc 0200     		.2byte	0x2
 2809 01ce 7D       		.byte	0x7d
 2810 01cf 08       		.sleb128 8
 2811 01d0 74030000 		.4byte	.LCFI21-.Ltext0
 2812 01d4 76030000 		.4byte	.LFE39-.Ltext0
 2813 01d8 0200     		.2byte	0x2
 2814 01da 7D       		.byte	0x7d
 2815 01db 00       		.sleb128 0
 2816 01dc 00000000 		.4byte	0
 2817 01e0 00000000 		.4byte	0
 2818              	.LLST11:
 2819 01e4 78030000 		.4byte	.LFB40-.Ltext0
 2820 01e8 7A030000 		.4byte	.LCFI22-.Ltext0
 2821 01ec 0200     		.2byte	0x2
 2822 01ee 7D       		.byte	0x7d
 2823 01ef 00       		.sleb128 0
 2824 01f0 7A030000 		.4byte	.LCFI22-.Ltext0
 2825 01f4 8C030000 		.4byte	.LCFI23-.Ltext0
 2826 01f8 0200     		.2byte	0x2
 2827 01fa 7D       		.byte	0x7d
 2828 01fb 08       		.sleb128 8
 2829 01fc 8C030000 		.4byte	.LCFI23-.Ltext0
 2830 0200 8E030000 		.4byte	.LFE40-.Ltext0
 2831 0204 0200     		.2byte	0x2
 2832 0206 7D       		.byte	0x7d
 2833 0207 00       		.sleb128 0
 2834 0208 00000000 		.4byte	0
 2835 020c 00000000 		.4byte	0
 2836              	.LLST12:
 2837 0210 90030000 		.4byte	.LFB41-.Ltext0
ARM GAS  /tmp/ccvxPp7R.s 			page 62


 2838 0214 92030000 		.4byte	.LCFI24-.Ltext0
 2839 0218 0200     		.2byte	0x2
 2840 021a 7D       		.byte	0x7d
 2841 021b 00       		.sleb128 0
 2842 021c 92030000 		.4byte	.LCFI24-.Ltext0
 2843 0220 CC030000 		.4byte	.LCFI25-.Ltext0
 2844 0224 0200     		.2byte	0x2
 2845 0226 7D       		.byte	0x7d
 2846 0227 10       		.sleb128 16
 2847 0228 CC030000 		.4byte	.LCFI25-.Ltext0
 2848 022c CE030000 		.4byte	.LFE41-.Ltext0
 2849 0230 0200     		.2byte	0x2
 2850 0232 7D       		.byte	0x7d
 2851 0233 00       		.sleb128 0
 2852 0234 00000000 		.4byte	0
 2853 0238 00000000 		.4byte	0
 2854              	.LLST13:
 2855 023c D0030000 		.4byte	.LFB42-.Ltext0
 2856 0240 D2030000 		.4byte	.LCFI26-.Ltext0
 2857 0244 0200     		.2byte	0x2
 2858 0246 7D       		.byte	0x7d
 2859 0247 00       		.sleb128 0
 2860 0248 D2030000 		.4byte	.LCFI26-.Ltext0
 2861 024c 12040000 		.4byte	.LCFI27-.Ltext0
 2862 0250 0200     		.2byte	0x2
 2863 0252 7D       		.byte	0x7d
 2864 0253 10       		.sleb128 16
 2865 0254 12040000 		.4byte	.LCFI27-.Ltext0
 2866 0258 18040000 		.4byte	.LFE42-.Ltext0
 2867 025c 0200     		.2byte	0x2
 2868 025e 7D       		.byte	0x7d
 2869 025f 00       		.sleb128 0
 2870 0260 00000000 		.4byte	0
 2871 0264 00000000 		.4byte	0
 2872              	.LLST14:
 2873 0268 18040000 		.4byte	.LFB43-.Ltext0
 2874 026c 1A040000 		.4byte	.LCFI28-.Ltext0
 2875 0270 0200     		.2byte	0x2
 2876 0272 7D       		.byte	0x7d
 2877 0273 00       		.sleb128 0
 2878 0274 1A040000 		.4byte	.LCFI28-.Ltext0
 2879 0278 2A040000 		.4byte	.LCFI29-.Ltext0
 2880 027c 0200     		.2byte	0x2
 2881 027e 7D       		.byte	0x7d
 2882 027f 08       		.sleb128 8
 2883 0280 2A040000 		.4byte	.LCFI29-.Ltext0
 2884 0284 30040000 		.4byte	.LFE43-.Ltext0
 2885 0288 0200     		.2byte	0x2
 2886 028a 7D       		.byte	0x7d
 2887 028b 00       		.sleb128 0
 2888 028c 00000000 		.4byte	0
 2889 0290 00000000 		.4byte	0
 2890              	.LLST15:
 2891 0294 30040000 		.4byte	.LFB44-.Ltext0
 2892 0298 32040000 		.4byte	.LCFI30-.Ltext0
 2893 029c 0200     		.2byte	0x2
 2894 029e 7D       		.byte	0x7d
ARM GAS  /tmp/ccvxPp7R.s 			page 63


 2895 029f 00       		.sleb128 0
 2896 02a0 32040000 		.4byte	.LCFI30-.Ltext0
 2897 02a4 04050000 		.4byte	.LCFI31-.Ltext0
 2898 02a8 0200     		.2byte	0x2
 2899 02aa 7D       		.byte	0x7d
 2900 02ab 18       		.sleb128 24
 2901 02ac 04050000 		.4byte	.LCFI31-.Ltext0
 2902 02b0 0C050000 		.4byte	.LFE44-.Ltext0
 2903 02b4 0200     		.2byte	0x2
 2904 02b6 7D       		.byte	0x7d
 2905 02b7 00       		.sleb128 0
 2906 02b8 00000000 		.4byte	0
 2907 02bc 00000000 		.4byte	0
 2908              	.LLST16:
 2909 02c0 0C050000 		.4byte	.LFB45-.Ltext0
 2910 02c4 0E050000 		.4byte	.LCFI32-.Ltext0
 2911 02c8 0200     		.2byte	0x2
 2912 02ca 7D       		.byte	0x7d
 2913 02cb 00       		.sleb128 0
 2914 02cc 0E050000 		.4byte	.LCFI32-.Ltext0
 2915 02d0 10050000 		.4byte	.LCFI33-.Ltext0
 2916 02d4 0200     		.2byte	0x2
 2917 02d6 7D       		.byte	0x7d
 2918 02d7 04       		.sleb128 4
 2919 02d8 10050000 		.4byte	.LCFI33-.Ltext0
 2920 02dc 94050000 		.4byte	.LCFI34-.Ltext0
 2921 02e0 0200     		.2byte	0x2
 2922 02e2 7D       		.byte	0x7d
 2923 02e3 18       		.sleb128 24
 2924 02e4 94050000 		.4byte	.LCFI34-.Ltext0
 2925 02e8 98050000 		.4byte	.LCFI35-.Ltext0
 2926 02ec 0200     		.2byte	0x2
 2927 02ee 7D       		.byte	0x7d
 2928 02ef 04       		.sleb128 4
 2929 02f0 98050000 		.4byte	.LCFI35-.Ltext0
 2930 02f4 A0050000 		.4byte	.LFE45-.Ltext0
 2931 02f8 0200     		.2byte	0x2
 2932 02fa 7D       		.byte	0x7d
 2933 02fb 00       		.sleb128 0
 2934 02fc 00000000 		.4byte	0
 2935 0300 00000000 		.4byte	0
 2936              	.LLST17:
 2937 0304 A0050000 		.4byte	.LFB46-.Ltext0
 2938 0308 A2050000 		.4byte	.LCFI36-.Ltext0
 2939 030c 0200     		.2byte	0x2
 2940 030e 7D       		.byte	0x7d
 2941 030f 00       		.sleb128 0
 2942 0310 A2050000 		.4byte	.LCFI36-.Ltext0
 2943 0314 AC050000 		.4byte	.LCFI37-.Ltext0
 2944 0318 0200     		.2byte	0x2
 2945 031a 7D       		.byte	0x7d
 2946 031b 08       		.sleb128 8
 2947 031c AC050000 		.4byte	.LCFI37-.Ltext0
 2948 0320 B4050000 		.4byte	.LFE46-.Ltext0
 2949 0324 0200     		.2byte	0x2
 2950 0326 7D       		.byte	0x7d
 2951 0327 00       		.sleb128 0
ARM GAS  /tmp/ccvxPp7R.s 			page 64


 2952 0328 00000000 		.4byte	0
 2953 032c 00000000 		.4byte	0
 2954              		.section	.debug_aranges,"",%progbits
 2955 0000 1C000000 		.4byte	0x1c
 2956 0004 0200     		.2byte	0x2
 2957 0006 00000000 		.4byte	.Ldebug_info0
 2958 000a 04       		.byte	0x4
 2959 000b 00       		.byte	0
 2960 000c 0000     		.2byte	0
 2961 000e 0000     		.2byte	0
 2962 0010 00000000 		.4byte	.Ltext0
 2963 0014 B4050000 		.4byte	.Letext0-.Ltext0
 2964 0018 00000000 		.4byte	0
 2965 001c 00000000 		.4byte	0
 2966              		.section	.debug_line,"",%progbits
 2967              	.Ldebug_line0:
 2968 0000 D2020000 		.section	.debug_str,"MS",%progbits,1
 2968      0200E201 
 2968      00000201 
 2968      FB0E0D00 
 2968      01010101 
 2969              	.LASF21:
 2970 0000 4750494F 		.ascii	"GPIO_TypeDef\000"
 2970      5F547970 
 2970      65446566 
 2970      00
 2971              	.LASF54:
 2972 000d 70696E70 		.ascii	"pinpos\000"
 2972      6F7300
 2973              	.LASF41:
 2974 0014 4750494F 		.ascii	"GPIO_Pin\000"
 2974      5F50696E 
 2974      00
 2975              	.LASF46:
 2976 001d 4269745F 		.ascii	"Bit_SET\000"
 2976      53455400 
 2977              	.LASF62:
 2978 0025 4750494F 		.ascii	"GPIO_ReadOutputData\000"
 2978      5F526561 
 2978      644F7574 
 2978      70757444 
 2978      61746100 
 2979              	.LASF73:
 2980 0039 4750494F 		.ascii	"GPIO_EventOutputCmd\000"
 2980      5F457665 
 2980      6E744F75 
 2980      74707574 
 2980      436D6400 
 2981              	.LASF76:
 2982 004d 4750494F 		.ascii	"GPIO_Remap\000"
 2982      5F52656D 
 2982      617000
 2983              	.LASF63:
 2984 0058 4750494F 		.ascii	"GPIO_SetBits\000"
 2984      5F536574 
 2984      42697473 
 2984      00
ARM GAS  /tmp/ccvxPp7R.s 			page 65


 2985              	.LASF2:
 2986 0065 73686F72 		.ascii	"short int\000"
 2986      7420696E 
 2986      7400
 2987              	.LASF57:
 2988 006f 4750494F 		.ascii	"GPIO_StructInit\000"
 2988      5F537472 
 2988      75637449 
 2988      6E697400 
 2989              	.LASF15:
 2990 007f 73697A65 		.ascii	"sizetype\000"
 2990      74797065 
 2990      00
 2991              	.LASF66:
 2992 0088 42697456 		.ascii	"BitVal\000"
 2992      616C00
 2993              	.LASF45:
 2994 008f 4269745F 		.ascii	"Bit_RESET\000"
 2994      52455345 
 2994      5400
 2995              	.LASF65:
 2996 0099 4750494F 		.ascii	"GPIO_WriteBit\000"
 2996      5F577269 
 2996      74654269 
 2996      7400
 2997              	.LASF7:
 2998 00a7 5F5F7569 		.ascii	"__uint32_t\000"
 2998      6E743332 
 2998      5F7400
 2999              	.LASF4:
 3000 00b2 5F5F7569 		.ascii	"__uint16_t\000"
 3000      6E743136 
 3000      5F7400
 3001              	.LASF84:
 3002 00bd 2F686F6D 		.ascii	"/home/vnpro/Programming/MCU/stm32f103/Appz/Blink\000"
 3002      652F766E 
 3002      70726F2F 
 3002      50726F67 
 3002      72616D6D 
 3003              	.LASF81:
 3004 00ee 4750494F 		.ascii	"GPIO_ETH_MediaInterface\000"
 3004      5F455448 
 3004      5F4D6564 
 3004      6961496E 
 3004      74657266 
 3005              	.LASF17:
 3006 0106 454E4142 		.ascii	"ENABLE\000"
 3006      4C4500
 3007              	.LASF42:
 3008 010d 4750494F 		.ascii	"GPIO_Speed\000"
 3008      5F537065 
 3008      656400
 3009              	.LASF49:
 3010 0118 4750494F 		.ascii	"GPIO_Init\000"
 3010      5F496E69 
 3010      7400
 3011              	.LASF12:
ARM GAS  /tmp/ccvxPp7R.s 			page 66


 3012 0122 75696E74 		.ascii	"uint8_t\000"
 3012      385F7400 
 3013              	.LASF24:
 3014 012a 45585449 		.ascii	"EXTICR\000"
 3014      435200
 3015              	.LASF36:
 3016 0131 4750494F 		.ascii	"GPIO_Mode_Out_OD\000"
 3016      5F4D6F64 
 3016      655F4F75 
 3016      745F4F44 
 3016      00
 3017              	.LASF56:
 3018 0142 70696E6D 		.ascii	"pinmask\000"
 3018      61736B00 
 3019              	.LASF16:
 3020 014a 44495341 		.ascii	"DISABLE\000"
 3020      424C4500 
 3021              	.LASF0:
 3022 0152 7369676E 		.ascii	"signed char\000"
 3022      65642063 
 3022      68617200 
 3023              	.LASF39:
 3024 015e 4750494F 		.ascii	"GPIO_Mode_AF_PP\000"
 3024      5F4D6F64 
 3024      655F4146 
 3024      5F505000 
 3025              	.LASF9:
 3026 016e 6C6F6E67 		.ascii	"long long int\000"
 3026      206C6F6E 
 3026      6720696E 
 3026      7400
 3027              	.LASF6:
 3028 017c 6C6F6E67 		.ascii	"long int\000"
 3028      20696E74 
 3028      00
 3029              	.LASF48:
 3030 0185 4750494F 		.ascii	"GPIO_DeInit\000"
 3030      5F446549 
 3030      6E697400 
 3031              	.LASF70:
 3032 0191 4750494F 		.ascii	"GPIO_EventOutputConfig\000"
 3032      5F457665 
 3032      6E744F75 
 3032      74707574 
 3032      436F6E66 
 3033              	.LASF19:
 3034 01a8 42535252 		.ascii	"BSRR\000"
 3034      00
 3035              	.LASF3:
 3036 01ad 5F5F7569 		.ascii	"__uint8_t\000"
 3036      6E74385F 
 3036      7400
 3037              	.LASF82:
 3038 01b7 474E5520 		.ascii	"GNU C 4.9.3 20150529 (prerelease) -mcpu=cortex-m3 -"
 3038      4320342E 
 3038      392E3320 
 3038      32303135 
ARM GAS  /tmp/ccvxPp7R.s 			page 67


 3038      30353239 
 3039 01ea 6D746875 		.ascii	"mthumb -gdwarf-2 -O0 -fomit-frame-pointer\000"
 3039      6D62202D 
 3039      67647761 
 3039      72662D32 
 3039      202D4F30 
 3040              	.LASF59:
 3041 0214 4750494F 		.ascii	"GPIO_ReadInputDataBit\000"
 3041      5F526561 
 3041      64496E70 
 3041      75744461 
 3041      74614269 
 3042              	.LASF28:
 3043 022a 4750494F 		.ascii	"GPIO_Speed_10MHz\000"
 3043      5F537065 
 3043      65645F31 
 3043      304D487A 
 3043      00
 3044              	.LASF55:
 3045 023b 746D7072 		.ascii	"tmpreg\000"
 3045      656700
 3046              	.LASF58:
 3047 0242 62697473 		.ascii	"bitstatus\000"
 3047      74617475 
 3047      7300
 3048              	.LASF74:
 3049 024c 4E657753 		.ascii	"NewState\000"
 3049      74617465 
 3049      00
 3050              	.LASF1:
 3051 0255 756E7369 		.ascii	"unsigned char\000"
 3051      676E6564 
 3051      20636861 
 3051      7200
 3052              	.LASF79:
 3053 0263 4750494F 		.ascii	"GPIO_EXTILineConfig\000"
 3053      5F455854 
 3053      494C696E 
 3053      65436F6E 
 3053      66696700 
 3054              	.LASF29:
 3055 0277 4750494F 		.ascii	"GPIO_Speed_2MHz\000"
 3055      5F537065 
 3055      65645F32 
 3055      4D487A00 
 3056              	.LASF10:
 3057 0287 6C6F6E67 		.ascii	"long long unsigned int\000"
 3057      206C6F6E 
 3057      6720756E 
 3057      7369676E 
 3057      65642069 
 3058              	.LASF14:
 3059 029e 75696E74 		.ascii	"uint32_t\000"
 3059      33325F74 
 3059      00
 3060              	.LASF51:
 3061 02a7 4750494F 		.ascii	"GPIO_InitStruct\000"
ARM GAS  /tmp/ccvxPp7R.s 			page 68


 3061      5F496E69 
 3061      74537472 
 3061      75637400 
 3062              	.LASF11:
 3063 02b7 756E7369 		.ascii	"unsigned int\000"
 3063      676E6564 
 3063      20696E74 
 3063      00
 3064              	.LASF13:
 3065 02c4 75696E74 		.ascii	"uint16_t\000"
 3065      31365F74 
 3065      00
 3066              	.LASF83:
 3067 02cd 2E2E2F2E 		.ascii	"../../STM32F10x_StdPeriph_Lib_V3.5.0/Libraries/STM3"
 3067      2E2F5354 
 3067      4D333246 
 3067      3130785F 
 3067      53746450 
 3068 0300 32463130 		.ascii	"2F10x_StdPeriph_Driver/src/stm32f10x_gpio.c\000"
 3068      785F5374 
 3068      64506572 
 3068      6970685F 
 3068      44726976 
 3069              	.LASF52:
 3070 032c 63757272 		.ascii	"currentmode\000"
 3070      656E746D 
 3070      6F646500 
 3071              	.LASF75:
 3072 0338 4750494F 		.ascii	"GPIO_PinRemapConfig\000"
 3072      5F50696E 
 3072      52656D61 
 3072      70436F6E 
 3072      66696700 
 3073              	.LASF20:
 3074 034c 4C434B52 		.ascii	"LCKR\000"
 3074      00
 3075              	.LASF72:
 3076 0351 4750494F 		.ascii	"GPIO_PinSource\000"
 3076      5F50696E 
 3076      536F7572 
 3076      636500
 3077              	.LASF60:
 3078 0360 4750494F 		.ascii	"GPIO_ReadInputData\000"
 3078      5F526561 
 3078      64496E70 
 3078      75744461 
 3078      746100
 3079              	.LASF78:
 3080 0373 746D706D 		.ascii	"tmpmask\000"
 3080      61736B00 
 3081              	.LASF34:
 3082 037b 4750494F 		.ascii	"GPIO_Mode_IPD\000"
 3082      5F4D6F64 
 3082      655F4950 
 3082      4400
 3083              	.LASF69:
 3084 0389 4750494F 		.ascii	"GPIO_PinLockConfig\000"
ARM GAS  /tmp/ccvxPp7R.s 			page 69


 3084      5F50696E 
 3084      4C6F636B 
 3084      436F6E66 
 3084      696700
 3085              	.LASF5:
 3086 039c 73686F72 		.ascii	"short unsigned int\000"
 3086      7420756E 
 3086      7369676E 
 3086      65642069 
 3086      6E7400
 3087              	.LASF53:
 3088 03af 63757272 		.ascii	"currentpin\000"
 3088      656E7470 
 3088      696E00
 3089              	.LASF67:
 3090 03ba 4750494F 		.ascii	"GPIO_Write\000"
 3090      5F577269 
 3090      746500
 3091              	.LASF35:
 3092 03c5 4750494F 		.ascii	"GPIO_Mode_IPU\000"
 3092      5F4D6F64 
 3092      655F4950 
 3092      5500
 3093              	.LASF77:
 3094 03d3 746D7031 		.ascii	"tmp1\000"
 3094      00
 3095              	.LASF26:
 3096 03d8 4D415052 		.ascii	"MAPR2\000"
 3096      3200
 3097              	.LASF25:
 3098 03de 52455345 		.ascii	"RESERVED0\000"
 3098      52564544 
 3098      3000
 3099              	.LASF32:
 3100 03e8 4750494F 		.ascii	"GPIO_Mode_AIN\000"
 3100      5F4D6F64 
 3100      655F4149 
 3100      4E00
 3101              	.LASF80:
 3102 03f6 4750494F 		.ascii	"GPIO_ETH_MediaInterfaceConfig\000"
 3102      5F455448 
 3102      5F4D6564 
 3102      6961496E 
 3102      74657266 
 3103              	.LASF8:
 3104 0414 6C6F6E67 		.ascii	"long unsigned int\000"
 3104      20756E73 
 3104      69676E65 
 3104      6420696E 
 3104      7400
 3105              	.LASF27:
 3106 0426 4146494F 		.ascii	"AFIO_TypeDef\000"
 3106      5F547970 
 3106      65446566 
 3106      00
 3107              	.LASF47:
 3108 0433 42697441 		.ascii	"BitAction\000"
ARM GAS  /tmp/ccvxPp7R.s 			page 70


 3108      6374696F 
 3108      6E00
 3109              	.LASF31:
 3110 043d 4750494F 		.ascii	"GPIOSpeed_TypeDef\000"
 3110      53706565 
 3110      645F5479 
 3110      70654465 
 3110      6600
 3111              	.LASF18:
 3112 044f 46756E63 		.ascii	"FunctionalState\000"
 3112      74696F6E 
 3112      616C5374 
 3112      61746500 
 3113              	.LASF23:
 3114 045f 4D415052 		.ascii	"MAPR\000"
 3114      00
 3115              	.LASF50:
 3116 0464 4750494F 		.ascii	"GPIOx\000"
 3116      7800
 3117              	.LASF37:
 3118 046a 4750494F 		.ascii	"GPIO_Mode_Out_PP\000"
 3118      5F4D6F64 
 3118      655F4F75 
 3118      745F5050 
 3118      00
 3119              	.LASF22:
 3120 047b 45564352 		.ascii	"EVCR\000"
 3120      00
 3121              	.LASF30:
 3122 0480 4750494F 		.ascii	"GPIO_Speed_50MHz\000"
 3122      5F537065 
 3122      65645F35 
 3122      304D487A 
 3122      00
 3123              	.LASF71:
 3124 0491 4750494F 		.ascii	"GPIO_PortSource\000"
 3124      5F506F72 
 3124      74536F75 
 3124      72636500 
 3125              	.LASF44:
 3126 04a1 4750494F 		.ascii	"GPIO_InitTypeDef\000"
 3126      5F496E69 
 3126      74547970 
 3126      65446566 
 3126      00
 3127              	.LASF40:
 3128 04b2 4750494F 		.ascii	"GPIOMode_TypeDef\000"
 3128      4D6F6465 
 3128      5F547970 
 3128      65446566 
 3128      00
 3129              	.LASF68:
 3130 04c3 506F7274 		.ascii	"PortVal\000"
 3130      56616C00 
 3131              	.LASF64:
 3132 04cb 4750494F 		.ascii	"GPIO_ResetBits\000"
 3132      5F526573 
ARM GAS  /tmp/ccvxPp7R.s 			page 71


 3132      65744269 
 3132      747300
 3133              	.LASF33:
 3134 04da 4750494F 		.ascii	"GPIO_Mode_IN_FLOATING\000"
 3134      5F4D6F64 
 3134      655F494E 
 3134      5F464C4F 
 3134      4154494E 
 3135              	.LASF86:
 3136 04f0 49544D5F 		.ascii	"ITM_RxBuffer\000"
 3136      52784275 
 3136      66666572 
 3136      00
 3137              	.LASF61:
 3138 04fd 4750494F 		.ascii	"GPIO_ReadOutputDataBit\000"
 3138      5F526561 
 3138      644F7574 
 3138      70757444 
 3138      61746142 
 3139              	.LASF85:
 3140 0514 4750494F 		.ascii	"GPIO_AFIODeInit\000"
 3140      5F414649 
 3140      4F446549 
 3140      6E697400 
 3141              	.LASF38:
 3142 0524 4750494F 		.ascii	"GPIO_Mode_AF_OD\000"
 3142      5F4D6F64 
 3142      655F4146 
 3142      5F4F4400 
 3143              	.LASF43:
 3144 0534 4750494F 		.ascii	"GPIO_Mode\000"
 3144      5F4D6F64 
 3144      6500
 3145              		.ident	"GCC: (15:4.9.3+svn231177-1) 4.9.3 20150529 (prerelease)"
ARM GAS  /tmp/ccvxPp7R.s 			page 72


DEFINED SYMBOLS
                            *ABS*:0000000000000000 stm32f10x_gpio.c
     /tmp/ccvxPp7R.s:53     .text:0000000000000000 $t
     /tmp/ccvxPp7R.s:58     .text:0000000000000000 GPIO_DeInit
     /tmp/ccvxPp7R.s:186    .text:00000000000000c4 $d
     /tmp/ccvxPp7R.s:196    .text:00000000000000e0 $t
     /tmp/ccvxPp7R.s:201    .text:00000000000000e0 GPIO_AFIODeInit
     /tmp/ccvxPp7R.s:230    .text:00000000000000f4 GPIO_Init
     /tmp/ccvxPp7R.s:479    .text:000000000000026c GPIO_StructInit
     /tmp/ccvxPp7R.s:516    .text:0000000000000288 GPIO_ReadInputDataBit
     /tmp/ccvxPp7R.s:565    .text:00000000000002c0 GPIO_ReadInputData
     /tmp/ccvxPp7R.s:595    .text:00000000000002d0 GPIO_ReadOutputDataBit
     /tmp/ccvxPp7R.s:644    .text:0000000000000308 GPIO_ReadOutputData
     /tmp/ccvxPp7R.s:674    .text:0000000000000318 GPIO_SetBits
     /tmp/ccvxPp7R.s:705    .text:0000000000000330 GPIO_ResetBits
     /tmp/ccvxPp7R.s:736    .text:0000000000000348 GPIO_WriteBit
     /tmp/ccvxPp7R.s:780    .text:0000000000000378 GPIO_Write
     /tmp/ccvxPp7R.s:811    .text:0000000000000390 GPIO_PinLockConfig
     /tmp/ccvxPp7R.s:866    .text:00000000000003d0 GPIO_EventOutputConfig
     /tmp/ccvxPp7R.s:917    .text:0000000000000414 $d
     /tmp/ccvxPp7R.s:921    .text:0000000000000418 $t
     /tmp/ccvxPp7R.s:926    .text:0000000000000418 GPIO_EventOutputCmd
     /tmp/ccvxPp7R.s:951    .text:000000000000042c $d
     /tmp/ccvxPp7R.s:955    .text:0000000000000430 $t
     /tmp/ccvxPp7R.s:960    .text:0000000000000430 GPIO_PinRemapConfig
     /tmp/ccvxPp7R.s:1100   .text:0000000000000508 $d
     /tmp/ccvxPp7R.s:1104   .text:000000000000050c $t
     /tmp/ccvxPp7R.s:1109   .text:000000000000050c GPIO_EXTILineConfig
     /tmp/ccvxPp7R.s:1188   .text:000000000000059c $d
     /tmp/ccvxPp7R.s:1192   .text:00000000000005a0 $t
     /tmp/ccvxPp7R.s:1197   .text:00000000000005a0 GPIO_ETH_MediaInterfaceConfig
     /tmp/ccvxPp7R.s:1221   .text:00000000000005b0 $d
                     .debug_frame:0000000000000010 $d

UNDEFINED SYMBOLS
RCC_APB2PeriphResetCmd
