ARM GAS  /tmp/ccvxPp7R.s 			page 1


   1              		.syntax unified
   2              		.cpu cortex-m3
   3              		.fpu softvfp
   4              		.eabi_attribute 20, 1	@ Tag_ABI_FP_denormal
   5              		.eabi_attribute 21, 1	@ Tag_ABI_FP_exceptions
   6              		.eabi_attribute 23, 3	@ Tag_ABI_FP_number_model
   7              		.eabi_attribute 24, 1	@ Tag_ABI_align8_needed
   8              		.eabi_attribute 25, 1	@ Tag_ABI_align8_preserved
   9              		.eabi_attribute 26, 1	@ Tag_ABI_enum_size
  10              		.eabi_attribute 30, 6	@ Tag_ABI_optimization_goals
  11              		.eabi_attribute 34, 1	@ Tag_CPU_unaligned_access
  12              		.eabi_attribute 18, 4	@ Tag_ABI_PCS_wchar_t
  13              		.file	"stm32f10x_gpio.c"
  14              	@ GNU C (15:4.9.3+svn231177-1) version 4.9.3 20150529 (prerelease) (arm-none-eabi)
  15              	@	compiled by GNU C version 5.2.1 20151129, GMP version 6.1.0, MPFR version 3.1.3, MPC version 1.0.
  16              	@ warning: MPFR header version 3.1.3 differs from library version 3.1.4.
  17              	@ GGC heuristics: --param ggc-min-expand=100 --param ggc-min-heapsize=131072
  18              	@ options passed:  -I .
  19              	@ -I ../../STM32F10x_StdPeriph_Lib_V3.5.0/Libraries/CMSIS/CM3/DeviceSupport/ST/STM32F10x
  20              	@ -I ../../STM32F10x_StdPeriph_Lib_V3.5.0/Libraries/CMSIS/CM3/CoreSupport
  21              	@ -I ../../STM32F10x_StdPeriph_Lib_V3.5.0/Libraries/STM32F10x_StdPeriph_Driver/inc
  22              	@ -I ./inc -imultilib armv7-m -D__USES_INITFINI__ -D STM32F10X_MD
  23              	@ -D USE_STDPERIPH_DRIVER -D __GNUC__ -D RUN_FROM_FLASH=1
  24              	@ ../../STM32F10x_StdPeriph_Lib_V3.5.0/Libraries/STM32F10x_StdPeriph_Driver/src/stm32f10x_gpio.c
  25              	@ -mcpu=cortex-m3 -mthumb
  26              	@ -auxbase-strip ../../STM32F10x_StdPeriph_Lib_V3.5.0/Libraries/STM32F10x_StdPeriph_Driver/src/stm3
  27              	@ -gdwarf-2 -O0 -Wall -Wstrict-prototypes -fomit-frame-pointer
  28              	@ -fverbose-asm
  29              	@ options enabled:  -faggressive-loop-optimizations -fauto-inc-dec -fcommon
  30              	@ -fdelete-null-pointer-checks -fdwarf2-cfi-asm -fearly-inlining
  31              	@ -feliminate-unused-debug-types -ffunction-cse -fgcse-lm -fgnu-runtime
  32              	@ -fgnu-unique -fident -finline-atomics -fira-hoist-pressure
  33              	@ -fira-share-save-slots -fira-share-spill-slots -fivopts
  34              	@ -fkeep-static-consts -fleading-underscore -flifetime-dse -fmath-errno
  35              	@ -fmerge-debug-strings -fomit-frame-pointer -fpeephole
  36              	@ -fprefetch-loop-arrays -freg-struct-return
  37              	@ -fsched-critical-path-heuristic -fsched-dep-count-heuristic
  38              	@ -fsched-group-heuristic -fsched-interblock -fsched-last-insn-heuristic
  39              	@ -fsched-rank-heuristic -fsched-spec -fsched-spec-insn-heuristic
  40              	@ -fsched-stalled-insns-dep -fshow-column -fsigned-zeros
  41              	@ -fsplit-ivs-in-unroller -fstrict-volatile-bitfields -fsync-libcalls
  42              	@ -ftrapping-math -ftree-coalesce-vars -ftree-cselim -ftree-forwprop
  43              	@ -ftree-loop-if-convert -ftree-loop-im -ftree-loop-ivcanon
  44              	@ -ftree-loop-optimize -ftree-parallelize-loops= -ftree-phiprop
  45              	@ -ftree-reassoc -ftree-scev-cprop -funit-at-a-time -fverbose-asm
  46              	@ -fzero-initialized-in-bss -mfix-cortex-m3-ldrd -mlittle-endian -mlra
  47              	@ -mpic-data-is-text-relative -msched-prolog -mthumb -munaligned-access
  48              	@ -mvectorize-with-neon-quad
  49              	
  50              		.text
  51              	.Ltext0:
  52              		.cfi_sections	.debug_frame
  53              		.align	2
  54              		.global	GPIO_DeInit
  55              		.thumb
  56              		.thumb_func
  57              		.type	GPIO_DeInit, %function
ARM GAS  /tmp/ccvxPp7R.s 			page 2


  58              	GPIO_DeInit:
  59              	.LFB29:
  60              		.file 1 "../../STM32F10x_StdPeriph_Lib_V3.5.0/Libraries/STM32F10x_StdPeriph_Driver/src/stm32f10x_g
   1:../../STM32F10x_StdPeriph_Lib_V3.5.0/Libraries/STM32F10x_StdPeriph_Driver/src/stm32f10x_gpio.c **** /**
   2:../../STM32F10x_StdPeriph_Lib_V3.5.0/Libraries/STM32F10x_StdPeriph_Driver/src/stm32f10x_gpio.c ****   ******************************************************************************
   3:../../STM32F10x_StdPeriph_Lib_V3.5.0/Libraries/STM32F10x_StdPeriph_Driver/src/stm32f10x_gpio.c ****   * @file    stm32f10x_gpio.c
   4:../../STM32F10x_StdPeriph_Lib_V3.5.0/Libraries/STM32F10x_StdPeriph_Driver/src/stm32f10x_gpio.c ****   * @author  MCD Application Team
   5:../../STM32F10x_StdPeriph_Lib_V3.5.0/Libraries/STM32F10x_StdPeriph_Driver/src/stm32f10x_gpio.c ****   * @version V3.5.0
   6:../../STM32F10x_StdPeriph_Lib_V3.5.0/Libraries/STM32F10x_StdPeriph_Driver/src/stm32f10x_gpio.c ****   * @date    11-March-2011
   7:../../STM32F10x_StdPeriph_Lib_V3.5.0/Libraries/STM32F10x_StdPeriph_Driver/src/stm32f10x_gpio.c ****   * @brief   This file provides all the GPIO firmware functions.
   8:../../STM32F10x_StdPeriph_Lib_V3.5.0/Libraries/STM32F10x_StdPeriph_Driver/src/stm32f10x_gpio.c ****   ******************************************************************************
   9:../../STM32F10x_StdPeriph_Lib_V3.5.0/Libraries/STM32F10x_StdPeriph_Driver/src/stm32f10x_gpio.c ****   * @attention
  10:../../STM32F10x_StdPeriph_Lib_V3.5.0/Libraries/STM32F10x_StdPeriph_Driver/src/stm32f10x_gpio.c ****   *
  11:../../STM32F10x_StdPeriph_Lib_V3.5.0/Libraries/STM32F10x_StdPeriph_Driver/src/stm32f10x_gpio.c ****   * THE PRESENT FIRMWARE WHICH IS FOR GUIDANCE ONLY AIMS AT PROVIDING CUSTOMERS
  12:../../STM32F10x_StdPeriph_Lib_V3.5.0/Libraries/STM32F10x_StdPeriph_Driver/src/stm32f10x_gpio.c ****   * WITH CODING INFORMATION REGARDING THEIR PRODUCTS IN ORDER FOR THEM TO SAVE
  13:../../STM32F10x_StdPeriph_Lib_V3.5.0/Libraries/STM32F10x_StdPeriph_Driver/src/stm32f10x_gpio.c ****   * TIME. AS A RESULT, STMICROELECTRONICS SHALL NOT BE HELD LIABLE FOR ANY
  14:../../STM32F10x_StdPeriph_Lib_V3.5.0/Libraries/STM32F10x_StdPeriph_Driver/src/stm32f10x_gpio.c ****   * DIRECT, INDIRECT OR CONSEQUENTIAL DAMAGES WITH RESPECT TO ANY CLAIMS ARISING
  15:../../STM32F10x_StdPeriph_Lib_V3.5.0/Libraries/STM32F10x_StdPeriph_Driver/src/stm32f10x_gpio.c ****   * FROM THE CONTENT OF SUCH FIRMWARE AND/OR THE USE MADE BY CUSTOMERS OF THE
  16:../../STM32F10x_StdPeriph_Lib_V3.5.0/Libraries/STM32F10x_StdPeriph_Driver/src/stm32f10x_gpio.c ****   * CODING INFORMATION CONTAINED HEREIN IN CONNECTION WITH THEIR PRODUCTS.
  17:../../STM32F10x_StdPeriph_Lib_V3.5.0/Libraries/STM32F10x_StdPeriph_Driver/src/stm32f10x_gpio.c ****   *
  18:../../STM32F10x_StdPeriph_Lib_V3.5.0/Libraries/STM32F10x_StdPeriph_Driver/src/stm32f10x_gpio.c ****   * <h2><center>&copy; COPYRIGHT 2011 STMicroelectronics</center></h2>
  19:../../STM32F10x_StdPeriph_Lib_V3.5.0/Libraries/STM32F10x_StdPeriph_Driver/src/stm32f10x_gpio.c ****   ******************************************************************************
  20:../../STM32F10x_StdPeriph_Lib_V3.5.0/Libraries/STM32F10x_StdPeriph_Driver/src/stm32f10x_gpio.c ****   */
  21:../../STM32F10x_StdPeriph_Lib_V3.5.0/Libraries/STM32F10x_StdPeriph_Driver/src/stm32f10x_gpio.c **** 
  22:../../STM32F10x_StdPeriph_Lib_V3.5.0/Libraries/STM32F10x_StdPeriph_Driver/src/stm32f10x_gpio.c **** /* Includes ------------------------------------------------------------------*/
  23:../../STM32F10x_StdPeriph_Lib_V3.5.0/Libraries/STM32F10x_StdPeriph_Driver/src/stm32f10x_gpio.c **** #include "stm32f10x_gpio.h"
  24:../../STM32F10x_StdPeriph_Lib_V3.5.0/Libraries/STM32F10x_StdPeriph_Driver/src/stm32f10x_gpio.c **** #include "stm32f10x_rcc.h"
  25:../../STM32F10x_StdPeriph_Lib_V3.5.0/Libraries/STM32F10x_StdPeriph_Driver/src/stm32f10x_gpio.c **** 
  26:../../STM32F10x_StdPeriph_Lib_V3.5.0/Libraries/STM32F10x_StdPeriph_Driver/src/stm32f10x_gpio.c **** /** @addtogroup STM32F10x_StdPeriph_Driver
  27:../../STM32F10x_StdPeriph_Lib_V3.5.0/Libraries/STM32F10x_StdPeriph_Driver/src/stm32f10x_gpio.c ****   * @{
  28:../../STM32F10x_StdPeriph_Lib_V3.5.0/Libraries/STM32F10x_StdPeriph_Driver/src/stm32f10x_gpio.c ****   */
  29:../../STM32F10x_StdPeriph_Lib_V3.5.0/Libraries/STM32F10x_StdPeriph_Driver/src/stm32f10x_gpio.c **** 
  30:../../STM32F10x_StdPeriph_Lib_V3.5.0/Libraries/STM32F10x_StdPeriph_Driver/src/stm32f10x_gpio.c **** /** @defgroup GPIO 
  31:../../STM32F10x_StdPeriph_Lib_V3.5.0/Libraries/STM32F10x_StdPeriph_Driver/src/stm32f10x_gpio.c ****   * @brief GPIO driver modules
  32:../../STM32F10x_StdPeriph_Lib_V3.5.0/Libraries/STM32F10x_StdPeriph_Driver/src/stm32f10x_gpio.c ****   * @{
  33:../../STM32F10x_StdPeriph_Lib_V3.5.0/Libraries/STM32F10x_StdPeriph_Driver/src/stm32f10x_gpio.c ****   */ 
  34:../../STM32F10x_StdPeriph_Lib_V3.5.0/Libraries/STM32F10x_StdPeriph_Driver/src/stm32f10x_gpio.c **** 
  35:../../STM32F10x_StdPeriph_Lib_V3.5.0/Libraries/STM32F10x_StdPeriph_Driver/src/stm32f10x_gpio.c **** /** @defgroup GPIO_Private_TypesDefinitions
  36:../../STM32F10x_StdPeriph_Lib_V3.5.0/Libraries/STM32F10x_StdPeriph_Driver/src/stm32f10x_gpio.c ****   * @{
  37:../../STM32F10x_StdPeriph_Lib_V3.5.0/Libraries/STM32F10x_StdPeriph_Driver/src/stm32f10x_gpio.c ****   */
  38:../../STM32F10x_StdPeriph_Lib_V3.5.0/Libraries/STM32F10x_StdPeriph_Driver/src/stm32f10x_gpio.c **** 
  39:../../STM32F10x_StdPeriph_Lib_V3.5.0/Libraries/STM32F10x_StdPeriph_Driver/src/stm32f10x_gpio.c **** /**
  40:../../STM32F10x_StdPeriph_Lib_V3.5.0/Libraries/STM32F10x_StdPeriph_Driver/src/stm32f10x_gpio.c ****   * @}
  41:../../STM32F10x_StdPeriph_Lib_V3.5.0/Libraries/STM32F10x_StdPeriph_Driver/src/stm32f10x_gpio.c ****   */
  42:../../STM32F10x_StdPeriph_Lib_V3.5.0/Libraries/STM32F10x_StdPeriph_Driver/src/stm32f10x_gpio.c **** 
  43:../../STM32F10x_StdPeriph_Lib_V3.5.0/Libraries/STM32F10x_StdPeriph_Driver/src/stm32f10x_gpio.c **** /** @defgroup GPIO_Private_Defines
  44:../../STM32F10x_StdPeriph_Lib_V3.5.0/Libraries/STM32F10x_StdPeriph_Driver/src/stm32f10x_gpio.c ****   * @{
  45:../../STM32F10x_StdPeriph_Lib_V3.5.0/Libraries/STM32F10x_StdPeriph_Driver/src/stm32f10x_gpio.c ****   */
  46:../../STM32F10x_StdPeriph_Lib_V3.5.0/Libraries/STM32F10x_StdPeriph_Driver/src/stm32f10x_gpio.c **** 
  47:../../STM32F10x_StdPeriph_Lib_V3.5.0/Libraries/STM32F10x_StdPeriph_Driver/src/stm32f10x_gpio.c **** /* ------------ RCC registers bit address in the alias region ----------------*/
  48:../../STM32F10x_StdPeriph_Lib_V3.5.0/Libraries/STM32F10x_StdPeriph_Driver/src/stm32f10x_gpio.c **** #define AFIO_OFFSET                 (AFIO_BASE - PERIPH_BASE)
  49:../../STM32F10x_StdPeriph_Lib_V3.5.0/Libraries/STM32F10x_StdPeriph_Driver/src/stm32f10x_gpio.c **** 
  50:../../STM32F10x_StdPeriph_Lib_V3.5.0/Libraries/STM32F10x_StdPeriph_Driver/src/stm32f10x_gpio.c **** /* --- EVENTCR Register -----*/
  51:../../STM32F10x_StdPeriph_Lib_V3.5.0/Libraries/STM32F10x_StdPeriph_Driver/src/stm32f10x_gpio.c **** 
  52:../../STM32F10x_StdPeriph_Lib_V3.5.0/Libraries/STM32F10x_StdPeriph_Driver/src/stm32f10x_gpio.c **** /* Alias word address of EVOE bit */
  53:../../STM32F10x_StdPeriph_Lib_V3.5.0/Libraries/STM32F10x_StdPeriph_Driver/src/stm32f10x_gpio.c **** #define EVCR_OFFSET                 (AFIO_OFFSET + 0x00)
  54:../../STM32F10x_StdPeriph_Lib_V3.5.0/Libraries/STM32F10x_StdPeriph_Driver/src/stm32f10x_gpio.c **** #define EVOE_BitNumber              ((uint8_t)0x07)
ARM GAS  /tmp/ccvxPp7R.s 			page 3


  55:../../STM32F10x_StdPeriph_Lib_V3.5.0/Libraries/STM32F10x_StdPeriph_Driver/src/stm32f10x_gpio.c **** #define EVCR_EVOE_BB                (PERIPH_BB_BASE + (EVCR_OFFSET * 32) + (EVOE_BitNumber * 4))
  56:../../STM32F10x_StdPeriph_Lib_V3.5.0/Libraries/STM32F10x_StdPeriph_Driver/src/stm32f10x_gpio.c **** 
  57:../../STM32F10x_StdPeriph_Lib_V3.5.0/Libraries/STM32F10x_StdPeriph_Driver/src/stm32f10x_gpio.c **** 
  58:../../STM32F10x_StdPeriph_Lib_V3.5.0/Libraries/STM32F10x_StdPeriph_Driver/src/stm32f10x_gpio.c **** /* ---  MAPR Register ---*/ 
  59:../../STM32F10x_StdPeriph_Lib_V3.5.0/Libraries/STM32F10x_StdPeriph_Driver/src/stm32f10x_gpio.c **** /* Alias word address of MII_RMII_SEL bit */ 
  60:../../STM32F10x_StdPeriph_Lib_V3.5.0/Libraries/STM32F10x_StdPeriph_Driver/src/stm32f10x_gpio.c **** #define MAPR_OFFSET                 (AFIO_OFFSET + 0x04) 
  61:../../STM32F10x_StdPeriph_Lib_V3.5.0/Libraries/STM32F10x_StdPeriph_Driver/src/stm32f10x_gpio.c **** #define MII_RMII_SEL_BitNumber      ((u8)0x17) 
  62:../../STM32F10x_StdPeriph_Lib_V3.5.0/Libraries/STM32F10x_StdPeriph_Driver/src/stm32f10x_gpio.c **** #define MAPR_MII_RMII_SEL_BB        (PERIPH_BB_BASE + (MAPR_OFFSET * 32) + (MII_RMII_SEL_BitNumber 
  63:../../STM32F10x_StdPeriph_Lib_V3.5.0/Libraries/STM32F10x_StdPeriph_Driver/src/stm32f10x_gpio.c **** 
  64:../../STM32F10x_StdPeriph_Lib_V3.5.0/Libraries/STM32F10x_StdPeriph_Driver/src/stm32f10x_gpio.c **** 
  65:../../STM32F10x_StdPeriph_Lib_V3.5.0/Libraries/STM32F10x_StdPeriph_Driver/src/stm32f10x_gpio.c **** #define EVCR_PORTPINCONFIG_MASK     ((uint16_t)0xFF80)
  66:../../STM32F10x_StdPeriph_Lib_V3.5.0/Libraries/STM32F10x_StdPeriph_Driver/src/stm32f10x_gpio.c **** #define LSB_MASK                    ((uint16_t)0xFFFF)
  67:../../STM32F10x_StdPeriph_Lib_V3.5.0/Libraries/STM32F10x_StdPeriph_Driver/src/stm32f10x_gpio.c **** #define DBGAFR_POSITION_MASK        ((uint32_t)0x000F0000)
  68:../../STM32F10x_StdPeriph_Lib_V3.5.0/Libraries/STM32F10x_StdPeriph_Driver/src/stm32f10x_gpio.c **** #define DBGAFR_SWJCFG_MASK          ((uint32_t)0xF0FFFFFF)
  69:../../STM32F10x_StdPeriph_Lib_V3.5.0/Libraries/STM32F10x_StdPeriph_Driver/src/stm32f10x_gpio.c **** #define DBGAFR_LOCATION_MASK        ((uint32_t)0x00200000)
  70:../../STM32F10x_StdPeriph_Lib_V3.5.0/Libraries/STM32F10x_StdPeriph_Driver/src/stm32f10x_gpio.c **** #define DBGAFR_NUMBITS_MASK         ((uint32_t)0x00100000)
  71:../../STM32F10x_StdPeriph_Lib_V3.5.0/Libraries/STM32F10x_StdPeriph_Driver/src/stm32f10x_gpio.c **** /**
  72:../../STM32F10x_StdPeriph_Lib_V3.5.0/Libraries/STM32F10x_StdPeriph_Driver/src/stm32f10x_gpio.c ****   * @}
  73:../../STM32F10x_StdPeriph_Lib_V3.5.0/Libraries/STM32F10x_StdPeriph_Driver/src/stm32f10x_gpio.c ****   */
  74:../../STM32F10x_StdPeriph_Lib_V3.5.0/Libraries/STM32F10x_StdPeriph_Driver/src/stm32f10x_gpio.c **** 
  75:../../STM32F10x_StdPeriph_Lib_V3.5.0/Libraries/STM32F10x_StdPeriph_Driver/src/stm32f10x_gpio.c **** /** @defgroup GPIO_Private_Macros
  76:../../STM32F10x_StdPeriph_Lib_V3.5.0/Libraries/STM32F10x_StdPeriph_Driver/src/stm32f10x_gpio.c ****   * @{
  77:../../STM32F10x_StdPeriph_Lib_V3.5.0/Libraries/STM32F10x_StdPeriph_Driver/src/stm32f10x_gpio.c ****   */
  78:../../STM32F10x_StdPeriph_Lib_V3.5.0/Libraries/STM32F10x_StdPeriph_Driver/src/stm32f10x_gpio.c **** 
  79:../../STM32F10x_StdPeriph_Lib_V3.5.0/Libraries/STM32F10x_StdPeriph_Driver/src/stm32f10x_gpio.c **** /**
  80:../../STM32F10x_StdPeriph_Lib_V3.5.0/Libraries/STM32F10x_StdPeriph_Driver/src/stm32f10x_gpio.c ****   * @}
  81:../../STM32F10x_StdPeriph_Lib_V3.5.0/Libraries/STM32F10x_StdPeriph_Driver/src/stm32f10x_gpio.c ****   */
  82:../../STM32F10x_StdPeriph_Lib_V3.5.0/Libraries/STM32F10x_StdPeriph_Driver/src/stm32f10x_gpio.c **** 
  83:../../STM32F10x_StdPeriph_Lib_V3.5.0/Libraries/STM32F10x_StdPeriph_Driver/src/stm32f10x_gpio.c **** /** @defgroup GPIO_Private_Variables
  84:../../STM32F10x_StdPeriph_Lib_V3.5.0/Libraries/STM32F10x_StdPeriph_Driver/src/stm32f10x_gpio.c ****   * @{
  85:../../STM32F10x_StdPeriph_Lib_V3.5.0/Libraries/STM32F10x_StdPeriph_Driver/src/stm32f10x_gpio.c ****   */
  86:../../STM32F10x_StdPeriph_Lib_V3.5.0/Libraries/STM32F10x_StdPeriph_Driver/src/stm32f10x_gpio.c **** 
  87:../../STM32F10x_StdPeriph_Lib_V3.5.0/Libraries/STM32F10x_StdPeriph_Driver/src/stm32f10x_gpio.c **** /**
  88:../../STM32F10x_StdPeriph_Lib_V3.5.0/Libraries/STM32F10x_StdPeriph_Driver/src/stm32f10x_gpio.c ****   * @}
  89:../../STM32F10x_StdPeriph_Lib_V3.5.0/Libraries/STM32F10x_StdPeriph_Driver/src/stm32f10x_gpio.c ****   */
  90:../../STM32F10x_StdPeriph_Lib_V3.5.0/Libraries/STM32F10x_StdPeriph_Driver/src/stm32f10x_gpio.c **** 
  91:../../STM32F10x_StdPeriph_Lib_V3.5.0/Libraries/STM32F10x_StdPeriph_Driver/src/stm32f10x_gpio.c **** /** @defgroup GPIO_Private_FunctionPrototypes
  92:../../STM32F10x_StdPeriph_Lib_V3.5.0/Libraries/STM32F10x_StdPeriph_Driver/src/stm32f10x_gpio.c ****   * @{
  93:../../STM32F10x_StdPeriph_Lib_V3.5.0/Libraries/STM32F10x_StdPeriph_Driver/src/stm32f10x_gpio.c ****   */
  94:../../STM32F10x_StdPeriph_Lib_V3.5.0/Libraries/STM32F10x_StdPeriph_Driver/src/stm32f10x_gpio.c **** 
  95:../../STM32F10x_StdPeriph_Lib_V3.5.0/Libraries/STM32F10x_StdPeriph_Driver/src/stm32f10x_gpio.c **** /**
  96:../../STM32F10x_StdPeriph_Lib_V3.5.0/Libraries/STM32F10x_StdPeriph_Driver/src/stm32f10x_gpio.c ****   * @}
  97:../../STM32F10x_StdPeriph_Lib_V3.5.0/Libraries/STM32F10x_StdPeriph_Driver/src/stm32f10x_gpio.c ****   */
  98:../../STM32F10x_StdPeriph_Lib_V3.5.0/Libraries/STM32F10x_StdPeriph_Driver/src/stm32f10x_gpio.c **** 
  99:../../STM32F10x_StdPeriph_Lib_V3.5.0/Libraries/STM32F10x_StdPeriph_Driver/src/stm32f10x_gpio.c **** /** @defgroup GPIO_Private_Functions
 100:../../STM32F10x_StdPeriph_Lib_V3.5.0/Libraries/STM32F10x_StdPeriph_Driver/src/stm32f10x_gpio.c ****   * @{
 101:../../STM32F10x_StdPeriph_Lib_V3.5.0/Libraries/STM32F10x_StdPeriph_Driver/src/stm32f10x_gpio.c ****   */
 102:../../STM32F10x_StdPeriph_Lib_V3.5.0/Libraries/STM32F10x_StdPeriph_Driver/src/stm32f10x_gpio.c **** 
 103:../../STM32F10x_StdPeriph_Lib_V3.5.0/Libraries/STM32F10x_StdPeriph_Driver/src/stm32f10x_gpio.c **** /**
 104:../../STM32F10x_StdPeriph_Lib_V3.5.0/Libraries/STM32F10x_StdPeriph_Driver/src/stm32f10x_gpio.c ****   * @brief  Deinitializes the GPIOx peripheral registers to their default reset values.
 105:../../STM32F10x_StdPeriph_Lib_V3.5.0/Libraries/STM32F10x_StdPeriph_Driver/src/stm32f10x_gpio.c ****   * @param  GPIOx: where x can be (A..G) to select the GPIO peripheral.
 106:../../STM32F10x_StdPeriph_Lib_V3.5.0/Libraries/STM32F10x_StdPeriph_Driver/src/stm32f10x_gpio.c ****   * @retval None
 107:../../STM32F10x_StdPeriph_Lib_V3.5.0/Libraries/STM32F10x_StdPeriph_Driver/src/stm32f10x_gpio.c ****   */
 108:../../STM32F10x_StdPeriph_Lib_V3.5.0/Libraries/STM32F10x_StdPeriph_Driver/src/stm32f10x_gpio.c **** void GPIO_DeInit(GPIO_TypeDef* GPIOx)
 109:../../STM32F10x_StdPeriph_Lib_V3.5.0/Libraries/STM32F10x_StdPeriph_Driver/src/stm32f10x_gpio.c **** {
  61              		.loc 1 109 0
  62              		.cfi_startproc
ARM GAS  /tmp/ccvxPp7R.s 			page 4


  63              		@ args = 0, pretend = 0, frame = 8
  64              		@ frame_needed = 0, uses_anonymous_args = 0
  65 0000 00B5     		push	{lr}	@
  66              	.LCFI0:
  67              		.cfi_def_cfa_offset 4
  68              		.cfi_offset 14, -4
  69 0002 83B0     		sub	sp, sp, #12	@,,
  70              	.LCFI1:
  71              		.cfi_def_cfa_offset 16
  72 0004 0190     		str	r0, [sp, #4]	@ GPIOx, GPIOx
 110:../../STM32F10x_StdPeriph_Lib_V3.5.0/Libraries/STM32F10x_StdPeriph_Driver/src/stm32f10x_gpio.c ****   /* Check the parameters */
 111:../../STM32F10x_StdPeriph_Lib_V3.5.0/Libraries/STM32F10x_StdPeriph_Driver/src/stm32f10x_gpio.c ****   assert_param(IS_GPIO_ALL_PERIPH(GPIOx));
 112:../../STM32F10x_StdPeriph_Lib_V3.5.0/Libraries/STM32F10x_StdPeriph_Driver/src/stm32f10x_gpio.c ****   
 113:../../STM32F10x_StdPeriph_Lib_V3.5.0/Libraries/STM32F10x_StdPeriph_Driver/src/stm32f10x_gpio.c ****   if (GPIOx == GPIOA)
  73              		.loc 1 113 0
  74 0006 019B     		ldr	r3, [sp, #4]	@ tmp110, GPIOx
  75 0008 2E4A     		ldr	r2, .L9	@ tmp111,
  76 000a 9342     		cmp	r3, r2	@ tmp110, tmp111
  77 000c 08D1     		bne	.L2	@,
 114:../../STM32F10x_StdPeriph_Lib_V3.5.0/Libraries/STM32F10x_StdPeriph_Driver/src/stm32f10x_gpio.c ****   {
 115:../../STM32F10x_StdPeriph_Lib_V3.5.0/Libraries/STM32F10x_StdPeriph_Driver/src/stm32f10x_gpio.c ****     RCC_APB2PeriphResetCmd(RCC_APB2Periph_GPIOA, ENABLE);
  78              		.loc 1 115 0
  79 000e 0420     		movs	r0, #4	@,
  80 0010 0121     		movs	r1, #1	@,
  81 0012 FFF7FEFF 		bl	RCC_APB2PeriphResetCmd	@
 116:../../STM32F10x_StdPeriph_Lib_V3.5.0/Libraries/STM32F10x_StdPeriph_Driver/src/stm32f10x_gpio.c ****     RCC_APB2PeriphResetCmd(RCC_APB2Periph_GPIOA, DISABLE);
  82              		.loc 1 116 0
  83 0016 0420     		movs	r0, #4	@,
  84 0018 0021     		movs	r1, #0	@,
  85 001a FFF7FEFF 		bl	RCC_APB2PeriphResetCmd	@
  86 001e 4EE0     		b	.L1	@
  87              	.L2:
 117:../../STM32F10x_StdPeriph_Lib_V3.5.0/Libraries/STM32F10x_StdPeriph_Driver/src/stm32f10x_gpio.c ****   }
 118:../../STM32F10x_StdPeriph_Lib_V3.5.0/Libraries/STM32F10x_StdPeriph_Driver/src/stm32f10x_gpio.c ****   else if (GPIOx == GPIOB)
  88              		.loc 1 118 0
  89 0020 019B     		ldr	r3, [sp, #4]	@ tmp112, GPIOx
  90 0022 294A     		ldr	r2, .L9+4	@ tmp113,
  91 0024 9342     		cmp	r3, r2	@ tmp112, tmp113
  92 0026 08D1     		bne	.L4	@,
 119:../../STM32F10x_StdPeriph_Lib_V3.5.0/Libraries/STM32F10x_StdPeriph_Driver/src/stm32f10x_gpio.c ****   {
 120:../../STM32F10x_StdPeriph_Lib_V3.5.0/Libraries/STM32F10x_StdPeriph_Driver/src/stm32f10x_gpio.c ****     RCC_APB2PeriphResetCmd(RCC_APB2Periph_GPIOB, ENABLE);
  93              		.loc 1 120 0
  94 0028 0820     		movs	r0, #8	@,
  95 002a 0121     		movs	r1, #1	@,
  96 002c FFF7FEFF 		bl	RCC_APB2PeriphResetCmd	@
 121:../../STM32F10x_StdPeriph_Lib_V3.5.0/Libraries/STM32F10x_StdPeriph_Driver/src/stm32f10x_gpio.c ****     RCC_APB2PeriphResetCmd(RCC_APB2Periph_GPIOB, DISABLE);
  97              		.loc 1 121 0
  98 0030 0820     		movs	r0, #8	@,
  99 0032 0021     		movs	r1, #0	@,
 100 0034 FFF7FEFF 		bl	RCC_APB2PeriphResetCmd	@
 101 0038 41E0     		b	.L1	@
 102              	.L4:
 122:../../STM32F10x_StdPeriph_Lib_V3.5.0/Libraries/STM32F10x_StdPeriph_Driver/src/stm32f10x_gpio.c ****   }
 123:../../STM32F10x_StdPeriph_Lib_V3.5.0/Libraries/STM32F10x_StdPeriph_Driver/src/stm32f10x_gpio.c ****   else if (GPIOx == GPIOC)
 103              		.loc 1 123 0
 104 003a 019B     		ldr	r3, [sp, #4]	@ tmp114, GPIOx
 105 003c 234A     		ldr	r2, .L9+8	@ tmp115,
ARM GAS  /tmp/ccvxPp7R.s 			page 5


 106 003e 9342     		cmp	r3, r2	@ tmp114, tmp115
 107 0040 08D1     		bne	.L5	@,
 124:../../STM32F10x_StdPeriph_Lib_V3.5.0/Libraries/STM32F10x_StdPeriph_Driver/src/stm32f10x_gpio.c ****   {
 125:../../STM32F10x_StdPeriph_Lib_V3.5.0/Libraries/STM32F10x_StdPeriph_Driver/src/stm32f10x_gpio.c ****     RCC_APB2PeriphResetCmd(RCC_APB2Periph_GPIOC, ENABLE);
 108              		.loc 1 125 0
 109 0042 1020     		movs	r0, #16	@,
 110 0044 0121     		movs	r1, #1	@,
 111 0046 FFF7FEFF 		bl	RCC_APB2PeriphResetCmd	@
 126:../../STM32F10x_StdPeriph_Lib_V3.5.0/Libraries/STM32F10x_StdPeriph_Driver/src/stm32f10x_gpio.c ****     RCC_APB2PeriphResetCmd(RCC_APB2Periph_GPIOC, DISABLE);
 112              		.loc 1 126 0
 113 004a 1020     		movs	r0, #16	@,
 114 004c 0021     		movs	r1, #0	@,
 115 004e FFF7FEFF 		bl	RCC_APB2PeriphResetCmd	@
 116 0052 34E0     		b	.L1	@
 117              	.L5:
 127:../../STM32F10x_StdPeriph_Lib_V3.5.0/Libraries/STM32F10x_StdPeriph_Driver/src/stm32f10x_gpio.c ****   }
 128:../../STM32F10x_StdPeriph_Lib_V3.5.0/Libraries/STM32F10x_StdPeriph_Driver/src/stm32f10x_gpio.c ****   else if (GPIOx == GPIOD)
 118              		.loc 1 128 0
 119 0054 019B     		ldr	r3, [sp, #4]	@ tmp116, GPIOx
 120 0056 1E4A     		ldr	r2, .L9+12	@ tmp117,
 121 0058 9342     		cmp	r3, r2	@ tmp116, tmp117
 122 005a 08D1     		bne	.L6	@,
 129:../../STM32F10x_StdPeriph_Lib_V3.5.0/Libraries/STM32F10x_StdPeriph_Driver/src/stm32f10x_gpio.c ****   {
 130:../../STM32F10x_StdPeriph_Lib_V3.5.0/Libraries/STM32F10x_StdPeriph_Driver/src/stm32f10x_gpio.c ****     RCC_APB2PeriphResetCmd(RCC_APB2Periph_GPIOD, ENABLE);
 123              		.loc 1 130 0
 124 005c 2020     		movs	r0, #32	@,
 125 005e 0121     		movs	r1, #1	@,
 126 0060 FFF7FEFF 		bl	RCC_APB2PeriphResetCmd	@
 131:../../STM32F10x_StdPeriph_Lib_V3.5.0/Libraries/STM32F10x_StdPeriph_Driver/src/stm32f10x_gpio.c ****     RCC_APB2PeriphResetCmd(RCC_APB2Periph_GPIOD, DISABLE);
 127              		.loc 1 131 0
 128 0064 2020     		movs	r0, #32	@,
 129 0066 0021     		movs	r1, #0	@,
 130 0068 FFF7FEFF 		bl	RCC_APB2PeriphResetCmd	@
 131 006c 27E0     		b	.L1	@
 132              	.L6:
 132:../../STM32F10x_StdPeriph_Lib_V3.5.0/Libraries/STM32F10x_StdPeriph_Driver/src/stm32f10x_gpio.c ****   }    
 133:../../STM32F10x_StdPeriph_Lib_V3.5.0/Libraries/STM32F10x_StdPeriph_Driver/src/stm32f10x_gpio.c ****   else if (GPIOx == GPIOE)
 133              		.loc 1 133 0
 134 006e 019B     		ldr	r3, [sp, #4]	@ tmp118, GPIOx
 135 0070 184A     		ldr	r2, .L9+16	@ tmp119,
 136 0072 9342     		cmp	r3, r2	@ tmp118, tmp119
 137 0074 08D1     		bne	.L7	@,
 134:../../STM32F10x_StdPeriph_Lib_V3.5.0/Libraries/STM32F10x_StdPeriph_Driver/src/stm32f10x_gpio.c ****   {
 135:../../STM32F10x_StdPeriph_Lib_V3.5.0/Libraries/STM32F10x_StdPeriph_Driver/src/stm32f10x_gpio.c ****     RCC_APB2PeriphResetCmd(RCC_APB2Periph_GPIOE, ENABLE);
 138              		.loc 1 135 0
 139 0076 4020     		movs	r0, #64	@,
 140 0078 0121     		movs	r1, #1	@,
 141 007a FFF7FEFF 		bl	RCC_APB2PeriphResetCmd	@
 136:../../STM32F10x_StdPeriph_Lib_V3.5.0/Libraries/STM32F10x_StdPeriph_Driver/src/stm32f10x_gpio.c ****     RCC_APB2PeriphResetCmd(RCC_APB2Periph_GPIOE, DISABLE);
 142              		.loc 1 136 0
 143 007e 4020     		movs	r0, #64	@,
 144 0080 0021     		movs	r1, #0	@,
 145 0082 FFF7FEFF 		bl	RCC_APB2PeriphResetCmd	@
 146 0086 1AE0     		b	.L1	@
 147              	.L7:
 137:../../STM32F10x_StdPeriph_Lib_V3.5.0/Libraries/STM32F10x_StdPeriph_Driver/src/stm32f10x_gpio.c ****   } 
 138:../../STM32F10x_StdPeriph_Lib_V3.5.0/Libraries/STM32F10x_StdPeriph_Driver/src/stm32f10x_gpio.c ****   else if (GPIOx == GPIOF)
ARM GAS  /tmp/ccvxPp7R.s 			page 6


 148              		.loc 1 138 0
 149 0088 019B     		ldr	r3, [sp, #4]	@ tmp120, GPIOx
 150 008a 134A     		ldr	r2, .L9+20	@ tmp121,
 151 008c 9342     		cmp	r3, r2	@ tmp120, tmp121
 152 008e 08D1     		bne	.L8	@,
 139:../../STM32F10x_StdPeriph_Lib_V3.5.0/Libraries/STM32F10x_StdPeriph_Driver/src/stm32f10x_gpio.c ****   {
 140:../../STM32F10x_StdPeriph_Lib_V3.5.0/Libraries/STM32F10x_StdPeriph_Driver/src/stm32f10x_gpio.c ****     RCC_APB2PeriphResetCmd(RCC_APB2Periph_GPIOF, ENABLE);
 153              		.loc 1 140 0
 154 0090 8020     		movs	r0, #128	@,
 155 0092 0121     		movs	r1, #1	@,
 156 0094 FFF7FEFF 		bl	RCC_APB2PeriphResetCmd	@
 141:../../STM32F10x_StdPeriph_Lib_V3.5.0/Libraries/STM32F10x_StdPeriph_Driver/src/stm32f10x_gpio.c ****     RCC_APB2PeriphResetCmd(RCC_APB2Periph_GPIOF, DISABLE);
 157              		.loc 1 141 0
 158 0098 8020     		movs	r0, #128	@,
 159 009a 0021     		movs	r1, #0	@,
 160 009c FFF7FEFF 		bl	RCC_APB2PeriphResetCmd	@
 161 00a0 0DE0     		b	.L1	@
 162              	.L8:
 142:../../STM32F10x_StdPeriph_Lib_V3.5.0/Libraries/STM32F10x_StdPeriph_Driver/src/stm32f10x_gpio.c ****   }
 143:../../STM32F10x_StdPeriph_Lib_V3.5.0/Libraries/STM32F10x_StdPeriph_Driver/src/stm32f10x_gpio.c ****   else
 144:../../STM32F10x_StdPeriph_Lib_V3.5.0/Libraries/STM32F10x_StdPeriph_Driver/src/stm32f10x_gpio.c ****   {
 145:../../STM32F10x_StdPeriph_Lib_V3.5.0/Libraries/STM32F10x_StdPeriph_Driver/src/stm32f10x_gpio.c ****     if (GPIOx == GPIOG)
 163              		.loc 1 145 0
 164 00a2 019B     		ldr	r3, [sp, #4]	@ tmp122, GPIOx
 165 00a4 0D4A     		ldr	r2, .L9+24	@ tmp123,
 166 00a6 9342     		cmp	r3, r2	@ tmp122, tmp123
 167 00a8 09D1     		bne	.L1	@,
 146:../../STM32F10x_StdPeriph_Lib_V3.5.0/Libraries/STM32F10x_StdPeriph_Driver/src/stm32f10x_gpio.c ****     {
 147:../../STM32F10x_StdPeriph_Lib_V3.5.0/Libraries/STM32F10x_StdPeriph_Driver/src/stm32f10x_gpio.c ****       RCC_APB2PeriphResetCmd(RCC_APB2Periph_GPIOG, ENABLE);
 168              		.loc 1 147 0
 169 00aa 4FF48070 		mov	r0, #256	@,
 170 00ae 0121     		movs	r1, #1	@,
 171 00b0 FFF7FEFF 		bl	RCC_APB2PeriphResetCmd	@
 148:../../STM32F10x_StdPeriph_Lib_V3.5.0/Libraries/STM32F10x_StdPeriph_Driver/src/stm32f10x_gpio.c ****       RCC_APB2PeriphResetCmd(RCC_APB2Periph_GPIOG, DISABLE);
 172              		.loc 1 148 0
 173 00b4 4FF48070 		mov	r0, #256	@,
 174 00b8 0021     		movs	r1, #0	@,
 175 00ba FFF7FEFF 		bl	RCC_APB2PeriphResetCmd	@
 176              	.L1:
 149:../../STM32F10x_StdPeriph_Lib_V3.5.0/Libraries/STM32F10x_StdPeriph_Driver/src/stm32f10x_gpio.c ****     }
 150:../../STM32F10x_StdPeriph_Lib_V3.5.0/Libraries/STM32F10x_StdPeriph_Driver/src/stm32f10x_gpio.c ****   }
 151:../../STM32F10x_StdPeriph_Lib_V3.5.0/Libraries/STM32F10x_StdPeriph_Driver/src/stm32f10x_gpio.c **** }
 177              		.loc 1 151 0
 178 00be 03B0     		add	sp, sp, #12	@,,
 179              	.LCFI2:
 180              		.cfi_def_cfa_offset 4
 181              		@ sp needed	@
 182 00c0 5DF804FB 		ldr	pc, [sp], #4	@
 183              	.L10:
 184              		.align	2
 185              	.L9:
 186 00c4 00080140 		.word	1073809408
 187 00c8 000C0140 		.word	1073810432
 188 00cc 00100140 		.word	1073811456
 189 00d0 00140140 		.word	1073812480
 190 00d4 00180140 		.word	1073813504
 191 00d8 001C0140 		.word	1073814528
ARM GAS  /tmp/ccvxPp7R.s 			page 7


 192 00dc 00200140 		.word	1073815552
 193              		.cfi_endproc
 194              	.LFE29:
 195              		.size	GPIO_DeInit, .-GPIO_DeInit
 196              		.align	2
 197              		.global	GPIO_AFIODeInit
 198              		.thumb
 199              		.thumb_func
 200              		.type	GPIO_AFIODeInit, %function
 201              	GPIO_AFIODeInit:
 202              	.LFB30:
 152:../../STM32F10x_StdPeriph_Lib_V3.5.0/Libraries/STM32F10x_StdPeriph_Driver/src/stm32f10x_gpio.c **** 
 153:../../STM32F10x_StdPeriph_Lib_V3.5.0/Libraries/STM32F10x_StdPeriph_Driver/src/stm32f10x_gpio.c **** /**
 154:../../STM32F10x_StdPeriph_Lib_V3.5.0/Libraries/STM32F10x_StdPeriph_Driver/src/stm32f10x_gpio.c ****   * @brief  Deinitializes the Alternate Functions (remap, event control
 155:../../STM32F10x_StdPeriph_Lib_V3.5.0/Libraries/STM32F10x_StdPeriph_Driver/src/stm32f10x_gpio.c ****   *   and EXTI configuration) registers to their default reset values.
 156:../../STM32F10x_StdPeriph_Lib_V3.5.0/Libraries/STM32F10x_StdPeriph_Driver/src/stm32f10x_gpio.c ****   * @param  None
 157:../../STM32F10x_StdPeriph_Lib_V3.5.0/Libraries/STM32F10x_StdPeriph_Driver/src/stm32f10x_gpio.c ****   * @retval None
 158:../../STM32F10x_StdPeriph_Lib_V3.5.0/Libraries/STM32F10x_StdPeriph_Driver/src/stm32f10x_gpio.c ****   */
 159:../../STM32F10x_StdPeriph_Lib_V3.5.0/Libraries/STM32F10x_StdPeriph_Driver/src/stm32f10x_gpio.c **** void GPIO_AFIODeInit(void)
 160:../../STM32F10x_StdPeriph_Lib_V3.5.0/Libraries/STM32F10x_StdPeriph_Driver/src/stm32f10x_gpio.c **** {
 203              		.loc 1 160 0
 204              		.cfi_startproc
 205              		@ args = 0, pretend = 0, frame = 0
 206              		@ frame_needed = 0, uses_anonymous_args = 0
 207 00e0 08B5     		push	{r3, lr}	@
 208              	.LCFI3:
 209              		.cfi_def_cfa_offset 8
 210              		.cfi_offset 3, -8
 211              		.cfi_offset 14, -4
 161:../../STM32F10x_StdPeriph_Lib_V3.5.0/Libraries/STM32F10x_StdPeriph_Driver/src/stm32f10x_gpio.c ****   RCC_APB2PeriphResetCmd(RCC_APB2Periph_AFIO, ENABLE);
 212              		.loc 1 161 0
 213 00e2 0120     		movs	r0, #1	@,
 214 00e4 0121     		movs	r1, #1	@,
 215 00e6 FFF7FEFF 		bl	RCC_APB2PeriphResetCmd	@
 162:../../STM32F10x_StdPeriph_Lib_V3.5.0/Libraries/STM32F10x_StdPeriph_Driver/src/stm32f10x_gpio.c ****   RCC_APB2PeriphResetCmd(RCC_APB2Periph_AFIO, DISABLE);
 216              		.loc 1 162 0
 217 00ea 0120     		movs	r0, #1	@,
 218 00ec 0021     		movs	r1, #0	@,
 219 00ee FFF7FEFF 		bl	RCC_APB2PeriphResetCmd	@
 163:../../STM32F10x_StdPeriph_Lib_V3.5.0/Libraries/STM32F10x_StdPeriph_Driver/src/stm32f10x_gpio.c **** }
 220              		.loc 1 163 0
 221 00f2 08BD     		pop	{r3, pc}	@
 222              		.cfi_endproc
 223              	.LFE30:
 224              		.size	GPIO_AFIODeInit, .-GPIO_AFIODeInit
 225              		.align	2
 226              		.global	GPIO_Init
 227              		.thumb
 228              		.thumb_func
 229              		.type	GPIO_Init, %function
 230              	GPIO_Init:
 231              	.LFB31:
 164:../../STM32F10x_StdPeriph_Lib_V3.5.0/Libraries/STM32F10x_StdPeriph_Driver/src/stm32f10x_gpio.c **** 
 165:../../STM32F10x_StdPeriph_Lib_V3.5.0/Libraries/STM32F10x_StdPeriph_Driver/src/stm32f10x_gpio.c **** /**
 166:../../STM32F10x_StdPeriph_Lib_V3.5.0/Libraries/STM32F10x_StdPeriph_Driver/src/stm32f10x_gpio.c ****   * @brief  Initializes the GPIOx peripheral according to the specified
 167:../../STM32F10x_StdPeriph_Lib_V3.5.0/Libraries/STM32F10x_StdPeriph_Driver/src/stm32f10x_gpio.c ****   *         parameters in the GPIO_InitStruct.
 168:../../STM32F10x_StdPeriph_Lib_V3.5.0/Libraries/STM32F10x_StdPeriph_Driver/src/stm32f10x_gpio.c ****   * @param  GPIOx: where x can be (A..G) to select the GPIO peripheral.
ARM GAS  /tmp/ccvxPp7R.s 			page 8


 169:../../STM32F10x_StdPeriph_Lib_V3.5.0/Libraries/STM32F10x_StdPeriph_Driver/src/stm32f10x_gpio.c ****   * @param  GPIO_InitStruct: pointer to a GPIO_InitTypeDef structure that
 170:../../STM32F10x_StdPeriph_Lib_V3.5.0/Libraries/STM32F10x_StdPeriph_Driver/src/stm32f10x_gpio.c ****   *         contains the configuration information for the specified GPIO peripheral.
 171:../../STM32F10x_StdPeriph_Lib_V3.5.0/Libraries/STM32F10x_StdPeriph_Driver/src/stm32f10x_gpio.c ****   * @retval None
 172:../../STM32F10x_StdPeriph_Lib_V3.5.0/Libraries/STM32F10x_StdPeriph_Driver/src/stm32f10x_gpio.c ****   */
 173:../../STM32F10x_StdPeriph_Lib_V3.5.0/Libraries/STM32F10x_StdPeriph_Driver/src/stm32f10x_gpio.c **** void GPIO_Init(GPIO_TypeDef* GPIOx, GPIO_InitTypeDef* GPIO_InitStruct)
 174:../../STM32F10x_StdPeriph_Lib_V3.5.0/Libraries/STM32F10x_StdPeriph_Driver/src/stm32f10x_gpio.c **** {
 232              		.loc 1 174 0
 233              		.cfi_startproc
 234              		@ args = 0, pretend = 0, frame = 32
 235              		@ frame_needed = 0, uses_anonymous_args = 0
 236              		@ link register save eliminated.
 237 00f4 88B0     		sub	sp, sp, #32	@,,
 238              	.LCFI4:
 239              		.cfi_def_cfa_offset 32
 240 00f6 0190     		str	r0, [sp, #4]	@ GPIOx, GPIOx
 241 00f8 0091     		str	r1, [sp]	@ GPIO_InitStruct, GPIO_InitStruct
 175:../../STM32F10x_StdPeriph_Lib_V3.5.0/Libraries/STM32F10x_StdPeriph_Driver/src/stm32f10x_gpio.c ****   uint32_t currentmode = 0x00, currentpin = 0x00, pinpos = 0x00, pos = 0x00;
 242              		.loc 1 175 0
 243 00fa 0023     		movs	r3, #0	@ tmp150,
 244 00fc 0793     		str	r3, [sp, #28]	@ tmp150, currentmode
 245 00fe 0023     		movs	r3, #0	@ tmp151,
 246 0100 0493     		str	r3, [sp, #16]	@ tmp151, currentpin
 247 0102 0023     		movs	r3, #0	@ tmp152,
 248 0104 0693     		str	r3, [sp, #24]	@ tmp152, pinpos
 249 0106 0023     		movs	r3, #0	@ tmp153,
 250 0108 0393     		str	r3, [sp, #12]	@ tmp153, pos
 176:../../STM32F10x_StdPeriph_Lib_V3.5.0/Libraries/STM32F10x_StdPeriph_Driver/src/stm32f10x_gpio.c ****   uint32_t tmpreg = 0x00, pinmask = 0x00;
 251              		.loc 1 176 0
 252 010a 0023     		movs	r3, #0	@ tmp154,
 253 010c 0593     		str	r3, [sp, #20]	@ tmp154, tmpreg
 254 010e 0023     		movs	r3, #0	@ tmp155,
 255 0110 0293     		str	r3, [sp, #8]	@ tmp155, pinmask
 177:../../STM32F10x_StdPeriph_Lib_V3.5.0/Libraries/STM32F10x_StdPeriph_Driver/src/stm32f10x_gpio.c ****   /* Check the parameters */
 178:../../STM32F10x_StdPeriph_Lib_V3.5.0/Libraries/STM32F10x_StdPeriph_Driver/src/stm32f10x_gpio.c ****   assert_param(IS_GPIO_ALL_PERIPH(GPIOx));
 179:../../STM32F10x_StdPeriph_Lib_V3.5.0/Libraries/STM32F10x_StdPeriph_Driver/src/stm32f10x_gpio.c ****   assert_param(IS_GPIO_MODE(GPIO_InitStruct->GPIO_Mode));
 180:../../STM32F10x_StdPeriph_Lib_V3.5.0/Libraries/STM32F10x_StdPeriph_Driver/src/stm32f10x_gpio.c ****   assert_param(IS_GPIO_PIN(GPIO_InitStruct->GPIO_Pin));  
 181:../../STM32F10x_StdPeriph_Lib_V3.5.0/Libraries/STM32F10x_StdPeriph_Driver/src/stm32f10x_gpio.c ****   
 182:../../STM32F10x_StdPeriph_Lib_V3.5.0/Libraries/STM32F10x_StdPeriph_Driver/src/stm32f10x_gpio.c **** /*---------------------------- GPIO Mode Configuration -----------------------*/
 183:../../STM32F10x_StdPeriph_Lib_V3.5.0/Libraries/STM32F10x_StdPeriph_Driver/src/stm32f10x_gpio.c ****   currentmode = ((uint32_t)GPIO_InitStruct->GPIO_Mode) & ((uint32_t)0x0F);
 256              		.loc 1 183 0
 257 0112 009B     		ldr	r3, [sp]	@ tmp156, GPIO_InitStruct
 258 0114 DB78     		ldrb	r3, [r3, #3]	@ zero_extendqisi2	@ D.6728, GPIO_InitStruct_14(D)->GPIO_Mode
 259 0116 03F00F03 		and	r3, r3, #15	@ tmp157, D.6729,
 260 011a 0793     		str	r3, [sp, #28]	@ tmp157, currentmode
 184:../../STM32F10x_StdPeriph_Lib_V3.5.0/Libraries/STM32F10x_StdPeriph_Driver/src/stm32f10x_gpio.c ****   if ((((uint32_t)GPIO_InitStruct->GPIO_Mode) & ((uint32_t)0x10)) != 0x00)
 261              		.loc 1 184 0
 262 011c 009B     		ldr	r3, [sp]	@ tmp158, GPIO_InitStruct
 263 011e DB78     		ldrb	r3, [r3, #3]	@ zero_extendqisi2	@ D.6728, GPIO_InitStruct_14(D)->GPIO_Mode
 264 0120 03F01003 		and	r3, r3, #16	@ D.6729, D.6729,
 265 0124 002B     		cmp	r3, #0	@ D.6729,
 266 0126 05D0     		beq	.L13	@,
 185:../../STM32F10x_StdPeriph_Lib_V3.5.0/Libraries/STM32F10x_StdPeriph_Driver/src/stm32f10x_gpio.c ****   { 
 186:../../STM32F10x_StdPeriph_Lib_V3.5.0/Libraries/STM32F10x_StdPeriph_Driver/src/stm32f10x_gpio.c ****     /* Check the parameters */
 187:../../STM32F10x_StdPeriph_Lib_V3.5.0/Libraries/STM32F10x_StdPeriph_Driver/src/stm32f10x_gpio.c ****     assert_param(IS_GPIO_SPEED(GPIO_InitStruct->GPIO_Speed));
 188:../../STM32F10x_StdPeriph_Lib_V3.5.0/Libraries/STM32F10x_StdPeriph_Driver/src/stm32f10x_gpio.c ****     /* Output mode */
 189:../../STM32F10x_StdPeriph_Lib_V3.5.0/Libraries/STM32F10x_StdPeriph_Driver/src/stm32f10x_gpio.c ****     currentmode |= (uint32_t)GPIO_InitStruct->GPIO_Speed;
 267              		.loc 1 189 0
ARM GAS  /tmp/ccvxPp7R.s 			page 9


 268 0128 009B     		ldr	r3, [sp]	@ tmp159, GPIO_InitStruct
 269 012a 9B78     		ldrb	r3, [r3, #2]	@ zero_extendqisi2	@ D.6730, GPIO_InitStruct_14(D)->GPIO_Speed
 270 012c 1A46     		mov	r2, r3	@ D.6729, D.6730
 271 012e 079B     		ldr	r3, [sp, #28]	@ tmp161, currentmode
 272 0130 1343     		orrs	r3, r3, r2	@, tmp160, tmp161, D.6729
 273 0132 0793     		str	r3, [sp, #28]	@ tmp160, currentmode
 274              	.L13:
 190:../../STM32F10x_StdPeriph_Lib_V3.5.0/Libraries/STM32F10x_StdPeriph_Driver/src/stm32f10x_gpio.c ****   }
 191:../../STM32F10x_StdPeriph_Lib_V3.5.0/Libraries/STM32F10x_StdPeriph_Driver/src/stm32f10x_gpio.c **** /*---------------------------- GPIO CRL Configuration ------------------------*/
 192:../../STM32F10x_StdPeriph_Lib_V3.5.0/Libraries/STM32F10x_StdPeriph_Driver/src/stm32f10x_gpio.c ****   /* Configure the eight low port pins */
 193:../../STM32F10x_StdPeriph_Lib_V3.5.0/Libraries/STM32F10x_StdPeriph_Driver/src/stm32f10x_gpio.c ****   if (((uint32_t)GPIO_InitStruct->GPIO_Pin & ((uint32_t)0x00FF)) != 0x00)
 275              		.loc 1 193 0
 276 0134 009B     		ldr	r3, [sp]	@ tmp162, GPIO_InitStruct
 277 0136 1B88     		ldrh	r3, [r3]	@ D.6731, GPIO_InitStruct_14(D)->GPIO_Pin
 278 0138 DBB2     		uxtb	r3, r3	@ D.6729, D.6729
 279 013a 002B     		cmp	r3, #0	@ D.6729,
 280 013c 44D0     		beq	.L14	@,
 194:../../STM32F10x_StdPeriph_Lib_V3.5.0/Libraries/STM32F10x_StdPeriph_Driver/src/stm32f10x_gpio.c ****   {
 195:../../STM32F10x_StdPeriph_Lib_V3.5.0/Libraries/STM32F10x_StdPeriph_Driver/src/stm32f10x_gpio.c ****     tmpreg = GPIOx->CRL;
 281              		.loc 1 195 0
 282 013e 019B     		ldr	r3, [sp, #4]	@ tmp163, GPIOx
 283 0140 1B68     		ldr	r3, [r3]	@ tmp164, GPIOx_27(D)->CRL
 284 0142 0593     		str	r3, [sp, #20]	@ tmp164, tmpreg
 196:../../STM32F10x_StdPeriph_Lib_V3.5.0/Libraries/STM32F10x_StdPeriph_Driver/src/stm32f10x_gpio.c ****     for (pinpos = 0x00; pinpos < 0x08; pinpos++)
 285              		.loc 1 196 0
 286 0144 0023     		movs	r3, #0	@ tmp165,
 287 0146 0693     		str	r3, [sp, #24]	@ tmp165, pinpos
 288 0148 38E0     		b	.L15	@
 289              	.L18:
 197:../../STM32F10x_StdPeriph_Lib_V3.5.0/Libraries/STM32F10x_StdPeriph_Driver/src/stm32f10x_gpio.c ****     {
 198:../../STM32F10x_StdPeriph_Lib_V3.5.0/Libraries/STM32F10x_StdPeriph_Driver/src/stm32f10x_gpio.c ****       pos = ((uint32_t)0x01) << pinpos;
 290              		.loc 1 198 0
 291 014a 069B     		ldr	r3, [sp, #24]	@ D.6732, pinpos
 292 014c 0122     		movs	r2, #1	@ tmp167,
 293 014e 02FA03F3 		lsl	r3, r2, r3	@ tmp166, tmp167, D.6732
 294 0152 0393     		str	r3, [sp, #12]	@ tmp166, pos
 199:../../STM32F10x_StdPeriph_Lib_V3.5.0/Libraries/STM32F10x_StdPeriph_Driver/src/stm32f10x_gpio.c ****       /* Get the port pins position */
 200:../../STM32F10x_StdPeriph_Lib_V3.5.0/Libraries/STM32F10x_StdPeriph_Driver/src/stm32f10x_gpio.c ****       currentpin = (GPIO_InitStruct->GPIO_Pin) & pos;
 295              		.loc 1 200 0
 296 0154 009B     		ldr	r3, [sp]	@ tmp168, GPIO_InitStruct
 297 0156 1B88     		ldrh	r3, [r3]	@ D.6731, GPIO_InitStruct_14(D)->GPIO_Pin
 298 0158 1A46     		mov	r2, r3	@ D.6729, D.6731
 299 015a 039B     		ldr	r3, [sp, #12]	@ tmp170, pos
 300 015c 1340     		ands	r3, r3, r2	@, tmp169, tmp170, D.6729
 301 015e 0493     		str	r3, [sp, #16]	@ tmp169, currentpin
 201:../../STM32F10x_StdPeriph_Lib_V3.5.0/Libraries/STM32F10x_StdPeriph_Driver/src/stm32f10x_gpio.c ****       if (currentpin == pos)
 302              		.loc 1 201 0
 303 0160 049A     		ldr	r2, [sp, #16]	@ tmp171, currentpin
 304 0162 039B     		ldr	r3, [sp, #12]	@ tmp172, pos
 305 0164 9A42     		cmp	r2, r3	@ tmp171, tmp172
 306 0166 26D1     		bne	.L16	@,
 202:../../STM32F10x_StdPeriph_Lib_V3.5.0/Libraries/STM32F10x_StdPeriph_Driver/src/stm32f10x_gpio.c ****       {
 203:../../STM32F10x_StdPeriph_Lib_V3.5.0/Libraries/STM32F10x_StdPeriph_Driver/src/stm32f10x_gpio.c ****         pos = pinpos << 2;
 307              		.loc 1 203 0
 308 0168 069B     		ldr	r3, [sp, #24]	@ tmp174, pinpos
 309 016a 9B00     		lsls	r3, r3, #2	@ tmp173, tmp174,
 310 016c 0393     		str	r3, [sp, #12]	@ tmp173, pos
ARM GAS  /tmp/ccvxPp7R.s 			page 10


 204:../../STM32F10x_StdPeriph_Lib_V3.5.0/Libraries/STM32F10x_StdPeriph_Driver/src/stm32f10x_gpio.c ****         /* Clear the corresponding low control register bits */
 205:../../STM32F10x_StdPeriph_Lib_V3.5.0/Libraries/STM32F10x_StdPeriph_Driver/src/stm32f10x_gpio.c ****         pinmask = ((uint32_t)0x0F) << pos;
 311              		.loc 1 205 0
 312 016e 039B     		ldr	r3, [sp, #12]	@ D.6732, pos
 313 0170 0F22     		movs	r2, #15	@ tmp176,
 314 0172 02FA03F3 		lsl	r3, r2, r3	@ tmp175, tmp176, D.6732
 315 0176 0293     		str	r3, [sp, #8]	@ tmp175, pinmask
 206:../../STM32F10x_StdPeriph_Lib_V3.5.0/Libraries/STM32F10x_StdPeriph_Driver/src/stm32f10x_gpio.c ****         tmpreg &= ~pinmask;
 316              		.loc 1 206 0
 317 0178 029B     		ldr	r3, [sp, #8]	@ tmp177, pinmask
 318 017a DB43     		mvns	r3, r3	@ D.6729, tmp177
 319 017c 059A     		ldr	r2, [sp, #20]	@ tmp179, tmpreg
 320 017e 1340     		ands	r3, r3, r2	@, tmp178, D.6729, tmp179
 321 0180 0593     		str	r3, [sp, #20]	@ tmp178, tmpreg
 207:../../STM32F10x_StdPeriph_Lib_V3.5.0/Libraries/STM32F10x_StdPeriph_Driver/src/stm32f10x_gpio.c ****         /* Write the mode configuration in the corresponding bits */
 208:../../STM32F10x_StdPeriph_Lib_V3.5.0/Libraries/STM32F10x_StdPeriph_Driver/src/stm32f10x_gpio.c ****         tmpreg |= (currentmode << pos);
 322              		.loc 1 208 0
 323 0182 039B     		ldr	r3, [sp, #12]	@ D.6732, pos
 324 0184 079A     		ldr	r2, [sp, #28]	@ tmp180, currentmode
 325 0186 02FA03F3 		lsl	r3, r2, r3	@ D.6729, tmp180, D.6732
 326 018a 059A     		ldr	r2, [sp, #20]	@ tmp182, tmpreg
 327 018c 1343     		orrs	r3, r3, r2	@, tmp181, D.6729, tmp182
 328 018e 0593     		str	r3, [sp, #20]	@ tmp181, tmpreg
 209:../../STM32F10x_StdPeriph_Lib_V3.5.0/Libraries/STM32F10x_StdPeriph_Driver/src/stm32f10x_gpio.c ****         /* Reset the corresponding ODR bit */
 210:../../STM32F10x_StdPeriph_Lib_V3.5.0/Libraries/STM32F10x_StdPeriph_Driver/src/stm32f10x_gpio.c ****         if (GPIO_InitStruct->GPIO_Mode == GPIO_Mode_IPD)
 329              		.loc 1 210 0
 330 0190 009B     		ldr	r3, [sp]	@ tmp183, GPIO_InitStruct
 331 0192 DB78     		ldrb	r3, [r3, #3]	@ zero_extendqisi2	@ D.6728, GPIO_InitStruct_14(D)->GPIO_Mode
 332 0194 282B     		cmp	r3, #40	@ D.6728,
 333 0196 05D1     		bne	.L17	@,
 211:../../STM32F10x_StdPeriph_Lib_V3.5.0/Libraries/STM32F10x_StdPeriph_Driver/src/stm32f10x_gpio.c ****         {
 212:../../STM32F10x_StdPeriph_Lib_V3.5.0/Libraries/STM32F10x_StdPeriph_Driver/src/stm32f10x_gpio.c ****           GPIOx->BRR = (((uint32_t)0x01) << pinpos);
 334              		.loc 1 212 0
 335 0198 069B     		ldr	r3, [sp, #24]	@ D.6732, pinpos
 336 019a 0122     		movs	r2, #1	@ tmp184,
 337 019c 9A40     		lsls	r2, r2, r3	@ D.6729, tmp184, D.6732
 338 019e 019B     		ldr	r3, [sp, #4]	@ tmp185, GPIOx
 339 01a0 5A61     		str	r2, [r3, #20]	@ D.6729, GPIOx_27(D)->BRR
 340 01a2 08E0     		b	.L16	@
 341              	.L17:
 213:../../STM32F10x_StdPeriph_Lib_V3.5.0/Libraries/STM32F10x_StdPeriph_Driver/src/stm32f10x_gpio.c ****         }
 214:../../STM32F10x_StdPeriph_Lib_V3.5.0/Libraries/STM32F10x_StdPeriph_Driver/src/stm32f10x_gpio.c ****         else
 215:../../STM32F10x_StdPeriph_Lib_V3.5.0/Libraries/STM32F10x_StdPeriph_Driver/src/stm32f10x_gpio.c ****         {
 216:../../STM32F10x_StdPeriph_Lib_V3.5.0/Libraries/STM32F10x_StdPeriph_Driver/src/stm32f10x_gpio.c ****           /* Set the corresponding ODR bit */
 217:../../STM32F10x_StdPeriph_Lib_V3.5.0/Libraries/STM32F10x_StdPeriph_Driver/src/stm32f10x_gpio.c ****           if (GPIO_InitStruct->GPIO_Mode == GPIO_Mode_IPU)
 342              		.loc 1 217 0
 343 01a4 009B     		ldr	r3, [sp]	@ tmp186, GPIO_InitStruct
 344 01a6 DB78     		ldrb	r3, [r3, #3]	@ zero_extendqisi2	@ D.6728, GPIO_InitStruct_14(D)->GPIO_Mode
 345 01a8 482B     		cmp	r3, #72	@ D.6728,
 346 01aa 04D1     		bne	.L16	@,
 218:../../STM32F10x_StdPeriph_Lib_V3.5.0/Libraries/STM32F10x_StdPeriph_Driver/src/stm32f10x_gpio.c ****           {
 219:../../STM32F10x_StdPeriph_Lib_V3.5.0/Libraries/STM32F10x_StdPeriph_Driver/src/stm32f10x_gpio.c ****             GPIOx->BSRR = (((uint32_t)0x01) << pinpos);
 347              		.loc 1 219 0
 348 01ac 069B     		ldr	r3, [sp, #24]	@ D.6732, pinpos
 349 01ae 0122     		movs	r2, #1	@ tmp187,
 350 01b0 9A40     		lsls	r2, r2, r3	@ D.6729, tmp187, D.6732
 351 01b2 019B     		ldr	r3, [sp, #4]	@ tmp188, GPIOx
ARM GAS  /tmp/ccvxPp7R.s 			page 11


 352 01b4 1A61     		str	r2, [r3, #16]	@ D.6729, GPIOx_27(D)->BSRR
 353              	.L16:
 196:../../STM32F10x_StdPeriph_Lib_V3.5.0/Libraries/STM32F10x_StdPeriph_Driver/src/stm32f10x_gpio.c ****     {
 354              		.loc 1 196 0 discriminator 2
 355 01b6 069B     		ldr	r3, [sp, #24]	@ tmp190, pinpos
 356 01b8 0133     		adds	r3, r3, #1	@ tmp189, tmp190,
 357 01ba 0693     		str	r3, [sp, #24]	@ tmp189, pinpos
 358              	.L15:
 196:../../STM32F10x_StdPeriph_Lib_V3.5.0/Libraries/STM32F10x_StdPeriph_Driver/src/stm32f10x_gpio.c ****     {
 359              		.loc 1 196 0 is_stmt 0 discriminator 1
 360 01bc 069B     		ldr	r3, [sp, #24]	@ tmp191, pinpos
 361 01be 072B     		cmp	r3, #7	@ tmp191,
 362 01c0 C3D9     		bls	.L18	@,
 220:../../STM32F10x_StdPeriph_Lib_V3.5.0/Libraries/STM32F10x_StdPeriph_Driver/src/stm32f10x_gpio.c ****           }
 221:../../STM32F10x_StdPeriph_Lib_V3.5.0/Libraries/STM32F10x_StdPeriph_Driver/src/stm32f10x_gpio.c ****         }
 222:../../STM32F10x_StdPeriph_Lib_V3.5.0/Libraries/STM32F10x_StdPeriph_Driver/src/stm32f10x_gpio.c ****       }
 223:../../STM32F10x_StdPeriph_Lib_V3.5.0/Libraries/STM32F10x_StdPeriph_Driver/src/stm32f10x_gpio.c ****     }
 224:../../STM32F10x_StdPeriph_Lib_V3.5.0/Libraries/STM32F10x_StdPeriph_Driver/src/stm32f10x_gpio.c ****     GPIOx->CRL = tmpreg;
 363              		.loc 1 224 0 is_stmt 1
 364 01c2 019B     		ldr	r3, [sp, #4]	@ tmp192, GPIOx
 365 01c4 059A     		ldr	r2, [sp, #20]	@ tmp193, tmpreg
 366 01c6 1A60     		str	r2, [r3]	@ tmp193, GPIOx_27(D)->CRL
 367              	.L14:
 225:../../STM32F10x_StdPeriph_Lib_V3.5.0/Libraries/STM32F10x_StdPeriph_Driver/src/stm32f10x_gpio.c ****   }
 226:../../STM32F10x_StdPeriph_Lib_V3.5.0/Libraries/STM32F10x_StdPeriph_Driver/src/stm32f10x_gpio.c **** /*---------------------------- GPIO CRH Configuration ------------------------*/
 227:../../STM32F10x_StdPeriph_Lib_V3.5.0/Libraries/STM32F10x_StdPeriph_Driver/src/stm32f10x_gpio.c ****   /* Configure the eight high port pins */
 228:../../STM32F10x_StdPeriph_Lib_V3.5.0/Libraries/STM32F10x_StdPeriph_Driver/src/stm32f10x_gpio.c ****   if (GPIO_InitStruct->GPIO_Pin > 0x00FF)
 368              		.loc 1 228 0
 369 01c8 009B     		ldr	r3, [sp]	@ tmp194, GPIO_InitStruct
 370 01ca 1B88     		ldrh	r3, [r3]	@ D.6731, GPIO_InitStruct_14(D)->GPIO_Pin
 371 01cc FF2B     		cmp	r3, #255	@ D.6731,
 372 01ce 4AD9     		bls	.L12	@,
 229:../../STM32F10x_StdPeriph_Lib_V3.5.0/Libraries/STM32F10x_StdPeriph_Driver/src/stm32f10x_gpio.c ****   {
 230:../../STM32F10x_StdPeriph_Lib_V3.5.0/Libraries/STM32F10x_StdPeriph_Driver/src/stm32f10x_gpio.c ****     tmpreg = GPIOx->CRH;
 373              		.loc 1 230 0
 374 01d0 019B     		ldr	r3, [sp, #4]	@ tmp195, GPIOx
 375 01d2 5B68     		ldr	r3, [r3, #4]	@ tmp196, GPIOx_27(D)->CRH
 376 01d4 0593     		str	r3, [sp, #20]	@ tmp196, tmpreg
 231:../../STM32F10x_StdPeriph_Lib_V3.5.0/Libraries/STM32F10x_StdPeriph_Driver/src/stm32f10x_gpio.c ****     for (pinpos = 0x00; pinpos < 0x08; pinpos++)
 377              		.loc 1 231 0
 378 01d6 0023     		movs	r3, #0	@ tmp197,
 379 01d8 0693     		str	r3, [sp, #24]	@ tmp197, pinpos
 380 01da 3EE0     		b	.L20	@
 381              	.L23:
 232:../../STM32F10x_StdPeriph_Lib_V3.5.0/Libraries/STM32F10x_StdPeriph_Driver/src/stm32f10x_gpio.c ****     {
 233:../../STM32F10x_StdPeriph_Lib_V3.5.0/Libraries/STM32F10x_StdPeriph_Driver/src/stm32f10x_gpio.c ****       pos = (((uint32_t)0x01) << (pinpos + 0x08));
 382              		.loc 1 233 0
 383 01dc 069B     		ldr	r3, [sp, #24]	@ tmp198, pinpos
 384 01de 0833     		adds	r3, r3, #8	@ D.6729, tmp198,
 385 01e0 1A46     		mov	r2, r3	@ D.6732, D.6729
 386 01e2 0123     		movs	r3, #1	@ tmp200,
 387 01e4 9340     		lsls	r3, r3, r2	@ tmp199, tmp200, D.6732
 388 01e6 0393     		str	r3, [sp, #12]	@ tmp199, pos
 234:../../STM32F10x_StdPeriph_Lib_V3.5.0/Libraries/STM32F10x_StdPeriph_Driver/src/stm32f10x_gpio.c ****       /* Get the port pins position */
 235:../../STM32F10x_StdPeriph_Lib_V3.5.0/Libraries/STM32F10x_StdPeriph_Driver/src/stm32f10x_gpio.c ****       currentpin = ((GPIO_InitStruct->GPIO_Pin) & pos);
 389              		.loc 1 235 0
 390 01e8 009B     		ldr	r3, [sp]	@ tmp201, GPIO_InitStruct
ARM GAS  /tmp/ccvxPp7R.s 			page 12


 391 01ea 1B88     		ldrh	r3, [r3]	@ D.6731, GPIO_InitStruct_14(D)->GPIO_Pin
 392 01ec 1A46     		mov	r2, r3	@ D.6729, D.6731
 393 01ee 039B     		ldr	r3, [sp, #12]	@ tmp203, pos
 394 01f0 1340     		ands	r3, r3, r2	@, tmp202, tmp203, D.6729
 395 01f2 0493     		str	r3, [sp, #16]	@ tmp202, currentpin
 236:../../STM32F10x_StdPeriph_Lib_V3.5.0/Libraries/STM32F10x_StdPeriph_Driver/src/stm32f10x_gpio.c ****       if (currentpin == pos)
 396              		.loc 1 236 0
 397 01f4 049A     		ldr	r2, [sp, #16]	@ tmp204, currentpin
 398 01f6 039B     		ldr	r3, [sp, #12]	@ tmp205, pos
 399 01f8 9A42     		cmp	r2, r3	@ tmp204, tmp205
 400 01fa 2BD1     		bne	.L21	@,
 237:../../STM32F10x_StdPeriph_Lib_V3.5.0/Libraries/STM32F10x_StdPeriph_Driver/src/stm32f10x_gpio.c ****       {
 238:../../STM32F10x_StdPeriph_Lib_V3.5.0/Libraries/STM32F10x_StdPeriph_Driver/src/stm32f10x_gpio.c ****         pos = pinpos << 2;
 401              		.loc 1 238 0
 402 01fc 069B     		ldr	r3, [sp, #24]	@ tmp207, pinpos
 403 01fe 9B00     		lsls	r3, r3, #2	@ tmp206, tmp207,
 404 0200 0393     		str	r3, [sp, #12]	@ tmp206, pos
 239:../../STM32F10x_StdPeriph_Lib_V3.5.0/Libraries/STM32F10x_StdPeriph_Driver/src/stm32f10x_gpio.c ****         /* Clear the corresponding high control register bits */
 240:../../STM32F10x_StdPeriph_Lib_V3.5.0/Libraries/STM32F10x_StdPeriph_Driver/src/stm32f10x_gpio.c ****         pinmask = ((uint32_t)0x0F) << pos;
 405              		.loc 1 240 0
 406 0202 039B     		ldr	r3, [sp, #12]	@ D.6732, pos
 407 0204 0F22     		movs	r2, #15	@ tmp209,
 408 0206 02FA03F3 		lsl	r3, r2, r3	@ tmp208, tmp209, D.6732
 409 020a 0293     		str	r3, [sp, #8]	@ tmp208, pinmask
 241:../../STM32F10x_StdPeriph_Lib_V3.5.0/Libraries/STM32F10x_StdPeriph_Driver/src/stm32f10x_gpio.c ****         tmpreg &= ~pinmask;
 410              		.loc 1 241 0
 411 020c 029B     		ldr	r3, [sp, #8]	@ tmp210, pinmask
 412 020e DB43     		mvns	r3, r3	@ D.6729, tmp210
 413 0210 059A     		ldr	r2, [sp, #20]	@ tmp212, tmpreg
 414 0212 1340     		ands	r3, r3, r2	@, tmp211, D.6729, tmp212
 415 0214 0593     		str	r3, [sp, #20]	@ tmp211, tmpreg
 242:../../STM32F10x_StdPeriph_Lib_V3.5.0/Libraries/STM32F10x_StdPeriph_Driver/src/stm32f10x_gpio.c ****         /* Write the mode configuration in the corresponding bits */
 243:../../STM32F10x_StdPeriph_Lib_V3.5.0/Libraries/STM32F10x_StdPeriph_Driver/src/stm32f10x_gpio.c ****         tmpreg |= (currentmode << pos);
 416              		.loc 1 243 0
 417 0216 039B     		ldr	r3, [sp, #12]	@ D.6732, pos
 418 0218 079A     		ldr	r2, [sp, #28]	@ tmp213, currentmode
 419 021a 02FA03F3 		lsl	r3, r2, r3	@ D.6729, tmp213, D.6732
 420 021e 059A     		ldr	r2, [sp, #20]	@ tmp215, tmpreg
 421 0220 1343     		orrs	r3, r3, r2	@, tmp214, D.6729, tmp215
 422 0222 0593     		str	r3, [sp, #20]	@ tmp214, tmpreg
 244:../../STM32F10x_StdPeriph_Lib_V3.5.0/Libraries/STM32F10x_StdPeriph_Driver/src/stm32f10x_gpio.c ****         /* Reset the corresponding ODR bit */
 245:../../STM32F10x_StdPeriph_Lib_V3.5.0/Libraries/STM32F10x_StdPeriph_Driver/src/stm32f10x_gpio.c ****         if (GPIO_InitStruct->GPIO_Mode == GPIO_Mode_IPD)
 423              		.loc 1 245 0
 424 0224 009B     		ldr	r3, [sp]	@ tmp216, GPIO_InitStruct
 425 0226 DB78     		ldrb	r3, [r3, #3]	@ zero_extendqisi2	@ D.6728, GPIO_InitStruct_14(D)->GPIO_Mode
 426 0228 282B     		cmp	r3, #40	@ D.6728,
 427 022a 07D1     		bne	.L22	@,
 246:../../STM32F10x_StdPeriph_Lib_V3.5.0/Libraries/STM32F10x_StdPeriph_Driver/src/stm32f10x_gpio.c ****         {
 247:../../STM32F10x_StdPeriph_Lib_V3.5.0/Libraries/STM32F10x_StdPeriph_Driver/src/stm32f10x_gpio.c ****           GPIOx->BRR = (((uint32_t)0x01) << (pinpos + 0x08));
 428              		.loc 1 247 0
 429 022c 069B     		ldr	r3, [sp, #24]	@ tmp217, pinpos
 430 022e 0833     		adds	r3, r3, #8	@ D.6729, tmp217,
 431 0230 1A46     		mov	r2, r3	@ D.6732, D.6729
 432 0232 0123     		movs	r3, #1	@ tmp218,
 433 0234 03FA02F2 		lsl	r2, r3, r2	@ D.6729, tmp218, D.6732
 434 0238 019B     		ldr	r3, [sp, #4]	@ tmp219, GPIOx
 435 023a 5A61     		str	r2, [r3, #20]	@ D.6729, GPIOx_27(D)->BRR
ARM GAS  /tmp/ccvxPp7R.s 			page 13


 436              	.L22:
 248:../../STM32F10x_StdPeriph_Lib_V3.5.0/Libraries/STM32F10x_StdPeriph_Driver/src/stm32f10x_gpio.c ****         }
 249:../../STM32F10x_StdPeriph_Lib_V3.5.0/Libraries/STM32F10x_StdPeriph_Driver/src/stm32f10x_gpio.c ****         /* Set the corresponding ODR bit */
 250:../../STM32F10x_StdPeriph_Lib_V3.5.0/Libraries/STM32F10x_StdPeriph_Driver/src/stm32f10x_gpio.c ****         if (GPIO_InitStruct->GPIO_Mode == GPIO_Mode_IPU)
 437              		.loc 1 250 0
 438 023c 009B     		ldr	r3, [sp]	@ tmp220, GPIO_InitStruct
 439 023e DB78     		ldrb	r3, [r3, #3]	@ zero_extendqisi2	@ D.6728, GPIO_InitStruct_14(D)->GPIO_Mode
 440 0240 482B     		cmp	r3, #72	@ D.6728,
 441 0242 07D1     		bne	.L21	@,
 251:../../STM32F10x_StdPeriph_Lib_V3.5.0/Libraries/STM32F10x_StdPeriph_Driver/src/stm32f10x_gpio.c ****         {
 252:../../STM32F10x_StdPeriph_Lib_V3.5.0/Libraries/STM32F10x_StdPeriph_Driver/src/stm32f10x_gpio.c ****           GPIOx->BSRR = (((uint32_t)0x01) << (pinpos + 0x08));
 442              		.loc 1 252 0
 443 0244 069B     		ldr	r3, [sp, #24]	@ tmp221, pinpos
 444 0246 0833     		adds	r3, r3, #8	@ D.6729, tmp221,
 445 0248 1A46     		mov	r2, r3	@ D.6732, D.6729
 446 024a 0123     		movs	r3, #1	@ tmp222,
 447 024c 03FA02F2 		lsl	r2, r3, r2	@ D.6729, tmp222, D.6732
 448 0250 019B     		ldr	r3, [sp, #4]	@ tmp223, GPIOx
 449 0252 1A61     		str	r2, [r3, #16]	@ D.6729, GPIOx_27(D)->BSRR
 450              	.L21:
 231:../../STM32F10x_StdPeriph_Lib_V3.5.0/Libraries/STM32F10x_StdPeriph_Driver/src/stm32f10x_gpio.c ****     {
 451              		.loc 1 231 0 discriminator 2
 452 0254 069B     		ldr	r3, [sp, #24]	@ tmp225, pinpos
 453 0256 0133     		adds	r3, r3, #1	@ tmp224, tmp225,
 454 0258 0693     		str	r3, [sp, #24]	@ tmp224, pinpos
 455              	.L20:
 231:../../STM32F10x_StdPeriph_Lib_V3.5.0/Libraries/STM32F10x_StdPeriph_Driver/src/stm32f10x_gpio.c ****     {
 456              		.loc 1 231 0 is_stmt 0 discriminator 1
 457 025a 069B     		ldr	r3, [sp, #24]	@ tmp226, pinpos
 458 025c 072B     		cmp	r3, #7	@ tmp226,
 459 025e BDD9     		bls	.L23	@,
 253:../../STM32F10x_StdPeriph_Lib_V3.5.0/Libraries/STM32F10x_StdPeriph_Driver/src/stm32f10x_gpio.c ****         }
 254:../../STM32F10x_StdPeriph_Lib_V3.5.0/Libraries/STM32F10x_StdPeriph_Driver/src/stm32f10x_gpio.c ****       }
 255:../../STM32F10x_StdPeriph_Lib_V3.5.0/Libraries/STM32F10x_StdPeriph_Driver/src/stm32f10x_gpio.c ****     }
 256:../../STM32F10x_StdPeriph_Lib_V3.5.0/Libraries/STM32F10x_StdPeriph_Driver/src/stm32f10x_gpio.c ****     GPIOx->CRH = tmpreg;
 460              		.loc 1 256 0 is_stmt 1
 461 0260 019B     		ldr	r3, [sp, #4]	@ tmp227, GPIOx
 462 0262 059A     		ldr	r2, [sp, #20]	@ tmp228, tmpreg
 463 0264 5A60     		str	r2, [r3, #4]	@ tmp228, GPIOx_27(D)->CRH
 464              	.L12:
 257:../../STM32F10x_StdPeriph_Lib_V3.5.0/Libraries/STM32F10x_StdPeriph_Driver/src/stm32f10x_gpio.c ****   }
 258:../../STM32F10x_StdPeriph_Lib_V3.5.0/Libraries/STM32F10x_StdPeriph_Driver/src/stm32f10x_gpio.c **** }
 465              		.loc 1 258 0
 466 0266 08B0     		add	sp, sp, #32	@,,
 467              	.LCFI5:
 468              		.cfi_def_cfa_offset 0
 469              		@ sp needed	@
 470 0268 7047     		bx	lr	@
 471              		.cfi_endproc
 472              	.LFE31:
 473              		.size	GPIO_Init, .-GPIO_Init
 474 026a 00BF     		.align	2
 475              		.global	GPIO_StructInit
 476              		.thumb
 477              		.thumb_func
 478              		.type	GPIO_StructInit, %function
 479              	GPIO_StructInit:
ARM GAS  /tmp/ccvxPp7R.s 			page 14


 480              	.LFB32:
 259:../../STM32F10x_StdPeriph_Lib_V3.5.0/Libraries/STM32F10x_StdPeriph_Driver/src/stm32f10x_gpio.c **** 
 260:../../STM32F10x_StdPeriph_Lib_V3.5.0/Libraries/STM32F10x_StdPeriph_Driver/src/stm32f10x_gpio.c **** /**
 261:../../STM32F10x_StdPeriph_Lib_V3.5.0/Libraries/STM32F10x_StdPeriph_Driver/src/stm32f10x_gpio.c ****   * @brief  Fills each GPIO_InitStruct member with its default value.
 262:../../STM32F10x_StdPeriph_Lib_V3.5.0/Libraries/STM32F10x_StdPeriph_Driver/src/stm32f10x_gpio.c ****   * @param  GPIO_InitStruct : pointer to a GPIO_InitTypeDef structure which will
 263:../../STM32F10x_StdPeriph_Lib_V3.5.0/Libraries/STM32F10x_StdPeriph_Driver/src/stm32f10x_gpio.c ****   *         be initialized.
 264:../../STM32F10x_StdPeriph_Lib_V3.5.0/Libraries/STM32F10x_StdPeriph_Driver/src/stm32f10x_gpio.c ****   * @retval None
 265:../../STM32F10x_StdPeriph_Lib_V3.5.0/Libraries/STM32F10x_StdPeriph_Driver/src/stm32f10x_gpio.c ****   */
 266:../../STM32F10x_StdPeriph_Lib_V3.5.0/Libraries/STM32F10x_StdPeriph_Driver/src/stm32f10x_gpio.c **** void GPIO_StructInit(GPIO_InitTypeDef* GPIO_InitStruct)
 267:../../STM32F10x_StdPeriph_Lib_V3.5.0/Libraries/STM32F10x_StdPeriph_Driver/src/stm32f10x_gpio.c **** {
 481              		.loc 1 267 0
 482              		.cfi_startproc
 483              		@ args = 0, pretend = 0, frame = 8
 484              		@ frame_needed = 0, uses_anonymous_args = 0
 485              		@ link register save eliminated.
 486 026c 82B0     		sub	sp, sp, #8	@,,
 487              	.LCFI6:
 488              		.cfi_def_cfa_offset 8
 489 026e 0190     		str	r0, [sp, #4]	@ GPIO_InitStruct, GPIO_InitStruct
 268:../../STM32F10x_StdPeriph_Lib_V3.5.0/Libraries/STM32F10x_StdPeriph_Driver/src/stm32f10x_gpio.c ****   /* Reset GPIO init structure parameters values */
 269:../../STM32F10x_StdPeriph_Lib_V3.5.0/Libraries/STM32F10x_StdPeriph_Driver/src/stm32f10x_gpio.c ****   GPIO_InitStruct->GPIO_Pin  = GPIO_Pin_All;
 490              		.loc 1 269 0
 491 0270 019B     		ldr	r3, [sp, #4]	@ tmp110, GPIO_InitStruct
 492 0272 4FF6FF72 		movw	r2, #65535	@ tmp112,
 493 0276 1A80     		strh	r2, [r3]	@ movhi	@ tmp111, GPIO_InitStruct_1(D)->GPIO_Pin
 270:../../STM32F10x_StdPeriph_Lib_V3.5.0/Libraries/STM32F10x_StdPeriph_Driver/src/stm32f10x_gpio.c ****   GPIO_InitStruct->GPIO_Speed = GPIO_Speed_2MHz;
 494              		.loc 1 270 0
 495 0278 019B     		ldr	r3, [sp, #4]	@ tmp113, GPIO_InitStruct
 496 027a 0222     		movs	r2, #2	@ tmp114,
 497 027c 9A70     		strb	r2, [r3, #2]	@ tmp115, GPIO_InitStruct_1(D)->GPIO_Speed
 271:../../STM32F10x_StdPeriph_Lib_V3.5.0/Libraries/STM32F10x_StdPeriph_Driver/src/stm32f10x_gpio.c ****   GPIO_InitStruct->GPIO_Mode = GPIO_Mode_IN_FLOATING;
 498              		.loc 1 271 0
 499 027e 019B     		ldr	r3, [sp, #4]	@ tmp116, GPIO_InitStruct
 500 0280 0422     		movs	r2, #4	@ tmp117,
 501 0282 DA70     		strb	r2, [r3, #3]	@ tmp118, GPIO_InitStruct_1(D)->GPIO_Mode
 272:../../STM32F10x_StdPeriph_Lib_V3.5.0/Libraries/STM32F10x_StdPeriph_Driver/src/stm32f10x_gpio.c **** }
 502              		.loc 1 272 0
 503 0284 02B0     		add	sp, sp, #8	@,,
 504              	.LCFI7:
 505              		.cfi_def_cfa_offset 0
 506              		@ sp needed	@
 507 0286 7047     		bx	lr	@
 508              		.cfi_endproc
 509              	.LFE32:
 510              		.size	GPIO_StructInit, .-GPIO_StructInit
 511              		.align	2
 512              		.global	GPIO_ReadInputDataBit
 513              		.thumb
 514              		.thumb_func
 515              		.type	GPIO_ReadInputDataBit, %function
 516              	GPIO_ReadInputDataBit:
 517              	.LFB33:
 273:../../STM32F10x_StdPeriph_Lib_V3.5.0/Libraries/STM32F10x_StdPeriph_Driver/src/stm32f10x_gpio.c **** 
 274:../../STM32F10x_StdPeriph_Lib_V3.5.0/Libraries/STM32F10x_StdPeriph_Driver/src/stm32f10x_gpio.c **** /**
 275:../../STM32F10x_StdPeriph_Lib_V3.5.0/Libraries/STM32F10x_StdPeriph_Driver/src/stm32f10x_gpio.c ****   * @brief  Reads the specified input port pin.
 276:../../STM32F10x_StdPeriph_Lib_V3.5.0/Libraries/STM32F10x_StdPeriph_Driver/src/stm32f10x_gpio.c ****   * @param  GPIOx: where x can be (A..G) to select the GPIO peripheral.
 277:../../STM32F10x_StdPeriph_Lib_V3.5.0/Libraries/STM32F10x_StdPeriph_Driver/src/stm32f10x_gpio.c ****   * @param  GPIO_Pin:  specifies the port bit to read.
ARM GAS  /tmp/ccvxPp7R.s 			page 15


 278:../../STM32F10x_StdPeriph_Lib_V3.5.0/Libraries/STM32F10x_StdPeriph_Driver/src/stm32f10x_gpio.c ****   *   This parameter can be GPIO_Pin_x where x can be (0..15).
 279:../../STM32F10x_StdPeriph_Lib_V3.5.0/Libraries/STM32F10x_StdPeriph_Driver/src/stm32f10x_gpio.c ****   * @retval The input port pin value.
 280:../../STM32F10x_StdPeriph_Lib_V3.5.0/Libraries/STM32F10x_StdPeriph_Driver/src/stm32f10x_gpio.c ****   */
 281:../../STM32F10x_StdPeriph_Lib_V3.5.0/Libraries/STM32F10x_StdPeriph_Driver/src/stm32f10x_gpio.c **** uint8_t GPIO_ReadInputDataBit(GPIO_TypeDef* GPIOx, uint16_t GPIO_Pin)
 282:../../STM32F10x_StdPeriph_Lib_V3.5.0/Libraries/STM32F10x_StdPeriph_Driver/src/stm32f10x_gpio.c **** {
 518              		.loc 1 282 0
 519              		.cfi_startproc
 520              		@ args = 0, pretend = 0, frame = 16
 521              		@ frame_needed = 0, uses_anonymous_args = 0
 522              		@ link register save eliminated.
 523 0288 84B0     		sub	sp, sp, #16	@,,
 524              	.LCFI8:
 525              		.cfi_def_cfa_offset 16
 526 028a 0190     		str	r0, [sp, #4]	@ GPIOx, GPIOx
 527 028c 0B46     		mov	r3, r1	@ tmp115, GPIO_Pin
 528 028e ADF80230 		strh	r3, [sp, #2]	@ movhi	@ tmp116, GPIO_Pin
 283:../../STM32F10x_StdPeriph_Lib_V3.5.0/Libraries/STM32F10x_StdPeriph_Driver/src/stm32f10x_gpio.c ****   uint8_t bitstatus = 0x00;
 529              		.loc 1 283 0
 530 0292 0023     		movs	r3, #0	@ tmp117,
 531 0294 8DF80F30 		strb	r3, [sp, #15]	@ tmp118, bitstatus
 284:../../STM32F10x_StdPeriph_Lib_V3.5.0/Libraries/STM32F10x_StdPeriph_Driver/src/stm32f10x_gpio.c ****   
 285:../../STM32F10x_StdPeriph_Lib_V3.5.0/Libraries/STM32F10x_StdPeriph_Driver/src/stm32f10x_gpio.c ****   /* Check the parameters */
 286:../../STM32F10x_StdPeriph_Lib_V3.5.0/Libraries/STM32F10x_StdPeriph_Driver/src/stm32f10x_gpio.c ****   assert_param(IS_GPIO_ALL_PERIPH(GPIOx));
 287:../../STM32F10x_StdPeriph_Lib_V3.5.0/Libraries/STM32F10x_StdPeriph_Driver/src/stm32f10x_gpio.c ****   assert_param(IS_GET_GPIO_PIN(GPIO_Pin)); 
 288:../../STM32F10x_StdPeriph_Lib_V3.5.0/Libraries/STM32F10x_StdPeriph_Driver/src/stm32f10x_gpio.c ****   
 289:../../STM32F10x_StdPeriph_Lib_V3.5.0/Libraries/STM32F10x_StdPeriph_Driver/src/stm32f10x_gpio.c ****   if ((GPIOx->IDR & GPIO_Pin) != (uint32_t)Bit_RESET)
 532              		.loc 1 289 0
 533 0298 019B     		ldr	r3, [sp, #4]	@ tmp119, GPIOx
 534 029a 9A68     		ldr	r2, [r3, #8]	@ D.6733, GPIOx_3(D)->IDR
 535 029c BDF80230 		ldrh	r3, [sp, #2]	@ D.6733, GPIO_Pin
 536 02a0 1340     		ands	r3, r3, r2	@, D.6733, D.6733, D.6733
 537 02a2 002B     		cmp	r3, #0	@ D.6733,
 538 02a4 03D0     		beq	.L26	@,
 290:../../STM32F10x_StdPeriph_Lib_V3.5.0/Libraries/STM32F10x_StdPeriph_Driver/src/stm32f10x_gpio.c ****   {
 291:../../STM32F10x_StdPeriph_Lib_V3.5.0/Libraries/STM32F10x_StdPeriph_Driver/src/stm32f10x_gpio.c ****     bitstatus = (uint8_t)Bit_SET;
 539              		.loc 1 291 0
 540 02a6 0123     		movs	r3, #1	@ tmp120,
 541 02a8 8DF80F30 		strb	r3, [sp, #15]	@ tmp121, bitstatus
 542 02ac 02E0     		b	.L27	@
 543              	.L26:
 292:../../STM32F10x_StdPeriph_Lib_V3.5.0/Libraries/STM32F10x_StdPeriph_Driver/src/stm32f10x_gpio.c ****   }
 293:../../STM32F10x_StdPeriph_Lib_V3.5.0/Libraries/STM32F10x_StdPeriph_Driver/src/stm32f10x_gpio.c ****   else
 294:../../STM32F10x_StdPeriph_Lib_V3.5.0/Libraries/STM32F10x_StdPeriph_Driver/src/stm32f10x_gpio.c ****   {
 295:../../STM32F10x_StdPeriph_Lib_V3.5.0/Libraries/STM32F10x_StdPeriph_Driver/src/stm32f10x_gpio.c ****     bitstatus = (uint8_t)Bit_RESET;
 544              		.loc 1 295 0
 545 02ae 0023     		movs	r3, #0	@ tmp122,
 546 02b0 8DF80F30 		strb	r3, [sp, #15]	@ tmp123, bitstatus
 547              	.L27:
 296:../../STM32F10x_StdPeriph_Lib_V3.5.0/Libraries/STM32F10x_StdPeriph_Driver/src/stm32f10x_gpio.c ****   }
 297:../../STM32F10x_StdPeriph_Lib_V3.5.0/Libraries/STM32F10x_StdPeriph_Driver/src/stm32f10x_gpio.c ****   return bitstatus;
 548              		.loc 1 297 0
 549 02b4 9DF80F30 		ldrb	r3, [sp, #15]	@ zero_extendqisi2	@ D.6734, bitstatus
 298:../../STM32F10x_StdPeriph_Lib_V3.5.0/Libraries/STM32F10x_StdPeriph_Driver/src/stm32f10x_gpio.c **** }
 550              		.loc 1 298 0
 551 02b8 1846     		mov	r0, r3	@, <retval>
 552 02ba 04B0     		add	sp, sp, #16	@,,
 553              	.LCFI9:
ARM GAS  /tmp/ccvxPp7R.s 			page 16


 554              		.cfi_def_cfa_offset 0
 555              		@ sp needed	@
 556 02bc 7047     		bx	lr	@
 557              		.cfi_endproc
 558              	.LFE33:
 559              		.size	GPIO_ReadInputDataBit, .-GPIO_ReadInputDataBit
 560 02be 00BF     		.align	2
 561              		.global	GPIO_ReadInputData
 562              		.thumb
 563              		.thumb_func
 564              		.type	GPIO_ReadInputData, %function
 565              	GPIO_ReadInputData:
 566              	.LFB34:
 299:../../STM32F10x_StdPeriph_Lib_V3.5.0/Libraries/STM32F10x_StdPeriph_Driver/src/stm32f10x_gpio.c **** 
 300:../../STM32F10x_StdPeriph_Lib_V3.5.0/Libraries/STM32F10x_StdPeriph_Driver/src/stm32f10x_gpio.c **** /**
 301:../../STM32F10x_StdPeriph_Lib_V3.5.0/Libraries/STM32F10x_StdPeriph_Driver/src/stm32f10x_gpio.c ****   * @brief  Reads the specified GPIO input data port.
 302:../../STM32F10x_StdPeriph_Lib_V3.5.0/Libraries/STM32F10x_StdPeriph_Driver/src/stm32f10x_gpio.c ****   * @param  GPIOx: where x can be (A..G) to select the GPIO peripheral.
 303:../../STM32F10x_StdPeriph_Lib_V3.5.0/Libraries/STM32F10x_StdPeriph_Driver/src/stm32f10x_gpio.c ****   * @retval GPIO input data port value.
 304:../../STM32F10x_StdPeriph_Lib_V3.5.0/Libraries/STM32F10x_StdPeriph_Driver/src/stm32f10x_gpio.c ****   */
 305:../../STM32F10x_StdPeriph_Lib_V3.5.0/Libraries/STM32F10x_StdPeriph_Driver/src/stm32f10x_gpio.c **** uint16_t GPIO_ReadInputData(GPIO_TypeDef* GPIOx)
 306:../../STM32F10x_StdPeriph_Lib_V3.5.0/Libraries/STM32F10x_StdPeriph_Driver/src/stm32f10x_gpio.c **** {
 567              		.loc 1 306 0
 568              		.cfi_startproc
 569              		@ args = 0, pretend = 0, frame = 8
 570              		@ frame_needed = 0, uses_anonymous_args = 0
 571              		@ link register save eliminated.
 572 02c0 82B0     		sub	sp, sp, #8	@,,
 573              	.LCFI10:
 574              		.cfi_def_cfa_offset 8
 575 02c2 0190     		str	r0, [sp, #4]	@ GPIOx, GPIOx
 307:../../STM32F10x_StdPeriph_Lib_V3.5.0/Libraries/STM32F10x_StdPeriph_Driver/src/stm32f10x_gpio.c ****   /* Check the parameters */
 308:../../STM32F10x_StdPeriph_Lib_V3.5.0/Libraries/STM32F10x_StdPeriph_Driver/src/stm32f10x_gpio.c ****   assert_param(IS_GPIO_ALL_PERIPH(GPIOx));
 309:../../STM32F10x_StdPeriph_Lib_V3.5.0/Libraries/STM32F10x_StdPeriph_Driver/src/stm32f10x_gpio.c ****   
 310:../../STM32F10x_StdPeriph_Lib_V3.5.0/Libraries/STM32F10x_StdPeriph_Driver/src/stm32f10x_gpio.c ****   return ((uint16_t)GPIOx->IDR);
 576              		.loc 1 310 0
 577 02c4 019B     		ldr	r3, [sp, #4]	@ tmp113, GPIOx
 578 02c6 9B68     		ldr	r3, [r3, #8]	@ D.6735, GPIOx_1(D)->IDR
 579 02c8 9BB2     		uxth	r3, r3	@ D.6736, D.6735
 311:../../STM32F10x_StdPeriph_Lib_V3.5.0/Libraries/STM32F10x_StdPeriph_Driver/src/stm32f10x_gpio.c **** }
 580              		.loc 1 311 0
 581 02ca 1846     		mov	r0, r3	@, <retval>
 582 02cc 02B0     		add	sp, sp, #8	@,,
 583              	.LCFI11:
 584              		.cfi_def_cfa_offset 0
 585              		@ sp needed	@
 586 02ce 7047     		bx	lr	@
 587              		.cfi_endproc
 588              	.LFE34:
 589              		.size	GPIO_ReadInputData, .-GPIO_ReadInputData
 590              		.align	2
 591              		.global	GPIO_ReadOutputDataBit
 592              		.thumb
 593              		.thumb_func
 594              		.type	GPIO_ReadOutputDataBit, %function
 595              	GPIO_ReadOutputDataBit:
 596              	.LFB35:
 312:../../STM32F10x_StdPeriph_Lib_V3.5.0/Libraries/STM32F10x_StdPeriph_Driver/src/stm32f10x_gpio.c **** 
ARM GAS  /tmp/ccvxPp7R.s 			page 17


 313:../../STM32F10x_StdPeriph_Lib_V3.5.0/Libraries/STM32F10x_StdPeriph_Driver/src/stm32f10x_gpio.c **** /**
 314:../../STM32F10x_StdPeriph_Lib_V3.5.0/Libraries/STM32F10x_StdPeriph_Driver/src/stm32f10x_gpio.c ****   * @brief  Reads the specified output data port bit.
 315:../../STM32F10x_StdPeriph_Lib_V3.5.0/Libraries/STM32F10x_StdPeriph_Driver/src/stm32f10x_gpio.c ****   * @param  GPIOx: where x can be (A..G) to select the GPIO peripheral.
 316:../../STM32F10x_StdPeriph_Lib_V3.5.0/Libraries/STM32F10x_StdPeriph_Driver/src/stm32f10x_gpio.c ****   * @param  GPIO_Pin:  specifies the port bit to read.
 317:../../STM32F10x_StdPeriph_Lib_V3.5.0/Libraries/STM32F10x_StdPeriph_Driver/src/stm32f10x_gpio.c ****   *   This parameter can be GPIO_Pin_x where x can be (0..15).
 318:../../STM32F10x_StdPeriph_Lib_V3.5.0/Libraries/STM32F10x_StdPeriph_Driver/src/stm32f10x_gpio.c ****   * @retval The output port pin value.
 319:../../STM32F10x_StdPeriph_Lib_V3.5.0/Libraries/STM32F10x_StdPeriph_Driver/src/stm32f10x_gpio.c ****   */
 320:../../STM32F10x_StdPeriph_Lib_V3.5.0/Libraries/STM32F10x_StdPeriph_Driver/src/stm32f10x_gpio.c **** uint8_t GPIO_ReadOutputDataBit(GPIO_TypeDef* GPIOx, uint16_t GPIO_Pin)
 321:../../STM32F10x_StdPeriph_Lib_V3.5.0/Libraries/STM32F10x_StdPeriph_Driver/src/stm32f10x_gpio.c **** {
 597              		.loc 1 321 0
 598              		.cfi_startproc
 599              		@ args = 0, pretend = 0, frame = 16
 600              		@ frame_needed = 0, uses_anonymous_args = 0
 601              		@ link register save eliminated.
 602 02d0 84B0     		sub	sp, sp, #16	@,,
 603              	.LCFI12:
 604              		.cfi_def_cfa_offset 16
 605 02d2 0190     		str	r0, [sp, #4]	@ GPIOx, GPIOx
 606 02d4 0B46     		mov	r3, r1	@ tmp115, GPIO_Pin
 607 02d6 ADF80230 		strh	r3, [sp, #2]	@ movhi	@ tmp116, GPIO_Pin
 322:../../STM32F10x_StdPeriph_Lib_V3.5.0/Libraries/STM32F10x_StdPeriph_Driver/src/stm32f10x_gpio.c ****   uint8_t bitstatus = 0x00;
 608              		.loc 1 322 0
 609 02da 0023     		movs	r3, #0	@ tmp117,
 610 02dc 8DF80F30 		strb	r3, [sp, #15]	@ tmp118, bitstatus
 323:../../STM32F10x_StdPeriph_Lib_V3.5.0/Libraries/STM32F10x_StdPeriph_Driver/src/stm32f10x_gpio.c ****   /* Check the parameters */
 324:../../STM32F10x_StdPeriph_Lib_V3.5.0/Libraries/STM32F10x_StdPeriph_Driver/src/stm32f10x_gpio.c ****   assert_param(IS_GPIO_ALL_PERIPH(GPIOx));
 325:../../STM32F10x_StdPeriph_Lib_V3.5.0/Libraries/STM32F10x_StdPeriph_Driver/src/stm32f10x_gpio.c ****   assert_param(IS_GET_GPIO_PIN(GPIO_Pin)); 
 326:../../STM32F10x_StdPeriph_Lib_V3.5.0/Libraries/STM32F10x_StdPeriph_Driver/src/stm32f10x_gpio.c ****   
 327:../../STM32F10x_StdPeriph_Lib_V3.5.0/Libraries/STM32F10x_StdPeriph_Driver/src/stm32f10x_gpio.c ****   if ((GPIOx->ODR & GPIO_Pin) != (uint32_t)Bit_RESET)
 611              		.loc 1 327 0
 612 02e0 019B     		ldr	r3, [sp, #4]	@ tmp119, GPIOx
 613 02e2 DA68     		ldr	r2, [r3, #12]	@ D.6737, GPIOx_3(D)->ODR
 614 02e4 BDF80230 		ldrh	r3, [sp, #2]	@ D.6737, GPIO_Pin
 615 02e8 1340     		ands	r3, r3, r2	@, D.6737, D.6737, D.6737
 616 02ea 002B     		cmp	r3, #0	@ D.6737,
 617 02ec 03D0     		beq	.L32	@,
 328:../../STM32F10x_StdPeriph_Lib_V3.5.0/Libraries/STM32F10x_StdPeriph_Driver/src/stm32f10x_gpio.c ****   {
 329:../../STM32F10x_StdPeriph_Lib_V3.5.0/Libraries/STM32F10x_StdPeriph_Driver/src/stm32f10x_gpio.c ****     bitstatus = (uint8_t)Bit_SET;
 618              		.loc 1 329 0
 619 02ee 0123     		movs	r3, #1	@ tmp120,
 620 02f0 8DF80F30 		strb	r3, [sp, #15]	@ tmp121, bitstatus
 621 02f4 02E0     		b	.L33	@
 622              	.L32:
 330:../../STM32F10x_StdPeriph_Lib_V3.5.0/Libraries/STM32F10x_StdPeriph_Driver/src/stm32f10x_gpio.c ****   }
 331:../../STM32F10x_StdPeriph_Lib_V3.5.0/Libraries/STM32F10x_StdPeriph_Driver/src/stm32f10x_gpio.c ****   else
 332:../../STM32F10x_StdPeriph_Lib_V3.5.0/Libraries/STM32F10x_StdPeriph_Driver/src/stm32f10x_gpio.c ****   {
 333:../../STM32F10x_StdPeriph_Lib_V3.5.0/Libraries/STM32F10x_StdPeriph_Driver/src/stm32f10x_gpio.c ****     bitstatus = (uint8_t)Bit_RESET;
 623              		.loc 1 333 0
 624 02f6 0023     		movs	r3, #0	@ tmp122,
 625 02f8 8DF80F30 		strb	r3, [sp, #15]	@ tmp123, bitstatus
 626              	.L33:
 334:../../STM32F10x_StdPeriph_Lib_V3.5.0/Libraries/STM32F10x_StdPeriph_Driver/src/stm32f10x_gpio.c ****   }
 335:../../STM32F10x_StdPeriph_Lib_V3.5.0/Libraries/STM32F10x_StdPeriph_Driver/src/stm32f10x_gpio.c ****   return bitstatus;
 627              		.loc 1 335 0
 628 02fc 9DF80F30 		ldrb	r3, [sp, #15]	@ zero_extendqisi2	@ D.6738, bitstatus
 336:../../STM32F10x_StdPeriph_Lib_V3.5.0/Libraries/STM32F10x_StdPeriph_Driver/src/stm32f10x_gpio.c **** }
 629              		.loc 1 336 0
ARM GAS  /tmp/ccvxPp7R.s 			page 18


 630 0300 1846     		mov	r0, r3	@, <retval>
 631 0302 04B0     		add	sp, sp, #16	@,,
 632              	.LCFI13:
 633              		.cfi_def_cfa_offset 0
 634              		@ sp needed	@
 635 0304 7047     		bx	lr	@
 636              		.cfi_endproc
 637              	.LFE35:
 638              		.size	GPIO_ReadOutputDataBit, .-GPIO_ReadOutputDataBit
 639 0306 00BF     		.align	2
 640              		.global	GPIO_ReadOutputData
 641              		.thumb
 642              		.thumb_func
 643              		.type	GPIO_ReadOutputData, %function
 644              	GPIO_ReadOutputData:
 645              	.LFB36:
 337:../../STM32F10x_StdPeriph_Lib_V3.5.0/Libraries/STM32F10x_StdPeriph_Driver/src/stm32f10x_gpio.c **** 
 338:../../STM32F10x_StdPeriph_Lib_V3.5.0/Libraries/STM32F10x_StdPeriph_Driver/src/stm32f10x_gpio.c **** /**
 339:../../STM32F10x_StdPeriph_Lib_V3.5.0/Libraries/STM32F10x_StdPeriph_Driver/src/stm32f10x_gpio.c ****   * @brief  Reads the specified GPIO output data port.
 340:../../STM32F10x_StdPeriph_Lib_V3.5.0/Libraries/STM32F10x_StdPeriph_Driver/src/stm32f10x_gpio.c ****   * @param  GPIOx: where x can be (A..G) to select the GPIO peripheral.
 341:../../STM32F10x_StdPeriph_Lib_V3.5.0/Libraries/STM32F10x_StdPeriph_Driver/src/stm32f10x_gpio.c ****   * @retval GPIO output data port value.
 342:../../STM32F10x_StdPeriph_Lib_V3.5.0/Libraries/STM32F10x_StdPeriph_Driver/src/stm32f10x_gpio.c ****   */
 343:../../STM32F10x_StdPeriph_Lib_V3.5.0/Libraries/STM32F10x_StdPeriph_Driver/src/stm32f10x_gpio.c **** uint16_t GPIO_ReadOutputData(GPIO_TypeDef* GPIOx)
 344:../../STM32F10x_StdPeriph_Lib_V3.5.0/Libraries/STM32F10x_StdPeriph_Driver/src/stm32f10x_gpio.c **** {
 646              		.loc 1 344 0
 647              		.cfi_startproc
 648              		@ args = 0, pretend = 0, frame = 8
 649              		@ frame_needed = 0, uses_anonymous_args = 0
 650              		@ link register save eliminated.
 651 0308 82B0     		sub	sp, sp, #8	@,,
 652              	.LCFI14:
 653              		.cfi_def_cfa_offset 8
 654 030a 0190     		str	r0, [sp, #4]	@ GPIOx, GPIOx
 345:../../STM32F10x_StdPeriph_Lib_V3.5.0/Libraries/STM32F10x_StdPeriph_Driver/src/stm32f10x_gpio.c ****   /* Check the parameters */
 346:../../STM32F10x_StdPeriph_Lib_V3.5.0/Libraries/STM32F10x_StdPeriph_Driver/src/stm32f10x_gpio.c ****   assert_param(IS_GPIO_ALL_PERIPH(GPIOx));
 347:../../STM32F10x_StdPeriph_Lib_V3.5.0/Libraries/STM32F10x_StdPeriph_Driver/src/stm32f10x_gpio.c ****     
 348:../../STM32F10x_StdPeriph_Lib_V3.5.0/Libraries/STM32F10x_StdPeriph_Driver/src/stm32f10x_gpio.c ****   return ((uint16_t)GPIOx->ODR);
 655              		.loc 1 348 0
 656 030c 019B     		ldr	r3, [sp, #4]	@ tmp113, GPIOx
 657 030e DB68     		ldr	r3, [r3, #12]	@ D.6739, GPIOx_1(D)->ODR
 658 0310 9BB2     		uxth	r3, r3	@ D.6740, D.6739
 349:../../STM32F10x_StdPeriph_Lib_V3.5.0/Libraries/STM32F10x_StdPeriph_Driver/src/stm32f10x_gpio.c **** }
 659              		.loc 1 349 0
 660 0312 1846     		mov	r0, r3	@, <retval>
 661 0314 02B0     		add	sp, sp, #8	@,,
 662              	.LCFI15:
 663              		.cfi_def_cfa_offset 0
 664              		@ sp needed	@
 665 0316 7047     		bx	lr	@
 666              		.cfi_endproc
 667              	.LFE36:
 668              		.size	GPIO_ReadOutputData, .-GPIO_ReadOutputData
 669              		.align	2
 670              		.global	GPIO_SetBits
 671              		.thumb
 672              		.thumb_func
 673              		.type	GPIO_SetBits, %function
ARM GAS  /tmp/ccvxPp7R.s 			page 19


 674              	GPIO_SetBits:
 675              	.LFB37:
 350:../../STM32F10x_StdPeriph_Lib_V3.5.0/Libraries/STM32F10x_StdPeriph_Driver/src/stm32f10x_gpio.c **** 
 351:../../STM32F10x_StdPeriph_Lib_V3.5.0/Libraries/STM32F10x_StdPeriph_Driver/src/stm32f10x_gpio.c **** /**
 352:../../STM32F10x_StdPeriph_Lib_V3.5.0/Libraries/STM32F10x_StdPeriph_Driver/src/stm32f10x_gpio.c ****   * @brief  Sets the selected data port bits.
 353:../../STM32F10x_StdPeriph_Lib_V3.5.0/Libraries/STM32F10x_StdPeriph_Driver/src/stm32f10x_gpio.c ****   * @param  GPIOx: where x can be (A..G) to select the GPIO peripheral.
 354:../../STM32F10x_StdPeriph_Lib_V3.5.0/Libraries/STM32F10x_StdPeriph_Driver/src/stm32f10x_gpio.c ****   * @param  GPIO_Pin: specifies the port bits to be written.
 355:../../STM32F10x_StdPeriph_Lib_V3.5.0/Libraries/STM32F10x_StdPeriph_Driver/src/stm32f10x_gpio.c ****   *   This parameter can be any combination of GPIO_Pin_x where x can be (0..15).
 356:../../STM32F10x_StdPeriph_Lib_V3.5.0/Libraries/STM32F10x_StdPeriph_Driver/src/stm32f10x_gpio.c ****   * @retval None
 357:../../STM32F10x_StdPeriph_Lib_V3.5.0/Libraries/STM32F10x_StdPeriph_Driver/src/stm32f10x_gpio.c ****   */
 358:../../STM32F10x_StdPeriph_Lib_V3.5.0/Libraries/STM32F10x_StdPeriph_Driver/src/stm32f10x_gpio.c **** void GPIO_SetBits(GPIO_TypeDef* GPIOx, uint16_t GPIO_Pin)
 359:../../STM32F10x_StdPeriph_Lib_V3.5.0/Libraries/STM32F10x_StdPeriph_Driver/src/stm32f10x_gpio.c **** {
 676              		.loc 1 359 0
 677              		.cfi_startproc
 678              		@ args = 0, pretend = 0, frame = 8
 679              		@ frame_needed = 0, uses_anonymous_args = 0
 680              		@ link register save eliminated.
 681 0318 82B0     		sub	sp, sp, #8	@,,
 682              	.LCFI16:
 683              		.cfi_def_cfa_offset 8
 684 031a 0190     		str	r0, [sp, #4]	@ GPIOx, GPIOx
 685 031c 0B46     		mov	r3, r1	@ tmp111, GPIO_Pin
 686 031e ADF80230 		strh	r3, [sp, #2]	@ movhi	@ tmp112, GPIO_Pin
 360:../../STM32F10x_StdPeriph_Lib_V3.5.0/Libraries/STM32F10x_StdPeriph_Driver/src/stm32f10x_gpio.c ****   /* Check the parameters */
 361:../../STM32F10x_StdPeriph_Lib_V3.5.0/Libraries/STM32F10x_StdPeriph_Driver/src/stm32f10x_gpio.c ****   assert_param(IS_GPIO_ALL_PERIPH(GPIOx));
 362:../../STM32F10x_StdPeriph_Lib_V3.5.0/Libraries/STM32F10x_StdPeriph_Driver/src/stm32f10x_gpio.c ****   assert_param(IS_GPIO_PIN(GPIO_Pin));
 363:../../STM32F10x_StdPeriph_Lib_V3.5.0/Libraries/STM32F10x_StdPeriph_Driver/src/stm32f10x_gpio.c ****   
 364:../../STM32F10x_StdPeriph_Lib_V3.5.0/Libraries/STM32F10x_StdPeriph_Driver/src/stm32f10x_gpio.c ****   GPIOx->BSRR = GPIO_Pin;
 687              		.loc 1 364 0
 688 0322 BDF80220 		ldrh	r2, [sp, #2]	@ D.6741, GPIO_Pin
 689 0326 019B     		ldr	r3, [sp, #4]	@ tmp113, GPIOx
 690 0328 1A61     		str	r2, [r3, #16]	@ D.6741, GPIOx_3(D)->BSRR
 365:../../STM32F10x_StdPeriph_Lib_V3.5.0/Libraries/STM32F10x_StdPeriph_Driver/src/stm32f10x_gpio.c **** }
 691              		.loc 1 365 0
 692 032a 02B0     		add	sp, sp, #8	@,,
 693              	.LCFI17:
 694              		.cfi_def_cfa_offset 0
 695              		@ sp needed	@
 696 032c 7047     		bx	lr	@
 697              		.cfi_endproc
 698              	.LFE37:
 699              		.size	GPIO_SetBits, .-GPIO_SetBits
 700 032e 00BF     		.align	2
 701              		.global	GPIO_ResetBits
 702              		.thumb
 703              		.thumb_func
 704              		.type	GPIO_ResetBits, %function
 705              	GPIO_ResetBits:
 706              	.LFB38:
 366:../../STM32F10x_StdPeriph_Lib_V3.5.0/Libraries/STM32F10x_StdPeriph_Driver/src/stm32f10x_gpio.c **** 
 367:../../STM32F10x_StdPeriph_Lib_V3.5.0/Libraries/STM32F10x_StdPeriph_Driver/src/stm32f10x_gpio.c **** /**
 368:../../STM32F10x_StdPeriph_Lib_V3.5.0/Libraries/STM32F10x_StdPeriph_Driver/src/stm32f10x_gpio.c ****   * @brief  Clears the selected data port bits.
 369:../../STM32F10x_StdPeriph_Lib_V3.5.0/Libraries/STM32F10x_StdPeriph_Driver/src/stm32f10x_gpio.c ****   * @param  GPIOx: where x can be (A..G) to select the GPIO peripheral.
 370:../../STM32F10x_StdPeriph_Lib_V3.5.0/Libraries/STM32F10x_StdPeriph_Driver/src/stm32f10x_gpio.c ****   * @param  GPIO_Pin: specifies the port bits to be written.
 371:../../STM32F10x_StdPeriph_Lib_V3.5.0/Libraries/STM32F10x_StdPeriph_Driver/src/stm32f10x_gpio.c ****   *   This parameter can be any combination of GPIO_Pin_x where x can be (0..15).
 372:../../STM32F10x_StdPeriph_Lib_V3.5.0/Libraries/STM32F10x_StdPeriph_Driver/src/stm32f10x_gpio.c ****   * @retval None
 373:../../STM32F10x_StdPeriph_Lib_V3.5.0/Libraries/STM32F10x_StdPeriph_Driver/src/stm32f10x_gpio.c ****   */
ARM GAS  /tmp/ccvxPp7R.s 			page 20


 374:../../STM32F10x_StdPeriph_Lib_V3.5.0/Libraries/STM32F10x_StdPeriph_Driver/src/stm32f10x_gpio.c **** void GPIO_ResetBits(GPIO_TypeDef* GPIOx, uint16_t GPIO_Pin)
 375:../../STM32F10x_StdPeriph_Lib_V3.5.0/Libraries/STM32F10x_StdPeriph_Driver/src/stm32f10x_gpio.c **** {
 707              		.loc 1 375 0
 708              		.cfi_startproc
 709              		@ args = 0, pretend = 0, frame = 8
 710              		@ frame_needed = 0, uses_anonymous_args = 0
 711              		@ link register save eliminated.
 712 0330 82B0     		sub	sp, sp, #8	@,,
 713              	.LCFI18:
 714              		.cfi_def_cfa_offset 8
 715 0332 0190     		str	r0, [sp, #4]	@ GPIOx, GPIOx
 716 0334 0B46     		mov	r3, r1	@ tmp111, GPIO_Pin
 717 0336 ADF80230 		strh	r3, [sp, #2]	@ movhi	@ tmp112, GPIO_Pin
 376:../../STM32F10x_StdPeriph_Lib_V3.5.0/Libraries/STM32F10x_StdPeriph_Driver/src/stm32f10x_gpio.c ****   /* Check the parameters */
 377:../../STM32F10x_StdPeriph_Lib_V3.5.0/Libraries/STM32F10x_StdPeriph_Driver/src/stm32f10x_gpio.c ****   assert_param(IS_GPIO_ALL_PERIPH(GPIOx));
 378:../../STM32F10x_StdPeriph_Lib_V3.5.0/Libraries/STM32F10x_StdPeriph_Driver/src/stm32f10x_gpio.c ****   assert_param(IS_GPIO_PIN(GPIO_Pin));
 379:../../STM32F10x_StdPeriph_Lib_V3.5.0/Libraries/STM32F10x_StdPeriph_Driver/src/stm32f10x_gpio.c ****   
 380:../../STM32F10x_StdPeriph_Lib_V3.5.0/Libraries/STM32F10x_StdPeriph_Driver/src/stm32f10x_gpio.c ****   GPIOx->BRR = GPIO_Pin;
 718              		.loc 1 380 0
 719 033a BDF80220 		ldrh	r2, [sp, #2]	@ D.6742, GPIO_Pin
 720 033e 019B     		ldr	r3, [sp, #4]	@ tmp113, GPIOx
 721 0340 5A61     		str	r2, [r3, #20]	@ D.6742, GPIOx_3(D)->BRR
 381:../../STM32F10x_StdPeriph_Lib_V3.5.0/Libraries/STM32F10x_StdPeriph_Driver/src/stm32f10x_gpio.c **** }
 722              		.loc 1 381 0
 723 0342 02B0     		add	sp, sp, #8	@,,
 724              	.LCFI19:
 725              		.cfi_def_cfa_offset 0
 726              		@ sp needed	@
 727 0344 7047     		bx	lr	@
 728              		.cfi_endproc
 729              	.LFE38:
 730              		.size	GPIO_ResetBits, .-GPIO_ResetBits
 731 0346 00BF     		.align	2
 732              		.global	GPIO_WriteBit
 733              		.thumb
 734              		.thumb_func
 735              		.type	GPIO_WriteBit, %function
 736              	GPIO_WriteBit:
 737              	.LFB39:
 382:../../STM32F10x_StdPeriph_Lib_V3.5.0/Libraries/STM32F10x_StdPeriph_Driver/src/stm32f10x_gpio.c **** 
 383:../../STM32F10x_StdPeriph_Lib_V3.5.0/Libraries/STM32F10x_StdPeriph_Driver/src/stm32f10x_gpio.c **** /**
 384:../../STM32F10x_StdPeriph_Lib_V3.5.0/Libraries/STM32F10x_StdPeriph_Driver/src/stm32f10x_gpio.c ****   * @brief  Sets or clears the selected data port bit.
 385:../../STM32F10x_StdPeriph_Lib_V3.5.0/Libraries/STM32F10x_StdPeriph_Driver/src/stm32f10x_gpio.c ****   * @param  GPIOx: where x can be (A..G) to select the GPIO peripheral.
 386:../../STM32F10x_StdPeriph_Lib_V3.5.0/Libraries/STM32F10x_StdPeriph_Driver/src/stm32f10x_gpio.c ****   * @param  GPIO_Pin: specifies the port bit to be written.
 387:../../STM32F10x_StdPeriph_Lib_V3.5.0/Libraries/STM32F10x_StdPeriph_Driver/src/stm32f10x_gpio.c ****   *   This parameter can be one of GPIO_Pin_x where x can be (0..15).
 388:../../STM32F10x_StdPeriph_Lib_V3.5.0/Libraries/STM32F10x_StdPeriph_Driver/src/stm32f10x_gpio.c ****   * @param  BitVal: specifies the value to be written to the selected bit.
 389:../../STM32F10x_StdPeriph_Lib_V3.5.0/Libraries/STM32F10x_StdPeriph_Driver/src/stm32f10x_gpio.c ****   *   This parameter can be one of the BitAction enum values:
 390:../../STM32F10x_StdPeriph_Lib_V3.5.0/Libraries/STM32F10x_StdPeriph_Driver/src/stm32f10x_gpio.c ****   *     @arg Bit_RESET: to clear the port pin
 391:../../STM32F10x_StdPeriph_Lib_V3.5.0/Libraries/STM32F10x_StdPeriph_Driver/src/stm32f10x_gpio.c ****   *     @arg Bit_SET: to set the port pin
 392:../../STM32F10x_StdPeriph_Lib_V3.5.0/Libraries/STM32F10x_StdPeriph_Driver/src/stm32f10x_gpio.c ****   * @retval None
 393:../../STM32F10x_StdPeriph_Lib_V3.5.0/Libraries/STM32F10x_StdPeriph_Driver/src/stm32f10x_gpio.c ****   */
 394:../../STM32F10x_StdPeriph_Lib_V3.5.0/Libraries/STM32F10x_StdPeriph_Driver/src/stm32f10x_gpio.c **** void GPIO_WriteBit(GPIO_TypeDef* GPIOx, uint16_t GPIO_Pin, BitAction BitVal)
 395:../../STM32F10x_StdPeriph_Lib_V3.5.0/Libraries/STM32F10x_StdPeriph_Driver/src/stm32f10x_gpio.c **** {
 738              		.loc 1 395 0
 739              		.cfi_startproc
 740              		@ args = 0, pretend = 0, frame = 8
 741              		@ frame_needed = 0, uses_anonymous_args = 0
ARM GAS  /tmp/ccvxPp7R.s 			page 21


 742              		@ link register save eliminated.
 743 0348 82B0     		sub	sp, sp, #8	@,,
 744              	.LCFI20:
 745              		.cfi_def_cfa_offset 8
 746 034a 0190     		str	r0, [sp, #4]	@ GPIOx, GPIOx
 747 034c 0B46     		mov	r3, r1	@ tmp112, GPIO_Pin
 748 034e ADF80230 		strh	r3, [sp, #2]	@ movhi	@ tmp113, GPIO_Pin
 749 0352 1346     		mov	r3, r2	@ tmp115, tmp114
 750 0354 8DF80130 		strb	r3, [sp, #1]	@ tmp115, BitVal
 396:../../STM32F10x_StdPeriph_Lib_V3.5.0/Libraries/STM32F10x_StdPeriph_Driver/src/stm32f10x_gpio.c ****   /* Check the parameters */
 397:../../STM32F10x_StdPeriph_Lib_V3.5.0/Libraries/STM32F10x_StdPeriph_Driver/src/stm32f10x_gpio.c ****   assert_param(IS_GPIO_ALL_PERIPH(GPIOx));
 398:../../STM32F10x_StdPeriph_Lib_V3.5.0/Libraries/STM32F10x_StdPeriph_Driver/src/stm32f10x_gpio.c ****   assert_param(IS_GET_GPIO_PIN(GPIO_Pin));
 399:../../STM32F10x_StdPeriph_Lib_V3.5.0/Libraries/STM32F10x_StdPeriph_Driver/src/stm32f10x_gpio.c ****   assert_param(IS_GPIO_BIT_ACTION(BitVal)); 
 400:../../STM32F10x_StdPeriph_Lib_V3.5.0/Libraries/STM32F10x_StdPeriph_Driver/src/stm32f10x_gpio.c ****   
 401:../../STM32F10x_StdPeriph_Lib_V3.5.0/Libraries/STM32F10x_StdPeriph_Driver/src/stm32f10x_gpio.c ****   if (BitVal != Bit_RESET)
 751              		.loc 1 401 0
 752 0358 9DF80130 		ldrb	r3, [sp, #1]	@ zero_extendqisi2	@ tmp116, BitVal
 753 035c 002B     		cmp	r3, #0	@ tmp116,
 754 035e 04D0     		beq	.L40	@,
 402:../../STM32F10x_StdPeriph_Lib_V3.5.0/Libraries/STM32F10x_StdPeriph_Driver/src/stm32f10x_gpio.c ****   {
 403:../../STM32F10x_StdPeriph_Lib_V3.5.0/Libraries/STM32F10x_StdPeriph_Driver/src/stm32f10x_gpio.c ****     GPIOx->BSRR = GPIO_Pin;
 755              		.loc 1 403 0
 756 0360 BDF80220 		ldrh	r2, [sp, #2]	@ D.6743, GPIO_Pin
 757 0364 019B     		ldr	r3, [sp, #4]	@ tmp117, GPIOx
 758 0366 1A61     		str	r2, [r3, #16]	@ D.6743, GPIOx_4(D)->BSRR
 759 0368 03E0     		b	.L39	@
 760              	.L40:
 404:../../STM32F10x_StdPeriph_Lib_V3.5.0/Libraries/STM32F10x_StdPeriph_Driver/src/stm32f10x_gpio.c ****   }
 405:../../STM32F10x_StdPeriph_Lib_V3.5.0/Libraries/STM32F10x_StdPeriph_Driver/src/stm32f10x_gpio.c ****   else
 406:../../STM32F10x_StdPeriph_Lib_V3.5.0/Libraries/STM32F10x_StdPeriph_Driver/src/stm32f10x_gpio.c ****   {
 407:../../STM32F10x_StdPeriph_Lib_V3.5.0/Libraries/STM32F10x_StdPeriph_Driver/src/stm32f10x_gpio.c ****     GPIOx->BRR = GPIO_Pin;
 761              		.loc 1 407 0
 762 036a BDF80220 		ldrh	r2, [sp, #2]	@ D.6743, GPIO_Pin
 763 036e 019B     		ldr	r3, [sp, #4]	@ tmp118, GPIOx
 764 0370 5A61     		str	r2, [r3, #20]	@ D.6743, GPIOx_4(D)->BRR
 765              	.L39:
 408:../../STM32F10x_StdPeriph_Lib_V3.5.0/Libraries/STM32F10x_StdPeriph_Driver/src/stm32f10x_gpio.c ****   }
 409:../../STM32F10x_StdPeriph_Lib_V3.5.0/Libraries/STM32F10x_StdPeriph_Driver/src/stm32f10x_gpio.c **** }
 766              		.loc 1 409 0
 767 0372 02B0     		add	sp, sp, #8	@,,
 768              	.LCFI21:
 769              		.cfi_def_cfa_offset 0
 770              		@ sp needed	@
 771 0374 7047     		bx	lr	@
 772              		.cfi_endproc
 773              	.LFE39:
 774              		.size	GPIO_WriteBit, .-GPIO_WriteBit
 775 0376 00BF     		.align	2
 776              		.global	GPIO_Write
 777              		.thumb
 778              		.thumb_func
 779              		.type	GPIO_Write, %function
 780              	GPIO_Write:
 781              	.LFB40:
 410:../../STM32F10x_StdPeriph_Lib_V3.5.0/Libraries/STM32F10x_StdPeriph_Driver/src/stm32f10x_gpio.c **** 
 411:../../STM32F10x_StdPeriph_Lib_V3.5.0/Libraries/STM32F10x_StdPeriph_Driver/src/stm32f10x_gpio.c **** /**
 412:../../STM32F10x_StdPeriph_Lib_V3.5.0/Libraries/STM32F10x_StdPeriph_Driver/src/stm32f10x_gpio.c ****   * @brief  Writes data to the specified GPIO data port.
ARM GAS  /tmp/ccvxPp7R.s 			page 22


 413:../../STM32F10x_StdPeriph_Lib_V3.5.0/Libraries/STM32F10x_StdPeriph_Driver/src/stm32f10x_gpio.c ****   * @param  GPIOx: where x can be (A..G) to select the GPIO peripheral.
 414:../../STM32F10x_StdPeriph_Lib_V3.5.0/Libraries/STM32F10x_StdPeriph_Driver/src/stm32f10x_gpio.c ****   * @param  PortVal: specifies the value to be written to the port output data register.
 415:../../STM32F10x_StdPeriph_Lib_V3.5.0/Libraries/STM32F10x_StdPeriph_Driver/src/stm32f10x_gpio.c ****   * @retval None
 416:../../STM32F10x_StdPeriph_Lib_V3.5.0/Libraries/STM32F10x_StdPeriph_Driver/src/stm32f10x_gpio.c ****   */
 417:../../STM32F10x_StdPeriph_Lib_V3.5.0/Libraries/STM32F10x_StdPeriph_Driver/src/stm32f10x_gpio.c **** void GPIO_Write(GPIO_TypeDef* GPIOx, uint16_t PortVal)
 418:../../STM32F10x_StdPeriph_Lib_V3.5.0/Libraries/STM32F10x_StdPeriph_Driver/src/stm32f10x_gpio.c **** {
 782              		.loc 1 418 0
 783              		.cfi_startproc
 784              		@ args = 0, pretend = 0, frame = 8
 785              		@ frame_needed = 0, uses_anonymous_args = 0
 786              		@ link register save eliminated.
 787 0378 82B0     		sub	sp, sp, #8	@,,
 788              	.LCFI22:
 789              		.cfi_def_cfa_offset 8
 790 037a 0190     		str	r0, [sp, #4]	@ GPIOx, GPIOx
 791 037c 0B46     		mov	r3, r1	@ tmp111, PortVal
 792 037e ADF80230 		strh	r3, [sp, #2]	@ movhi	@ tmp112, PortVal
 419:../../STM32F10x_StdPeriph_Lib_V3.5.0/Libraries/STM32F10x_StdPeriph_Driver/src/stm32f10x_gpio.c ****   /* Check the parameters */
 420:../../STM32F10x_StdPeriph_Lib_V3.5.0/Libraries/STM32F10x_StdPeriph_Driver/src/stm32f10x_gpio.c ****   assert_param(IS_GPIO_ALL_PERIPH(GPIOx));
 421:../../STM32F10x_StdPeriph_Lib_V3.5.0/Libraries/STM32F10x_StdPeriph_Driver/src/stm32f10x_gpio.c ****   
 422:../../STM32F10x_StdPeriph_Lib_V3.5.0/Libraries/STM32F10x_StdPeriph_Driver/src/stm32f10x_gpio.c ****   GPIOx->ODR = PortVal;
 793              		.loc 1 422 0
 794 0382 BDF80220 		ldrh	r2, [sp, #2]	@ D.6744, PortVal
 795 0386 019B     		ldr	r3, [sp, #4]	@ tmp113, GPIOx
 796 0388 DA60     		str	r2, [r3, #12]	@ D.6744, GPIOx_3(D)->ODR
 423:../../STM32F10x_StdPeriph_Lib_V3.5.0/Libraries/STM32F10x_StdPeriph_Driver/src/stm32f10x_gpio.c **** }
 797              		.loc 1 423 0
 798 038a 02B0     		add	sp, sp, #8	@,,
 799              	.LCFI23:
 800              		.cfi_def_cfa_offset 0
 801              		@ sp needed	@
 802 038c 7047     		bx	lr	@
 803              		.cfi_endproc
 804              	.LFE40:
 805              		.size	GPIO_Write, .-GPIO_Write
 806 038e 00BF     		.align	2
 807              		.global	GPIO_PinLockConfig
 808              		.thumb
 809              		.thumb_func
 810              		.type	GPIO_PinLockConfig, %function
 811              	GPIO_PinLockConfig:
 812              	.LFB41:
 424:../../STM32F10x_StdPeriph_Lib_V3.5.0/Libraries/STM32F10x_StdPeriph_Driver/src/stm32f10x_gpio.c **** 
 425:../../STM32F10x_StdPeriph_Lib_V3.5.0/Libraries/STM32F10x_StdPeriph_Driver/src/stm32f10x_gpio.c **** /**
 426:../../STM32F10x_StdPeriph_Lib_V3.5.0/Libraries/STM32F10x_StdPeriph_Driver/src/stm32f10x_gpio.c ****   * @brief  Locks GPIO Pins configuration registers.
 427:../../STM32F10x_StdPeriph_Lib_V3.5.0/Libraries/STM32F10x_StdPeriph_Driver/src/stm32f10x_gpio.c ****   * @param  GPIOx: where x can be (A..G) to select the GPIO peripheral.
 428:../../STM32F10x_StdPeriph_Lib_V3.5.0/Libraries/STM32F10x_StdPeriph_Driver/src/stm32f10x_gpio.c ****   * @param  GPIO_Pin: specifies the port bit to be written.
 429:../../STM32F10x_StdPeriph_Lib_V3.5.0/Libraries/STM32F10x_StdPeriph_Driver/src/stm32f10x_gpio.c ****   *   This parameter can be any combination of GPIO_Pin_x where x can be (0..15).
 430:../../STM32F10x_StdPeriph_Lib_V3.5.0/Libraries/STM32F10x_StdPeriph_Driver/src/stm32f10x_gpio.c ****   * @retval None
 431:../../STM32F10x_StdPeriph_Lib_V3.5.0/Libraries/STM32F10x_StdPeriph_Driver/src/stm32f10x_gpio.c ****   */
 432:../../STM32F10x_StdPeriph_Lib_V3.5.0/Libraries/STM32F10x_StdPeriph_Driver/src/stm32f10x_gpio.c **** void GPIO_PinLockConfig(GPIO_TypeDef* GPIOx, uint16_t GPIO_Pin)
 433:../../STM32F10x_StdPeriph_Lib_V3.5.0/Libraries/STM32F10x_StdPeriph_Driver/src/stm32f10x_gpio.c **** {
 813              		.loc 1 433 0
 814              		.cfi_startproc
 815              		@ args = 0, pretend = 0, frame = 16
 816              		@ frame_needed = 0, uses_anonymous_args = 0
 817              		@ link register save eliminated.
ARM GAS  /tmp/ccvxPp7R.s 			page 23


 818 0390 84B0     		sub	sp, sp, #16	@,,
 819              	.LCFI24:
 820              		.cfi_def_cfa_offset 16
 821 0392 0190     		str	r0, [sp, #4]	@ GPIOx, GPIOx
 822 0394 0B46     		mov	r3, r1	@ tmp112, GPIO_Pin
 823 0396 ADF80230 		strh	r3, [sp, #2]	@ movhi	@ tmp113, GPIO_Pin
 434:../../STM32F10x_StdPeriph_Lib_V3.5.0/Libraries/STM32F10x_StdPeriph_Driver/src/stm32f10x_gpio.c ****   uint32_t tmp = 0x00010000;
 824              		.loc 1 434 0
 825 039a 4FF48033 		mov	r3, #65536	@ tmp114,
 826 039e 0393     		str	r3, [sp, #12]	@ tmp114, tmp
 435:../../STM32F10x_StdPeriph_Lib_V3.5.0/Libraries/STM32F10x_StdPeriph_Driver/src/stm32f10x_gpio.c ****   
 436:../../STM32F10x_StdPeriph_Lib_V3.5.0/Libraries/STM32F10x_StdPeriph_Driver/src/stm32f10x_gpio.c ****   /* Check the parameters */
 437:../../STM32F10x_StdPeriph_Lib_V3.5.0/Libraries/STM32F10x_StdPeriph_Driver/src/stm32f10x_gpio.c ****   assert_param(IS_GPIO_ALL_PERIPH(GPIOx));
 438:../../STM32F10x_StdPeriph_Lib_V3.5.0/Libraries/STM32F10x_StdPeriph_Driver/src/stm32f10x_gpio.c ****   assert_param(IS_GPIO_PIN(GPIO_Pin));
 439:../../STM32F10x_StdPeriph_Lib_V3.5.0/Libraries/STM32F10x_StdPeriph_Driver/src/stm32f10x_gpio.c ****   
 440:../../STM32F10x_StdPeriph_Lib_V3.5.0/Libraries/STM32F10x_StdPeriph_Driver/src/stm32f10x_gpio.c ****   tmp |= GPIO_Pin;
 827              		.loc 1 440 0
 828 03a0 BDF80230 		ldrh	r3, [sp, #2]	@ D.6745, GPIO_Pin
 829 03a4 039A     		ldr	r2, [sp, #12]	@ tmp116, tmp
 830 03a6 1343     		orrs	r3, r3, r2	@, tmp115, D.6745, tmp116
 831 03a8 0393     		str	r3, [sp, #12]	@ tmp115, tmp
 441:../../STM32F10x_StdPeriph_Lib_V3.5.0/Libraries/STM32F10x_StdPeriph_Driver/src/stm32f10x_gpio.c ****   /* Set LCKK bit */
 442:../../STM32F10x_StdPeriph_Lib_V3.5.0/Libraries/STM32F10x_StdPeriph_Driver/src/stm32f10x_gpio.c ****   GPIOx->LCKR = tmp;
 832              		.loc 1 442 0
 833 03aa 019B     		ldr	r3, [sp, #4]	@ tmp117, GPIOx
 834 03ac 039A     		ldr	r2, [sp, #12]	@ tmp118, tmp
 835 03ae 9A61     		str	r2, [r3, #24]	@ tmp118, GPIOx_5(D)->LCKR
 443:../../STM32F10x_StdPeriph_Lib_V3.5.0/Libraries/STM32F10x_StdPeriph_Driver/src/stm32f10x_gpio.c ****   /* Reset LCKK bit */
 444:../../STM32F10x_StdPeriph_Lib_V3.5.0/Libraries/STM32F10x_StdPeriph_Driver/src/stm32f10x_gpio.c ****   GPIOx->LCKR =  GPIO_Pin;
 836              		.loc 1 444 0
 837 03b0 BDF80220 		ldrh	r2, [sp, #2]	@ D.6745, GPIO_Pin
 838 03b4 019B     		ldr	r3, [sp, #4]	@ tmp119, GPIOx
 839 03b6 9A61     		str	r2, [r3, #24]	@ D.6745, GPIOx_5(D)->LCKR
 445:../../STM32F10x_StdPeriph_Lib_V3.5.0/Libraries/STM32F10x_StdPeriph_Driver/src/stm32f10x_gpio.c ****   /* Set LCKK bit */
 446:../../STM32F10x_StdPeriph_Lib_V3.5.0/Libraries/STM32F10x_StdPeriph_Driver/src/stm32f10x_gpio.c ****   GPIOx->LCKR = tmp;
 840              		.loc 1 446 0
 841 03b8 019B     		ldr	r3, [sp, #4]	@ tmp120, GPIOx
 842 03ba 039A     		ldr	r2, [sp, #12]	@ tmp121, tmp
 843 03bc 9A61     		str	r2, [r3, #24]	@ tmp121, GPIOx_5(D)->LCKR
 447:../../STM32F10x_StdPeriph_Lib_V3.5.0/Libraries/STM32F10x_StdPeriph_Driver/src/stm32f10x_gpio.c ****   /* Read LCKK bit*/
 448:../../STM32F10x_StdPeriph_Lib_V3.5.0/Libraries/STM32F10x_StdPeriph_Driver/src/stm32f10x_gpio.c ****   tmp = GPIOx->LCKR;
 844              		.loc 1 448 0
 845 03be 019B     		ldr	r3, [sp, #4]	@ tmp122, GPIOx
 846 03c0 9B69     		ldr	r3, [r3, #24]	@ tmp123, GPIOx_5(D)->LCKR
 847 03c2 0393     		str	r3, [sp, #12]	@ tmp123, tmp
 449:../../STM32F10x_StdPeriph_Lib_V3.5.0/Libraries/STM32F10x_StdPeriph_Driver/src/stm32f10x_gpio.c ****   /* Read LCKK bit*/
 450:../../STM32F10x_StdPeriph_Lib_V3.5.0/Libraries/STM32F10x_StdPeriph_Driver/src/stm32f10x_gpio.c ****   tmp = GPIOx->LCKR;
 848              		.loc 1 450 0
 849 03c4 019B     		ldr	r3, [sp, #4]	@ tmp124, GPIOx
 850 03c6 9B69     		ldr	r3, [r3, #24]	@ tmp125, GPIOx_5(D)->LCKR
 851 03c8 0393     		str	r3, [sp, #12]	@ tmp125, tmp
 451:../../STM32F10x_StdPeriph_Lib_V3.5.0/Libraries/STM32F10x_StdPeriph_Driver/src/stm32f10x_gpio.c **** }
 852              		.loc 1 451 0
 853 03ca 04B0     		add	sp, sp, #16	@,,
 854              	.LCFI25:
 855              		.cfi_def_cfa_offset 0
 856              		@ sp needed	@
ARM GAS  /tmp/ccvxPp7R.s 			page 24


 857 03cc 7047     		bx	lr	@
 858              		.cfi_endproc
 859              	.LFE41:
 860              		.size	GPIO_PinLockConfig, .-GPIO_PinLockConfig
 861 03ce 00BF     		.align	2
 862              		.global	GPIO_EventOutputConfig
 863              		.thumb
 864              		.thumb_func
 865              		.type	GPIO_EventOutputConfig, %function
 866              	GPIO_EventOutputConfig:
 867              	.LFB42:
 452:../../STM32F10x_StdPeriph_Lib_V3.5.0/Libraries/STM32F10x_StdPeriph_Driver/src/stm32f10x_gpio.c **** 
 453:../../STM32F10x_StdPeriph_Lib_V3.5.0/Libraries/STM32F10x_StdPeriph_Driver/src/stm32f10x_gpio.c **** /**
 454:../../STM32F10x_StdPeriph_Lib_V3.5.0/Libraries/STM32F10x_StdPeriph_Driver/src/stm32f10x_gpio.c ****   * @brief  Selects the GPIO pin used as Event output.
 455:../../STM32F10x_StdPeriph_Lib_V3.5.0/Libraries/STM32F10x_StdPeriph_Driver/src/stm32f10x_gpio.c ****   * @param  GPIO_PortSource: selects the GPIO port to be used as source
 456:../../STM32F10x_StdPeriph_Lib_V3.5.0/Libraries/STM32F10x_StdPeriph_Driver/src/stm32f10x_gpio.c ****   *   for Event output.
 457:../../STM32F10x_StdPeriph_Lib_V3.5.0/Libraries/STM32F10x_StdPeriph_Driver/src/stm32f10x_gpio.c ****   *   This parameter can be GPIO_PortSourceGPIOx where x can be (A..E).
 458:../../STM32F10x_StdPeriph_Lib_V3.5.0/Libraries/STM32F10x_StdPeriph_Driver/src/stm32f10x_gpio.c ****   * @param  GPIO_PinSource: specifies the pin for the Event output.
 459:../../STM32F10x_StdPeriph_Lib_V3.5.0/Libraries/STM32F10x_StdPeriph_Driver/src/stm32f10x_gpio.c ****   *   This parameter can be GPIO_PinSourcex where x can be (0..15).
 460:../../STM32F10x_StdPeriph_Lib_V3.5.0/Libraries/STM32F10x_StdPeriph_Driver/src/stm32f10x_gpio.c ****   * @retval None
 461:../../STM32F10x_StdPeriph_Lib_V3.5.0/Libraries/STM32F10x_StdPeriph_Driver/src/stm32f10x_gpio.c ****   */
 462:../../STM32F10x_StdPeriph_Lib_V3.5.0/Libraries/STM32F10x_StdPeriph_Driver/src/stm32f10x_gpio.c **** void GPIO_EventOutputConfig(uint8_t GPIO_PortSource, uint8_t GPIO_PinSource)
 463:../../STM32F10x_StdPeriph_Lib_V3.5.0/Libraries/STM32F10x_StdPeriph_Driver/src/stm32f10x_gpio.c **** {
 868              		.loc 1 463 0
 869              		.cfi_startproc
 870              		@ args = 0, pretend = 0, frame = 16
 871              		@ frame_needed = 0, uses_anonymous_args = 0
 872              		@ link register save eliminated.
 873 03d0 84B0     		sub	sp, sp, #16	@,,
 874              	.LCFI26:
 875              		.cfi_def_cfa_offset 16
 876 03d2 0346     		mov	r3, r0	@ tmp115, GPIO_PortSource
 877 03d4 0A46     		mov	r2, r1	@ tmp117, GPIO_PinSource
 878 03d6 8DF80730 		strb	r3, [sp, #7]	@ tmp116, GPIO_PortSource
 879 03da 1346     		mov	r3, r2	@ tmp118, tmp117
 880 03dc 8DF80630 		strb	r3, [sp, #6]	@ tmp118, GPIO_PinSource
 464:../../STM32F10x_StdPeriph_Lib_V3.5.0/Libraries/STM32F10x_StdPeriph_Driver/src/stm32f10x_gpio.c ****   uint32_t tmpreg = 0x00;
 881              		.loc 1 464 0
 882 03e0 0023     		movs	r3, #0	@ tmp119,
 883 03e2 0393     		str	r3, [sp, #12]	@ tmp119, tmpreg
 465:../../STM32F10x_StdPeriph_Lib_V3.5.0/Libraries/STM32F10x_StdPeriph_Driver/src/stm32f10x_gpio.c ****   /* Check the parameters */
 466:../../STM32F10x_StdPeriph_Lib_V3.5.0/Libraries/STM32F10x_StdPeriph_Driver/src/stm32f10x_gpio.c ****   assert_param(IS_GPIO_EVENTOUT_PORT_SOURCE(GPIO_PortSource));
 467:../../STM32F10x_StdPeriph_Lib_V3.5.0/Libraries/STM32F10x_StdPeriph_Driver/src/stm32f10x_gpio.c ****   assert_param(IS_GPIO_PIN_SOURCE(GPIO_PinSource));
 468:../../STM32F10x_StdPeriph_Lib_V3.5.0/Libraries/STM32F10x_StdPeriph_Driver/src/stm32f10x_gpio.c ****     
 469:../../STM32F10x_StdPeriph_Lib_V3.5.0/Libraries/STM32F10x_StdPeriph_Driver/src/stm32f10x_gpio.c ****   tmpreg = AFIO->EVCR;
 884              		.loc 1 469 0
 885 03e4 0B4B     		ldr	r3, .L45	@ D.6746,
 886 03e6 1B68     		ldr	r3, [r3]	@ tmp120, _2->EVCR
 887 03e8 0393     		str	r3, [sp, #12]	@ tmp120, tmpreg
 470:../../STM32F10x_StdPeriph_Lib_V3.5.0/Libraries/STM32F10x_StdPeriph_Driver/src/stm32f10x_gpio.c ****   /* Clear the PORT[6:4] and PIN[3:0] bits */
 471:../../STM32F10x_StdPeriph_Lib_V3.5.0/Libraries/STM32F10x_StdPeriph_Driver/src/stm32f10x_gpio.c ****   tmpreg &= EVCR_PORTPINCONFIG_MASK;
 888              		.loc 1 471 0
 889 03ea 039A     		ldr	r2, [sp, #12]	@ tmp122, tmpreg
 890 03ec 4FF68073 		movw	r3, #65408	@ tmp121,
 891 03f0 1340     		ands	r3, r3, r2	@, tmp121, tmp121, tmp122
 892 03f2 0393     		str	r3, [sp, #12]	@ tmp121, tmpreg
 472:../../STM32F10x_StdPeriph_Lib_V3.5.0/Libraries/STM32F10x_StdPeriph_Driver/src/stm32f10x_gpio.c ****   tmpreg |= (uint32_t)GPIO_PortSource << 0x04;
ARM GAS  /tmp/ccvxPp7R.s 			page 25


 893              		.loc 1 472 0
 894 03f4 9DF80730 		ldrb	r3, [sp, #7]	@ zero_extendqisi2	@ D.6747, GPIO_PortSource
 895 03f8 1B01     		lsls	r3, r3, #4	@ D.6747, D.6747,
 896 03fa 039A     		ldr	r2, [sp, #12]	@ tmp124, tmpreg
 897 03fc 1343     		orrs	r3, r3, r2	@, tmp123, D.6747, tmp124
 898 03fe 0393     		str	r3, [sp, #12]	@ tmp123, tmpreg
 473:../../STM32F10x_StdPeriph_Lib_V3.5.0/Libraries/STM32F10x_StdPeriph_Driver/src/stm32f10x_gpio.c ****   tmpreg |= GPIO_PinSource;
 899              		.loc 1 473 0
 900 0400 9DF80630 		ldrb	r3, [sp, #6]	@ zero_extendqisi2	@ D.6747, GPIO_PinSource
 901 0404 039A     		ldr	r2, [sp, #12]	@ tmp126, tmpreg
 902 0406 1343     		orrs	r3, r3, r2	@, tmp125, D.6747, tmp126
 903 0408 0393     		str	r3, [sp, #12]	@ tmp125, tmpreg
 474:../../STM32F10x_StdPeriph_Lib_V3.5.0/Libraries/STM32F10x_StdPeriph_Driver/src/stm32f10x_gpio.c ****   AFIO->EVCR = tmpreg;
 904              		.loc 1 474 0
 905 040a 024A     		ldr	r2, .L45	@ D.6746,
 906 040c 039B     		ldr	r3, [sp, #12]	@ tmp127, tmpreg
 907 040e 1360     		str	r3, [r2]	@ tmp127, _12->EVCR
 475:../../STM32F10x_StdPeriph_Lib_V3.5.0/Libraries/STM32F10x_StdPeriph_Driver/src/stm32f10x_gpio.c **** }
 908              		.loc 1 475 0
 909 0410 04B0     		add	sp, sp, #16	@,,
 910              	.LCFI27:
 911              		.cfi_def_cfa_offset 0
 912              		@ sp needed	@
 913 0412 7047     		bx	lr	@
 914              	.L46:
 915              		.align	2
 916              	.L45:
 917 0414 00000140 		.word	1073807360
 918              		.cfi_endproc
 919              	.LFE42:
 920              		.size	GPIO_EventOutputConfig, .-GPIO_EventOutputConfig
 921              		.align	2
 922              		.global	GPIO_EventOutputCmd
 923              		.thumb
 924              		.thumb_func
 925              		.type	GPIO_EventOutputCmd, %function
 926              	GPIO_EventOutputCmd:
 927              	.LFB43:
 476:../../STM32F10x_StdPeriph_Lib_V3.5.0/Libraries/STM32F10x_StdPeriph_Driver/src/stm32f10x_gpio.c **** 
 477:../../STM32F10x_StdPeriph_Lib_V3.5.0/Libraries/STM32F10x_StdPeriph_Driver/src/stm32f10x_gpio.c **** /**
 478:../../STM32F10x_StdPeriph_Lib_V3.5.0/Libraries/STM32F10x_StdPeriph_Driver/src/stm32f10x_gpio.c ****   * @brief  Enables or disables the Event Output.
 479:../../STM32F10x_StdPeriph_Lib_V3.5.0/Libraries/STM32F10x_StdPeriph_Driver/src/stm32f10x_gpio.c ****   * @param  NewState: new state of the Event output.
 480:../../STM32F10x_StdPeriph_Lib_V3.5.0/Libraries/STM32F10x_StdPeriph_Driver/src/stm32f10x_gpio.c ****   *   This parameter can be: ENABLE or DISABLE.
 481:../../STM32F10x_StdPeriph_Lib_V3.5.0/Libraries/STM32F10x_StdPeriph_Driver/src/stm32f10x_gpio.c ****   * @retval None
 482:../../STM32F10x_StdPeriph_Lib_V3.5.0/Libraries/STM32F10x_StdPeriph_Driver/src/stm32f10x_gpio.c ****   */
 483:../../STM32F10x_StdPeriph_Lib_V3.5.0/Libraries/STM32F10x_StdPeriph_Driver/src/stm32f10x_gpio.c **** void GPIO_EventOutputCmd(FunctionalState NewState)
 484:../../STM32F10x_StdPeriph_Lib_V3.5.0/Libraries/STM32F10x_StdPeriph_Driver/src/stm32f10x_gpio.c **** {
 928              		.loc 1 484 0
 929              		.cfi_startproc
 930              		@ args = 0, pretend = 0, frame = 8
 931              		@ frame_needed = 0, uses_anonymous_args = 0
 932              		@ link register save eliminated.
 933 0418 82B0     		sub	sp, sp, #8	@,,
 934              	.LCFI28:
 935              		.cfi_def_cfa_offset 8
 936 041a 0346     		mov	r3, r0	@ tmp112, NewState
 937 041c 8DF80730 		strb	r3, [sp, #7]	@ tmp113, NewState
ARM GAS  /tmp/ccvxPp7R.s 			page 26


 485:../../STM32F10x_StdPeriph_Lib_V3.5.0/Libraries/STM32F10x_StdPeriph_Driver/src/stm32f10x_gpio.c ****   /* Check the parameters */
 486:../../STM32F10x_StdPeriph_Lib_V3.5.0/Libraries/STM32F10x_StdPeriph_Driver/src/stm32f10x_gpio.c ****   assert_param(IS_FUNCTIONAL_STATE(NewState));
 487:../../STM32F10x_StdPeriph_Lib_V3.5.0/Libraries/STM32F10x_StdPeriph_Driver/src/stm32f10x_gpio.c ****   
 488:../../STM32F10x_StdPeriph_Lib_V3.5.0/Libraries/STM32F10x_StdPeriph_Driver/src/stm32f10x_gpio.c ****   *(__IO uint32_t *) EVCR_EVOE_BB = (uint32_t)NewState;
 938              		.loc 1 488 0
 939 0420 024A     		ldr	r2, .L48	@ D.6748,
 940 0422 9DF80730 		ldrb	r3, [sp, #7]	@ zero_extendqisi2	@ D.6749, NewState
 941 0426 1360     		str	r3, [r2]	@ D.6749, *_1
 489:../../STM32F10x_StdPeriph_Lib_V3.5.0/Libraries/STM32F10x_StdPeriph_Driver/src/stm32f10x_gpio.c **** }
 942              		.loc 1 489 0
 943 0428 02B0     		add	sp, sp, #8	@,,
 944              	.LCFI29:
 945              		.cfi_def_cfa_offset 0
 946              		@ sp needed	@
 947 042a 7047     		bx	lr	@
 948              	.L49:
 949              		.align	2
 950              	.L48:
 951 042c 1C002042 		.word	1109393436
 952              		.cfi_endproc
 953              	.LFE43:
 954              		.size	GPIO_EventOutputCmd, .-GPIO_EventOutputCmd
 955              		.align	2
 956              		.global	GPIO_PinRemapConfig
 957              		.thumb
 958              		.thumb_func
 959              		.type	GPIO_PinRemapConfig, %function
 960              	GPIO_PinRemapConfig:
 961              	.LFB44:
 490:../../STM32F10x_StdPeriph_Lib_V3.5.0/Libraries/STM32F10x_StdPeriph_Driver/src/stm32f10x_gpio.c **** 
 491:../../STM32F10x_StdPeriph_Lib_V3.5.0/Libraries/STM32F10x_StdPeriph_Driver/src/stm32f10x_gpio.c **** /**
 492:../../STM32F10x_StdPeriph_Lib_V3.5.0/Libraries/STM32F10x_StdPeriph_Driver/src/stm32f10x_gpio.c ****   * @brief  Changes the mapping of the specified pin.
 493:../../STM32F10x_StdPeriph_Lib_V3.5.0/Libraries/STM32F10x_StdPeriph_Driver/src/stm32f10x_gpio.c ****   * @param  GPIO_Remap: selects the pin to remap.
 494:../../STM32F10x_StdPeriph_Lib_V3.5.0/Libraries/STM32F10x_StdPeriph_Driver/src/stm32f10x_gpio.c ****   *   This parameter can be one of the following values:
 495:../../STM32F10x_StdPeriph_Lib_V3.5.0/Libraries/STM32F10x_StdPeriph_Driver/src/stm32f10x_gpio.c ****   *     @arg GPIO_Remap_SPI1             : SPI1 Alternate Function mapping
 496:../../STM32F10x_StdPeriph_Lib_V3.5.0/Libraries/STM32F10x_StdPeriph_Driver/src/stm32f10x_gpio.c ****   *     @arg GPIO_Remap_I2C1             : I2C1 Alternate Function mapping
 497:../../STM32F10x_StdPeriph_Lib_V3.5.0/Libraries/STM32F10x_StdPeriph_Driver/src/stm32f10x_gpio.c ****   *     @arg GPIO_Remap_USART1           : USART1 Alternate Function mapping
 498:../../STM32F10x_StdPeriph_Lib_V3.5.0/Libraries/STM32F10x_StdPeriph_Driver/src/stm32f10x_gpio.c ****   *     @arg GPIO_Remap_USART2           : USART2 Alternate Function mapping
 499:../../STM32F10x_StdPeriph_Lib_V3.5.0/Libraries/STM32F10x_StdPeriph_Driver/src/stm32f10x_gpio.c ****   *     @arg GPIO_PartialRemap_USART3    : USART3 Partial Alternate Function mapping
 500:../../STM32F10x_StdPeriph_Lib_V3.5.0/Libraries/STM32F10x_StdPeriph_Driver/src/stm32f10x_gpio.c ****   *     @arg GPIO_FullRemap_USART3       : USART3 Full Alternate Function mapping
 501:../../STM32F10x_StdPeriph_Lib_V3.5.0/Libraries/STM32F10x_StdPeriph_Driver/src/stm32f10x_gpio.c ****   *     @arg GPIO_PartialRemap_TIM1      : TIM1 Partial Alternate Function mapping
 502:../../STM32F10x_StdPeriph_Lib_V3.5.0/Libraries/STM32F10x_StdPeriph_Driver/src/stm32f10x_gpio.c ****   *     @arg GPIO_FullRemap_TIM1         : TIM1 Full Alternate Function mapping
 503:../../STM32F10x_StdPeriph_Lib_V3.5.0/Libraries/STM32F10x_StdPeriph_Driver/src/stm32f10x_gpio.c ****   *     @arg GPIO_PartialRemap1_TIM2     : TIM2 Partial1 Alternate Function mapping
 504:../../STM32F10x_StdPeriph_Lib_V3.5.0/Libraries/STM32F10x_StdPeriph_Driver/src/stm32f10x_gpio.c ****   *     @arg GPIO_PartialRemap2_TIM2     : TIM2 Partial2 Alternate Function mapping
 505:../../STM32F10x_StdPeriph_Lib_V3.5.0/Libraries/STM32F10x_StdPeriph_Driver/src/stm32f10x_gpio.c ****   *     @arg GPIO_FullRemap_TIM2         : TIM2 Full Alternate Function mapping
 506:../../STM32F10x_StdPeriph_Lib_V3.5.0/Libraries/STM32F10x_StdPeriph_Driver/src/stm32f10x_gpio.c ****   *     @arg GPIO_PartialRemap_TIM3      : TIM3 Partial Alternate Function mapping
 507:../../STM32F10x_StdPeriph_Lib_V3.5.0/Libraries/STM32F10x_StdPeriph_Driver/src/stm32f10x_gpio.c ****   *     @arg GPIO_FullRemap_TIM3         : TIM3 Full Alternate Function mapping
 508:../../STM32F10x_StdPeriph_Lib_V3.5.0/Libraries/STM32F10x_StdPeriph_Driver/src/stm32f10x_gpio.c ****   *     @arg GPIO_Remap_TIM4             : TIM4 Alternate Function mapping
 509:../../STM32F10x_StdPeriph_Lib_V3.5.0/Libraries/STM32F10x_StdPeriph_Driver/src/stm32f10x_gpio.c ****   *     @arg GPIO_Remap1_CAN1            : CAN1 Alternate Function mapping
 510:../../STM32F10x_StdPeriph_Lib_V3.5.0/Libraries/STM32F10x_StdPeriph_Driver/src/stm32f10x_gpio.c ****   *     @arg GPIO_Remap2_CAN1            : CAN1 Alternate Function mapping
 511:../../STM32F10x_StdPeriph_Lib_V3.5.0/Libraries/STM32F10x_StdPeriph_Driver/src/stm32f10x_gpio.c ****   *     @arg GPIO_Remap_PD01             : PD01 Alternate Function mapping
 512:../../STM32F10x_StdPeriph_Lib_V3.5.0/Libraries/STM32F10x_StdPeriph_Driver/src/stm32f10x_gpio.c ****   *     @arg GPIO_Remap_TIM5CH4_LSI      : LSI connected to TIM5 Channel4 input capture for calibra
 513:../../STM32F10x_StdPeriph_Lib_V3.5.0/Libraries/STM32F10x_StdPeriph_Driver/src/stm32f10x_gpio.c ****   *     @arg GPIO_Remap_ADC1_ETRGINJ     : ADC1 External Trigger Injected Conversion remapping
 514:../../STM32F10x_StdPeriph_Lib_V3.5.0/Libraries/STM32F10x_StdPeriph_Driver/src/stm32f10x_gpio.c ****   *     @arg GPIO_Remap_ADC1_ETRGREG     : ADC1 External Trigger Regular Conversion remapping
 515:../../STM32F10x_StdPeriph_Lib_V3.5.0/Libraries/STM32F10x_StdPeriph_Driver/src/stm32f10x_gpio.c ****   *     @arg GPIO_Remap_ADC2_ETRGINJ     : ADC2 External Trigger Injected Conversion remapping
 516:../../STM32F10x_StdPeriph_Lib_V3.5.0/Libraries/STM32F10x_StdPeriph_Driver/src/stm32f10x_gpio.c ****   *     @arg GPIO_Remap_ADC2_ETRGREG     : ADC2 External Trigger Regular Conversion remapping
 517:../../STM32F10x_StdPeriph_Lib_V3.5.0/Libraries/STM32F10x_StdPeriph_Driver/src/stm32f10x_gpio.c ****   *     @arg GPIO_Remap_ETH              : Ethernet remapping (only for Connectivity line devices)
ARM GAS  /tmp/ccvxPp7R.s 			page 27


 518:../../STM32F10x_StdPeriph_Lib_V3.5.0/Libraries/STM32F10x_StdPeriph_Driver/src/stm32f10x_gpio.c ****   *     @arg GPIO_Remap_CAN2             : CAN2 remapping (only for Connectivity line devices)
 519:../../STM32F10x_StdPeriph_Lib_V3.5.0/Libraries/STM32F10x_StdPeriph_Driver/src/stm32f10x_gpio.c ****   *     @arg GPIO_Remap_SWJ_NoJTRST      : Full SWJ Enabled (JTAG-DP + SW-DP) but without JTRST
 520:../../STM32F10x_StdPeriph_Lib_V3.5.0/Libraries/STM32F10x_StdPeriph_Driver/src/stm32f10x_gpio.c ****   *     @arg GPIO_Remap_SWJ_JTAGDisable  : JTAG-DP Disabled and SW-DP Enabled
 521:../../STM32F10x_StdPeriph_Lib_V3.5.0/Libraries/STM32F10x_StdPeriph_Driver/src/stm32f10x_gpio.c ****   *     @arg GPIO_Remap_SWJ_Disable      : Full SWJ Disabled (JTAG-DP + SW-DP)
 522:../../STM32F10x_StdPeriph_Lib_V3.5.0/Libraries/STM32F10x_StdPeriph_Driver/src/stm32f10x_gpio.c ****   *     @arg GPIO_Remap_SPI3             : SPI3/I2S3 Alternate Function mapping (only for Connectiv
 523:../../STM32F10x_StdPeriph_Lib_V3.5.0/Libraries/STM32F10x_StdPeriph_Driver/src/stm32f10x_gpio.c ****   *                                        When the SPI3/I2S3 is remapped using this function, the 
 524:../../STM32F10x_StdPeriph_Lib_V3.5.0/Libraries/STM32F10x_StdPeriph_Driver/src/stm32f10x_gpio.c ****   *                                        to Full SWJ Enabled (JTAG-DP + SW-DP) but without JTRST.
 525:../../STM32F10x_StdPeriph_Lib_V3.5.0/Libraries/STM32F10x_StdPeriph_Driver/src/stm32f10x_gpio.c ****   *     @arg GPIO_Remap_TIM2ITR1_PTP_SOF : Ethernet PTP output or USB OTG SOF (Start of Frame) conn
 526:../../STM32F10x_StdPeriph_Lib_V3.5.0/Libraries/STM32F10x_StdPeriph_Driver/src/stm32f10x_gpio.c ****   *                                        to TIM2 Internal Trigger 1 for calibration (only for Con
 527:../../STM32F10x_StdPeriph_Lib_V3.5.0/Libraries/STM32F10x_StdPeriph_Driver/src/stm32f10x_gpio.c ****   *                                        If the GPIO_Remap_TIM2ITR1_PTP_SOF is enabled the TIM2 I
 528:../../STM32F10x_StdPeriph_Lib_V3.5.0/Libraries/STM32F10x_StdPeriph_Driver/src/stm32f10x_gpio.c ****   *                                        Ethernet PTP output. When Reset TIM2 ITR1 is connected t
 529:../../STM32F10x_StdPeriph_Lib_V3.5.0/Libraries/STM32F10x_StdPeriph_Driver/src/stm32f10x_gpio.c ****   *     @arg GPIO_Remap_PTP_PPS          : Ethernet MAC PPS_PTS output on PB05 (only for Connectivi
 530:../../STM32F10x_StdPeriph_Lib_V3.5.0/Libraries/STM32F10x_StdPeriph_Driver/src/stm32f10x_gpio.c ****   *     @arg GPIO_Remap_TIM15            : TIM15 Alternate Function mapping (only for Value line de
 531:../../STM32F10x_StdPeriph_Lib_V3.5.0/Libraries/STM32F10x_StdPeriph_Driver/src/stm32f10x_gpio.c ****   *     @arg GPIO_Remap_TIM16            : TIM16 Alternate Function mapping (only for Value line de
 532:../../STM32F10x_StdPeriph_Lib_V3.5.0/Libraries/STM32F10x_StdPeriph_Driver/src/stm32f10x_gpio.c ****   *     @arg GPIO_Remap_TIM17            : TIM17 Alternate Function mapping (only for Value line de
 533:../../STM32F10x_StdPeriph_Lib_V3.5.0/Libraries/STM32F10x_StdPeriph_Driver/src/stm32f10x_gpio.c ****   *     @arg GPIO_Remap_CEC              : CEC Alternate Function mapping (only for Value line devi
 534:../../STM32F10x_StdPeriph_Lib_V3.5.0/Libraries/STM32F10x_StdPeriph_Driver/src/stm32f10x_gpio.c ****   *     @arg GPIO_Remap_TIM1_DMA         : TIM1 DMA requests mapping (only for Value line devices)
 535:../../STM32F10x_StdPeriph_Lib_V3.5.0/Libraries/STM32F10x_StdPeriph_Driver/src/stm32f10x_gpio.c ****   *     @arg GPIO_Remap_TIM9             : TIM9 Alternate Function mapping (only for XL-density dev
 536:../../STM32F10x_StdPeriph_Lib_V3.5.0/Libraries/STM32F10x_StdPeriph_Driver/src/stm32f10x_gpio.c ****   *     @arg GPIO_Remap_TIM10            : TIM10 Alternate Function mapping (only for XL-density de
 537:../../STM32F10x_StdPeriph_Lib_V3.5.0/Libraries/STM32F10x_StdPeriph_Driver/src/stm32f10x_gpio.c ****   *     @arg GPIO_Remap_TIM11            : TIM11 Alternate Function mapping (only for XL-density de
 538:../../STM32F10x_StdPeriph_Lib_V3.5.0/Libraries/STM32F10x_StdPeriph_Driver/src/stm32f10x_gpio.c ****   *     @arg GPIO_Remap_TIM13            : TIM13 Alternate Function mapping (only for High density 
 539:../../STM32F10x_StdPeriph_Lib_V3.5.0/Libraries/STM32F10x_StdPeriph_Driver/src/stm32f10x_gpio.c ****   *     @arg GPIO_Remap_TIM14            : TIM14 Alternate Function mapping (only for High density 
 540:../../STM32F10x_StdPeriph_Lib_V3.5.0/Libraries/STM32F10x_StdPeriph_Driver/src/stm32f10x_gpio.c ****   *     @arg GPIO_Remap_FSMC_NADV        : FSMC_NADV Alternate Function mapping (only for High dens
 541:../../STM32F10x_StdPeriph_Lib_V3.5.0/Libraries/STM32F10x_StdPeriph_Driver/src/stm32f10x_gpio.c ****   *     @arg GPIO_Remap_TIM67_DAC_DMA    : TIM6/TIM7 and DAC DMA requests remapping (only for High 
 542:../../STM32F10x_StdPeriph_Lib_V3.5.0/Libraries/STM32F10x_StdPeriph_Driver/src/stm32f10x_gpio.c ****   *     @arg GPIO_Remap_TIM12            : TIM12 Alternate Function mapping (only for High density 
 543:../../STM32F10x_StdPeriph_Lib_V3.5.0/Libraries/STM32F10x_StdPeriph_Driver/src/stm32f10x_gpio.c ****   *     @arg GPIO_Remap_MISC             : Miscellaneous Remap (DMA2 Channel5 Position and DAC Trig
 544:../../STM32F10x_StdPeriph_Lib_V3.5.0/Libraries/STM32F10x_StdPeriph_Driver/src/stm32f10x_gpio.c ****   *                                        only for High density Value line devices)     
 545:../../STM32F10x_StdPeriph_Lib_V3.5.0/Libraries/STM32F10x_StdPeriph_Driver/src/stm32f10x_gpio.c ****   * @param  NewState: new state of the port pin remapping.
 546:../../STM32F10x_StdPeriph_Lib_V3.5.0/Libraries/STM32F10x_StdPeriph_Driver/src/stm32f10x_gpio.c ****   *   This parameter can be: ENABLE or DISABLE.
 547:../../STM32F10x_StdPeriph_Lib_V3.5.0/Libraries/STM32F10x_StdPeriph_Driver/src/stm32f10x_gpio.c ****   * @retval None
 548:../../STM32F10x_StdPeriph_Lib_V3.5.0/Libraries/STM32F10x_StdPeriph_Driver/src/stm32f10x_gpio.c ****   */
 549:../../STM32F10x_StdPeriph_Lib_V3.5.0/Libraries/STM32F10x_StdPeriph_Driver/src/stm32f10x_gpio.c **** void GPIO_PinRemapConfig(uint32_t GPIO_Remap, FunctionalState NewState)
 550:../../STM32F10x_StdPeriph_Lib_V3.5.0/Libraries/STM32F10x_StdPeriph_Driver/src/stm32f10x_gpio.c **** {
 962              		.loc 1 550 0
 963              		.cfi_startproc
 964              		@ args = 0, pretend = 0, frame = 24
 965              		@ frame_needed = 0, uses_anonymous_args = 0
 966              		@ link register save eliminated.
 967 0430 86B0     		sub	sp, sp, #24	@,,
 968              	.LCFI30:
 969              		.cfi_def_cfa_offset 24
 970 0432 0190     		str	r0, [sp, #4]	@ GPIO_Remap, GPIO_Remap
 971 0434 0B46     		mov	r3, r1	@ tmp134, NewState
 972 0436 8DF80330 		strb	r3, [sp, #3]	@ tmp135, NewState
 551:../../STM32F10x_StdPeriph_Lib_V3.5.0/Libraries/STM32F10x_StdPeriph_Driver/src/stm32f10x_gpio.c ****   uint32_t tmp = 0x00, tmp1 = 0x00, tmpreg = 0x00, tmpmask = 0x00;
 973              		.loc 1 551 0
 974 043a 0023     		movs	r3, #0	@ tmp136,
 975 043c 0493     		str	r3, [sp, #16]	@ tmp136, tmp
 976 043e 0023     		movs	r3, #0	@ tmp137,
 977 0440 0393     		str	r3, [sp, #12]	@ tmp137, tmp1
 978 0442 0023     		movs	r3, #0	@ tmp138,
 979 0444 0593     		str	r3, [sp, #20]	@ tmp138, tmpreg
 980 0446 0023     		movs	r3, #0	@ tmp139,
 981 0448 0293     		str	r3, [sp, #8]	@ tmp139, tmpmask
 552:../../STM32F10x_StdPeriph_Lib_V3.5.0/Libraries/STM32F10x_StdPeriph_Driver/src/stm32f10x_gpio.c **** 
 553:../../STM32F10x_StdPeriph_Lib_V3.5.0/Libraries/STM32F10x_StdPeriph_Driver/src/stm32f10x_gpio.c ****   /* Check the parameters */
 554:../../STM32F10x_StdPeriph_Lib_V3.5.0/Libraries/STM32F10x_StdPeriph_Driver/src/stm32f10x_gpio.c ****   assert_param(IS_GPIO_REMAP(GPIO_Remap));
ARM GAS  /tmp/ccvxPp7R.s 			page 28


 555:../../STM32F10x_StdPeriph_Lib_V3.5.0/Libraries/STM32F10x_StdPeriph_Driver/src/stm32f10x_gpio.c ****   assert_param(IS_FUNCTIONAL_STATE(NewState));  
 556:../../STM32F10x_StdPeriph_Lib_V3.5.0/Libraries/STM32F10x_StdPeriph_Driver/src/stm32f10x_gpio.c ****   
 557:../../STM32F10x_StdPeriph_Lib_V3.5.0/Libraries/STM32F10x_StdPeriph_Driver/src/stm32f10x_gpio.c ****   if((GPIO_Remap & 0x80000000) == 0x80000000)
 982              		.loc 1 557 0
 983 044a 019B     		ldr	r3, [sp, #4]	@ D.6750, GPIO_Remap
 984 044c 002B     		cmp	r3, #0	@ D.6750,
 985 044e 03DA     		bge	.L51	@,
 558:../../STM32F10x_StdPeriph_Lib_V3.5.0/Libraries/STM32F10x_StdPeriph_Driver/src/stm32f10x_gpio.c ****   {
 559:../../STM32F10x_StdPeriph_Lib_V3.5.0/Libraries/STM32F10x_StdPeriph_Driver/src/stm32f10x_gpio.c ****     tmpreg = AFIO->MAPR2;
 986              		.loc 1 559 0
 987 0450 2D4B     		ldr	r3, .L59	@ D.6751,
 988 0452 DB69     		ldr	r3, [r3, #28]	@ tmp140, _10->MAPR2
 989 0454 0593     		str	r3, [sp, #20]	@ tmp140, tmpreg
 990 0456 02E0     		b	.L52	@
 991              	.L51:
 560:../../STM32F10x_StdPeriph_Lib_V3.5.0/Libraries/STM32F10x_StdPeriph_Driver/src/stm32f10x_gpio.c ****   }
 561:../../STM32F10x_StdPeriph_Lib_V3.5.0/Libraries/STM32F10x_StdPeriph_Driver/src/stm32f10x_gpio.c ****   else
 562:../../STM32F10x_StdPeriph_Lib_V3.5.0/Libraries/STM32F10x_StdPeriph_Driver/src/stm32f10x_gpio.c ****   {
 563:../../STM32F10x_StdPeriph_Lib_V3.5.0/Libraries/STM32F10x_StdPeriph_Driver/src/stm32f10x_gpio.c ****     tmpreg = AFIO->MAPR;
 992              		.loc 1 563 0
 993 0458 2B4B     		ldr	r3, .L59	@ D.6751,
 994 045a 5B68     		ldr	r3, [r3, #4]	@ tmp141, _12->MAPR
 995 045c 0593     		str	r3, [sp, #20]	@ tmp141, tmpreg
 996              	.L52:
 564:../../STM32F10x_StdPeriph_Lib_V3.5.0/Libraries/STM32F10x_StdPeriph_Driver/src/stm32f10x_gpio.c ****   }
 565:../../STM32F10x_StdPeriph_Lib_V3.5.0/Libraries/STM32F10x_StdPeriph_Driver/src/stm32f10x_gpio.c **** 
 566:../../STM32F10x_StdPeriph_Lib_V3.5.0/Libraries/STM32F10x_StdPeriph_Driver/src/stm32f10x_gpio.c ****   tmpmask = (GPIO_Remap & DBGAFR_POSITION_MASK) >> 0x10;
 997              		.loc 1 566 0
 998 045e 019B     		ldr	r3, [sp, #4]	@ tmp142, GPIO_Remap
 999 0460 03F47023 		and	r3, r3, #983040	@ D.6752, tmp142,
 1000 0464 1B0C     		lsrs	r3, r3, #16	@ tmp143, D.6752,
 1001 0466 0293     		str	r3, [sp, #8]	@ tmp143, tmpmask
 567:../../STM32F10x_StdPeriph_Lib_V3.5.0/Libraries/STM32F10x_StdPeriph_Driver/src/stm32f10x_gpio.c ****   tmp = GPIO_Remap & LSB_MASK;
 1002              		.loc 1 567 0
 1003 0468 019B     		ldr	r3, [sp, #4]	@ tmp145, GPIO_Remap
 1004 046a 9BB2     		uxth	r3, r3	@ tmp144, tmp145
 1005 046c 0493     		str	r3, [sp, #16]	@ tmp144, tmp
 568:../../STM32F10x_StdPeriph_Lib_V3.5.0/Libraries/STM32F10x_StdPeriph_Driver/src/stm32f10x_gpio.c **** 
 569:../../STM32F10x_StdPeriph_Lib_V3.5.0/Libraries/STM32F10x_StdPeriph_Driver/src/stm32f10x_gpio.c ****   if ((GPIO_Remap & (DBGAFR_LOCATION_MASK | DBGAFR_NUMBITS_MASK)) == (DBGAFR_LOCATION_MASK | DBGAFR
 1006              		.loc 1 569 0
 1007 046e 019B     		ldr	r3, [sp, #4]	@ tmp146, GPIO_Remap
 1008 0470 03F44013 		and	r3, r3, #3145728	@ D.6752, tmp146,
 1009 0474 B3F5401F 		cmp	r3, #3145728	@ D.6752,
 1010 0478 0AD1     		bne	.L53	@,
 570:../../STM32F10x_StdPeriph_Lib_V3.5.0/Libraries/STM32F10x_StdPeriph_Driver/src/stm32f10x_gpio.c ****   {
 571:../../STM32F10x_StdPeriph_Lib_V3.5.0/Libraries/STM32F10x_StdPeriph_Driver/src/stm32f10x_gpio.c ****     tmpreg &= DBGAFR_SWJCFG_MASK;
 1011              		.loc 1 571 0
 1012 047a 059B     		ldr	r3, [sp, #20]	@ tmp148, tmpreg
 1013 047c 23F07063 		bic	r3, r3, #251658240	@ tmp147, tmp148,
 1014 0480 0593     		str	r3, [sp, #20]	@ tmp147, tmpreg
 572:../../STM32F10x_StdPeriph_Lib_V3.5.0/Libraries/STM32F10x_StdPeriph_Driver/src/stm32f10x_gpio.c ****     AFIO->MAPR &= DBGAFR_SWJCFG_MASK;
 1015              		.loc 1 572 0
 1016 0482 214A     		ldr	r2, .L59	@ D.6751,
 1017 0484 204B     		ldr	r3, .L59	@ D.6751,
 1018 0486 5B68     		ldr	r3, [r3, #4]	@ D.6752, _20->MAPR
 1019 0488 23F07063 		bic	r3, r3, #251658240	@ D.6752, D.6752,
 1020 048c 5360     		str	r3, [r2, #4]	@ D.6752, _19->MAPR
ARM GAS  /tmp/ccvxPp7R.s 			page 29


 1021 048e 21E0     		b	.L54	@
 1022              	.L53:
 573:../../STM32F10x_StdPeriph_Lib_V3.5.0/Libraries/STM32F10x_StdPeriph_Driver/src/stm32f10x_gpio.c ****   }
 574:../../STM32F10x_StdPeriph_Lib_V3.5.0/Libraries/STM32F10x_StdPeriph_Driver/src/stm32f10x_gpio.c ****   else if ((GPIO_Remap & DBGAFR_NUMBITS_MASK) == DBGAFR_NUMBITS_MASK)
 1023              		.loc 1 574 0
 1024 0490 019B     		ldr	r3, [sp, #4]	@ tmp149, GPIO_Remap
 1025 0492 03F48013 		and	r3, r3, #1048576	@ D.6752, tmp149,
 1026 0496 002B     		cmp	r3, #0	@ D.6752,
 1027 0498 0ED0     		beq	.L55	@,
 575:../../STM32F10x_StdPeriph_Lib_V3.5.0/Libraries/STM32F10x_StdPeriph_Driver/src/stm32f10x_gpio.c ****   {
 576:../../STM32F10x_StdPeriph_Lib_V3.5.0/Libraries/STM32F10x_StdPeriph_Driver/src/stm32f10x_gpio.c ****     tmp1 = ((uint32_t)0x03) << tmpmask;
 1028              		.loc 1 576 0
 1029 049a 029B     		ldr	r3, [sp, #8]	@ D.6753, tmpmask
 1030 049c 0322     		movs	r2, #3	@ tmp151,
 1031 049e 02FA03F3 		lsl	r3, r2, r3	@ tmp150, tmp151, D.6753
 1032 04a2 0393     		str	r3, [sp, #12]	@ tmp150, tmp1
 577:../../STM32F10x_StdPeriph_Lib_V3.5.0/Libraries/STM32F10x_StdPeriph_Driver/src/stm32f10x_gpio.c ****     tmpreg &= ~tmp1;
 1033              		.loc 1 577 0
 1034 04a4 039B     		ldr	r3, [sp, #12]	@ tmp152, tmp1
 1035 04a6 DB43     		mvns	r3, r3	@ D.6752, tmp152
 1036 04a8 059A     		ldr	r2, [sp, #20]	@ tmp154, tmpreg
 1037 04aa 1340     		ands	r3, r3, r2	@, tmp153, D.6752, tmp154
 1038 04ac 0593     		str	r3, [sp, #20]	@ tmp153, tmpreg
 578:../../STM32F10x_StdPeriph_Lib_V3.5.0/Libraries/STM32F10x_StdPeriph_Driver/src/stm32f10x_gpio.c ****     tmpreg |= ~DBGAFR_SWJCFG_MASK;
 1039              		.loc 1 578 0
 1040 04ae 059B     		ldr	r3, [sp, #20]	@ tmp156, tmpreg
 1041 04b0 43F07063 		orr	r3, r3, #251658240	@ tmp155, tmp156,
 1042 04b4 0593     		str	r3, [sp, #20]	@ tmp155, tmpreg
 1043 04b6 0DE0     		b	.L54	@
 1044              	.L55:
 579:../../STM32F10x_StdPeriph_Lib_V3.5.0/Libraries/STM32F10x_StdPeriph_Driver/src/stm32f10x_gpio.c ****   }
 580:../../STM32F10x_StdPeriph_Lib_V3.5.0/Libraries/STM32F10x_StdPeriph_Driver/src/stm32f10x_gpio.c ****   else
 581:../../STM32F10x_StdPeriph_Lib_V3.5.0/Libraries/STM32F10x_StdPeriph_Driver/src/stm32f10x_gpio.c ****   {
 582:../../STM32F10x_StdPeriph_Lib_V3.5.0/Libraries/STM32F10x_StdPeriph_Driver/src/stm32f10x_gpio.c ****     tmpreg &= ~(tmp << ((GPIO_Remap >> 0x15)*0x10));
 1045              		.loc 1 582 0
 1046 04b8 019B     		ldr	r3, [sp, #4]	@ tmp157, GPIO_Remap
 1047 04ba 5B0D     		lsrs	r3, r3, #21	@ D.6752, tmp157,
 1048 04bc 1B01     		lsls	r3, r3, #4	@ D.6752, D.6752,
 1049 04be 1A46     		mov	r2, r3	@ D.6753, D.6752
 1050 04c0 049B     		ldr	r3, [sp, #16]	@ tmp158, tmp
 1051 04c2 9340     		lsls	r3, r3, r2	@ D.6752, tmp158, D.6753
 1052 04c4 DB43     		mvns	r3, r3	@ D.6752, D.6752
 1053 04c6 059A     		ldr	r2, [sp, #20]	@ tmp160, tmpreg
 1054 04c8 1340     		ands	r3, r3, r2	@, tmp159, D.6752, tmp160
 1055 04ca 0593     		str	r3, [sp, #20]	@ tmp159, tmpreg
 583:../../STM32F10x_StdPeriph_Lib_V3.5.0/Libraries/STM32F10x_StdPeriph_Driver/src/stm32f10x_gpio.c ****     tmpreg |= ~DBGAFR_SWJCFG_MASK;
 1056              		.loc 1 583 0
 1057 04cc 059B     		ldr	r3, [sp, #20]	@ tmp162, tmpreg
 1058 04ce 43F07063 		orr	r3, r3, #251658240	@ tmp161, tmp162,
 1059 04d2 0593     		str	r3, [sp, #20]	@ tmp161, tmpreg
 1060              	.L54:
 584:../../STM32F10x_StdPeriph_Lib_V3.5.0/Libraries/STM32F10x_StdPeriph_Driver/src/stm32f10x_gpio.c ****   }
 585:../../STM32F10x_StdPeriph_Lib_V3.5.0/Libraries/STM32F10x_StdPeriph_Driver/src/stm32f10x_gpio.c **** 
 586:../../STM32F10x_StdPeriph_Lib_V3.5.0/Libraries/STM32F10x_StdPeriph_Driver/src/stm32f10x_gpio.c ****   if (NewState != DISABLE)
 1061              		.loc 1 586 0
 1062 04d4 9DF80330 		ldrb	r3, [sp, #3]	@ zero_extendqisi2	@ tmp163, NewState
 1063 04d8 002B     		cmp	r3, #0	@ tmp163,
ARM GAS  /tmp/ccvxPp7R.s 			page 30


 1064 04da 08D0     		beq	.L56	@,
 587:../../STM32F10x_StdPeriph_Lib_V3.5.0/Libraries/STM32F10x_StdPeriph_Driver/src/stm32f10x_gpio.c ****   {
 588:../../STM32F10x_StdPeriph_Lib_V3.5.0/Libraries/STM32F10x_StdPeriph_Driver/src/stm32f10x_gpio.c ****     tmpreg |= (tmp << ((GPIO_Remap >> 0x15)*0x10));
 1065              		.loc 1 588 0
 1066 04dc 019B     		ldr	r3, [sp, #4]	@ tmp164, GPIO_Remap
 1067 04de 5B0D     		lsrs	r3, r3, #21	@ D.6752, tmp164,
 1068 04e0 1B01     		lsls	r3, r3, #4	@ D.6752, D.6752,
 1069 04e2 1A46     		mov	r2, r3	@ D.6753, D.6752
 1070 04e4 049B     		ldr	r3, [sp, #16]	@ tmp165, tmp
 1071 04e6 9340     		lsls	r3, r3, r2	@ D.6752, tmp165, D.6753
 1072 04e8 059A     		ldr	r2, [sp, #20]	@ tmp167, tmpreg
 1073 04ea 1343     		orrs	r3, r3, r2	@, tmp166, D.6752, tmp167
 1074 04ec 0593     		str	r3, [sp, #20]	@ tmp166, tmpreg
 1075              	.L56:
 589:../../STM32F10x_StdPeriph_Lib_V3.5.0/Libraries/STM32F10x_StdPeriph_Driver/src/stm32f10x_gpio.c ****   }
 590:../../STM32F10x_StdPeriph_Lib_V3.5.0/Libraries/STM32F10x_StdPeriph_Driver/src/stm32f10x_gpio.c **** 
 591:../../STM32F10x_StdPeriph_Lib_V3.5.0/Libraries/STM32F10x_StdPeriph_Driver/src/stm32f10x_gpio.c ****   if((GPIO_Remap & 0x80000000) == 0x80000000)
 1076              		.loc 1 591 0
 1077 04ee 019B     		ldr	r3, [sp, #4]	@ D.6750, GPIO_Remap
 1078 04f0 002B     		cmp	r3, #0	@ D.6750,
 1079 04f2 03DA     		bge	.L57	@,
 592:../../STM32F10x_StdPeriph_Lib_V3.5.0/Libraries/STM32F10x_StdPeriph_Driver/src/stm32f10x_gpio.c ****   {
 593:../../STM32F10x_StdPeriph_Lib_V3.5.0/Libraries/STM32F10x_StdPeriph_Driver/src/stm32f10x_gpio.c ****     AFIO->MAPR2 = tmpreg;
 1080              		.loc 1 593 0
 1081 04f4 044A     		ldr	r2, .L59	@ D.6751,
 1082 04f6 059B     		ldr	r3, [sp, #20]	@ tmp168, tmpreg
 1083 04f8 D361     		str	r3, [r2, #28]	@ tmp168, _43->MAPR2
 1084 04fa 02E0     		b	.L50	@
 1085              	.L57:
 594:../../STM32F10x_StdPeriph_Lib_V3.5.0/Libraries/STM32F10x_StdPeriph_Driver/src/stm32f10x_gpio.c ****   }
 595:../../STM32F10x_StdPeriph_Lib_V3.5.0/Libraries/STM32F10x_StdPeriph_Driver/src/stm32f10x_gpio.c ****   else
 596:../../STM32F10x_StdPeriph_Lib_V3.5.0/Libraries/STM32F10x_StdPeriph_Driver/src/stm32f10x_gpio.c ****   {
 597:../../STM32F10x_StdPeriph_Lib_V3.5.0/Libraries/STM32F10x_StdPeriph_Driver/src/stm32f10x_gpio.c ****     AFIO->MAPR = tmpreg;
 1086              		.loc 1 597 0
 1087 04fc 024A     		ldr	r2, .L59	@ D.6751,
 1088 04fe 059B     		ldr	r3, [sp, #20]	@ tmp169, tmpreg
 1089 0500 5360     		str	r3, [r2, #4]	@ tmp169, _44->MAPR
 1090              	.L50:
 598:../../STM32F10x_StdPeriph_Lib_V3.5.0/Libraries/STM32F10x_StdPeriph_Driver/src/stm32f10x_gpio.c ****   }  
 599:../../STM32F10x_StdPeriph_Lib_V3.5.0/Libraries/STM32F10x_StdPeriph_Driver/src/stm32f10x_gpio.c **** }
 1091              		.loc 1 599 0
 1092 0502 06B0     		add	sp, sp, #24	@,,
 1093              	.LCFI31:
 1094              		.cfi_def_cfa_offset 0
 1095              		@ sp needed	@
 1096 0504 7047     		bx	lr	@
 1097              	.L60:
 1098 0506 00BF     		.align	2
 1099              	.L59:
 1100 0508 00000140 		.word	1073807360
 1101              		.cfi_endproc
 1102              	.LFE44:
 1103              		.size	GPIO_PinRemapConfig, .-GPIO_PinRemapConfig
 1104              		.align	2
 1105              		.global	GPIO_EXTILineConfig
 1106              		.thumb
 1107              		.thumb_func
ARM GAS  /tmp/ccvxPp7R.s 			page 31


 1108              		.type	GPIO_EXTILineConfig, %function
 1109              	GPIO_EXTILineConfig:
 1110              	.LFB45:
 600:../../STM32F10x_StdPeriph_Lib_V3.5.0/Libraries/STM32F10x_StdPeriph_Driver/src/stm32f10x_gpio.c **** 
 601:../../STM32F10x_StdPeriph_Lib_V3.5.0/Libraries/STM32F10x_StdPeriph_Driver/src/stm32f10x_gpio.c **** /**
 602:../../STM32F10x_StdPeriph_Lib_V3.5.0/Libraries/STM32F10x_StdPeriph_Driver/src/stm32f10x_gpio.c ****   * @brief  Selects the GPIO pin used as EXTI Line.
 603:../../STM32F10x_StdPeriph_Lib_V3.5.0/Libraries/STM32F10x_StdPeriph_Driver/src/stm32f10x_gpio.c ****   * @param  GPIO_PortSource: selects the GPIO port to be used as source for EXTI lines.
 604:../../STM32F10x_StdPeriph_Lib_V3.5.0/Libraries/STM32F10x_StdPeriph_Driver/src/stm32f10x_gpio.c ****   *   This parameter can be GPIO_PortSourceGPIOx where x can be (A..G).
 605:../../STM32F10x_StdPeriph_Lib_V3.5.0/Libraries/STM32F10x_StdPeriph_Driver/src/stm32f10x_gpio.c ****   * @param  GPIO_PinSource: specifies the EXTI line to be configured.
 606:../../STM32F10x_StdPeriph_Lib_V3.5.0/Libraries/STM32F10x_StdPeriph_Driver/src/stm32f10x_gpio.c ****   *   This parameter can be GPIO_PinSourcex where x can be (0..15).
 607:../../STM32F10x_StdPeriph_Lib_V3.5.0/Libraries/STM32F10x_StdPeriph_Driver/src/stm32f10x_gpio.c ****   * @retval None
 608:../../STM32F10x_StdPeriph_Lib_V3.5.0/Libraries/STM32F10x_StdPeriph_Driver/src/stm32f10x_gpio.c ****   */
 609:../../STM32F10x_StdPeriph_Lib_V3.5.0/Libraries/STM32F10x_StdPeriph_Driver/src/stm32f10x_gpio.c **** void GPIO_EXTILineConfig(uint8_t GPIO_PortSource, uint8_t GPIO_PinSource)
 610:../../STM32F10x_StdPeriph_Lib_V3.5.0/Libraries/STM32F10x_StdPeriph_Driver/src/stm32f10x_gpio.c **** {
 1111              		.loc 1 610 0
 1112              		.cfi_startproc
 1113              		@ args = 0, pretend = 0, frame = 16
 1114              		@ frame_needed = 0, uses_anonymous_args = 0
 1115              		@ link register save eliminated.
 1116 050c 10B4     		push	{r4}	@
 1117              	.LCFI32:
 1118              		.cfi_def_cfa_offset 4
 1119              		.cfi_offset 4, -4
 1120 050e 85B0     		sub	sp, sp, #20	@,,
 1121              	.LCFI33:
 1122              		.cfi_def_cfa_offset 24
 1123 0510 0346     		mov	r3, r0	@ tmp135, GPIO_PortSource
 1124 0512 0A46     		mov	r2, r1	@ tmp137, GPIO_PinSource
 1125 0514 8DF80730 		strb	r3, [sp, #7]	@ tmp136, GPIO_PortSource
 1126 0518 1346     		mov	r3, r2	@ tmp138, tmp137
 1127 051a 8DF80630 		strb	r3, [sp, #6]	@ tmp138, GPIO_PinSource
 611:../../STM32F10x_StdPeriph_Lib_V3.5.0/Libraries/STM32F10x_StdPeriph_Driver/src/stm32f10x_gpio.c ****   uint32_t tmp = 0x00;
 1128              		.loc 1 611 0
 1129 051e 0023     		movs	r3, #0	@ tmp139,
 1130 0520 0393     		str	r3, [sp, #12]	@ tmp139, tmp
 612:../../STM32F10x_StdPeriph_Lib_V3.5.0/Libraries/STM32F10x_StdPeriph_Driver/src/stm32f10x_gpio.c ****   /* Check the parameters */
 613:../../STM32F10x_StdPeriph_Lib_V3.5.0/Libraries/STM32F10x_StdPeriph_Driver/src/stm32f10x_gpio.c ****   assert_param(IS_GPIO_EXTI_PORT_SOURCE(GPIO_PortSource));
 614:../../STM32F10x_StdPeriph_Lib_V3.5.0/Libraries/STM32F10x_StdPeriph_Driver/src/stm32f10x_gpio.c ****   assert_param(IS_GPIO_PIN_SOURCE(GPIO_PinSource));
 615:../../STM32F10x_StdPeriph_Lib_V3.5.0/Libraries/STM32F10x_StdPeriph_Driver/src/stm32f10x_gpio.c ****   
 616:../../STM32F10x_StdPeriph_Lib_V3.5.0/Libraries/STM32F10x_StdPeriph_Driver/src/stm32f10x_gpio.c ****   tmp = ((uint32_t)0x0F) << (0x04 * (GPIO_PinSource & (uint8_t)0x03));
 1131              		.loc 1 616 0
 1132 0522 9DF80630 		ldrb	r3, [sp, #6]	@ zero_extendqisi2	@ D.6754, GPIO_PinSource
 1133 0526 03F00303 		and	r3, r3, #3	@ D.6754, D.6754,
 1134 052a 9B00     		lsls	r3, r3, #2	@ D.6754, D.6754,
 1135 052c 0F22     		movs	r2, #15	@ tmp141,
 1136 052e 02FA03F3 		lsl	r3, r2, r3	@ tmp140, tmp141, D.6754
 1137 0532 0393     		str	r3, [sp, #12]	@ tmp140, tmp
 617:../../STM32F10x_StdPeriph_Lib_V3.5.0/Libraries/STM32F10x_StdPeriph_Driver/src/stm32f10x_gpio.c ****   AFIO->EXTICR[GPIO_PinSource >> 0x02] &= ~tmp;
 1138              		.loc 1 617 0
 1139 0534 1949     		ldr	r1, .L62	@ D.6755,
 1140 0536 9DF80630 		ldrb	r3, [sp, #6]	@ zero_extendqisi2	@ tmp142, GPIO_PinSource
 1141 053a 9B08     		lsrs	r3, r3, #2	@ tmp143, tmp142,
 1142 053c DBB2     		uxtb	r3, r3	@ D.6756, tmp143
 1143 053e 1846     		mov	r0, r3	@ D.6754, D.6756
 1144 0540 164A     		ldr	r2, .L62	@ D.6755,
 1145 0542 9DF80630 		ldrb	r3, [sp, #6]	@ zero_extendqisi2	@ tmp144, GPIO_PinSource
 1146 0546 9B08     		lsrs	r3, r3, #2	@ tmp145, tmp144,
ARM GAS  /tmp/ccvxPp7R.s 			page 32


 1147 0548 DBB2     		uxtb	r3, r3	@ D.6756, tmp145
 1148 054a 0233     		adds	r3, r3, #2	@ tmp146, D.6754,
 1149 054c 52F82320 		ldr	r2, [r2, r3, lsl #2]	@ D.6757, _10->EXTICR
 1150 0550 039B     		ldr	r3, [sp, #12]	@ tmp147, tmp
 1151 0552 DB43     		mvns	r3, r3	@ D.6757, tmp147
 1152 0554 1A40     		ands	r2, r2, r3	@, D.6757, D.6757, D.6757
 1153 0556 831C     		adds	r3, r0, #2	@ tmp148, D.6754,
 1154 0558 41F82320 		str	r2, [r1, r3, lsl #2]	@ D.6757, _7->EXTICR
 618:../../STM32F10x_StdPeriph_Lib_V3.5.0/Libraries/STM32F10x_StdPeriph_Driver/src/stm32f10x_gpio.c ****   AFIO->EXTICR[GPIO_PinSource >> 0x02] |= (((uint32_t)GPIO_PortSource) << (0x04 * (GPIO_PinSource &
 1155              		.loc 1 618 0
 1156 055c 0F48     		ldr	r0, .L62	@ D.6755,
 1157 055e 9DF80630 		ldrb	r3, [sp, #6]	@ zero_extendqisi2	@ tmp149, GPIO_PinSource
 1158 0562 9B08     		lsrs	r3, r3, #2	@ tmp150, tmp149,
 1159 0564 DBB2     		uxtb	r3, r3	@ D.6756, tmp150
 1160 0566 1C46     		mov	r4, r3	@ D.6754, D.6756
 1161 0568 0C4A     		ldr	r2, .L62	@ D.6755,
 1162 056a 9DF80630 		ldrb	r3, [sp, #6]	@ zero_extendqisi2	@ tmp151, GPIO_PinSource
 1163 056e 9B08     		lsrs	r3, r3, #2	@ tmp152, tmp151,
 1164 0570 DBB2     		uxtb	r3, r3	@ D.6756, tmp152
 1165 0572 0233     		adds	r3, r3, #2	@ tmp153, D.6754,
 1166 0574 52F82320 		ldr	r2, [r2, r3, lsl #2]	@ D.6757, _19->EXTICR
 1167 0578 9DF80710 		ldrb	r1, [sp, #7]	@ zero_extendqisi2	@ D.6757, GPIO_PortSource
 1168 057c 9DF80630 		ldrb	r3, [sp, #6]	@ zero_extendqisi2	@ D.6754, GPIO_PinSource
 1169 0580 03F00303 		and	r3, r3, #3	@ D.6754, D.6754,
 1170 0584 9B00     		lsls	r3, r3, #2	@ D.6754, D.6754,
 1171 0586 01FA03F3 		lsl	r3, r1, r3	@ D.6757, D.6757, D.6754
 1172 058a 1A43     		orrs	r2, r2, r3	@, D.6757, D.6757, D.6757
 1173 058c A31C     		adds	r3, r4, #2	@ tmp154, D.6754,
 1174 058e 40F82320 		str	r2, [r0, r3, lsl #2]	@ D.6757, _16->EXTICR
 619:../../STM32F10x_StdPeriph_Lib_V3.5.0/Libraries/STM32F10x_StdPeriph_Driver/src/stm32f10x_gpio.c **** }
 1175              		.loc 1 619 0
 1176 0592 05B0     		add	sp, sp, #20	@,,
 1177              	.LCFI34:
 1178              		.cfi_def_cfa_offset 4
 1179              		@ sp needed	@
 1180 0594 5DF8044B 		ldr	r4, [sp], #4	@,
 1181              	.LCFI35:
 1182              		.cfi_restore 4
 1183              		.cfi_def_cfa_offset 0
 1184 0598 7047     		bx	lr	@
 1185              	.L63:
 1186 059a 00BF     		.align	2
 1187              	.L62:
 1188 059c 00000140 		.word	1073807360
 1189              		.cfi_endproc
 1190              	.LFE45:
 1191              		.size	GPIO_EXTILineConfig, .-GPIO_EXTILineConfig
 1192              		.align	2
 1193              		.global	GPIO_ETH_MediaInterfaceConfig
 1194              		.thumb
 1195              		.thumb_func
 1196              		.type	GPIO_ETH_MediaInterfaceConfig, %function
 1197              	GPIO_ETH_MediaInterfaceConfig:
 1198              	.LFB46:
 620:../../STM32F10x_StdPeriph_Lib_V3.5.0/Libraries/STM32F10x_StdPeriph_Driver/src/stm32f10x_gpio.c **** 
 621:../../STM32F10x_StdPeriph_Lib_V3.5.0/Libraries/STM32F10x_StdPeriph_Driver/src/stm32f10x_gpio.c **** /**
 622:../../STM32F10x_StdPeriph_Lib_V3.5.0/Libraries/STM32F10x_StdPeriph_Driver/src/stm32f10x_gpio.c ****   * @brief  Selects the Ethernet media interface.
ARM GAS  /tmp/ccvxPp7R.s 			page 33


 623:../../STM32F10x_StdPeriph_Lib_V3.5.0/Libraries/STM32F10x_StdPeriph_Driver/src/stm32f10x_gpio.c ****   * @note   This function applies only to STM32 Connectivity line devices.  
 624:../../STM32F10x_StdPeriph_Lib_V3.5.0/Libraries/STM32F10x_StdPeriph_Driver/src/stm32f10x_gpio.c ****   * @param  GPIO_ETH_MediaInterface: specifies the Media Interface mode.
 625:../../STM32F10x_StdPeriph_Lib_V3.5.0/Libraries/STM32F10x_StdPeriph_Driver/src/stm32f10x_gpio.c ****   *   This parameter can be one of the following values:
 626:../../STM32F10x_StdPeriph_Lib_V3.5.0/Libraries/STM32F10x_StdPeriph_Driver/src/stm32f10x_gpio.c ****   *     @arg GPIO_ETH_MediaInterface_MII: MII mode
 627:../../STM32F10x_StdPeriph_Lib_V3.5.0/Libraries/STM32F10x_StdPeriph_Driver/src/stm32f10x_gpio.c ****   *     @arg GPIO_ETH_MediaInterface_RMII: RMII mode    
 628:../../STM32F10x_StdPeriph_Lib_V3.5.0/Libraries/STM32F10x_StdPeriph_Driver/src/stm32f10x_gpio.c ****   * @retval None
 629:../../STM32F10x_StdPeriph_Lib_V3.5.0/Libraries/STM32F10x_StdPeriph_Driver/src/stm32f10x_gpio.c ****   */
 630:../../STM32F10x_StdPeriph_Lib_V3.5.0/Libraries/STM32F10x_StdPeriph_Driver/src/stm32f10x_gpio.c **** void GPIO_ETH_MediaInterfaceConfig(uint32_t GPIO_ETH_MediaInterface) 
 631:../../STM32F10x_StdPeriph_Lib_V3.5.0/Libraries/STM32F10x_StdPeriph_Driver/src/stm32f10x_gpio.c **** { 
 1199              		.loc 1 631 0
 1200              		.cfi_startproc
 1201              		@ args = 0, pretend = 0, frame = 8
 1202              		@ frame_needed = 0, uses_anonymous_args = 0
 1203              		@ link register save eliminated.
 1204 05a0 82B0     		sub	sp, sp, #8	@,,
 1205              	.LCFI36:
 1206              		.cfi_def_cfa_offset 8
 1207 05a2 0190     		str	r0, [sp, #4]	@ GPIO_ETH_MediaInterface, GPIO_ETH_MediaInterface
 632:../../STM32F10x_StdPeriph_Lib_V3.5.0/Libraries/STM32F10x_StdPeriph_Driver/src/stm32f10x_gpio.c ****   assert_param(IS_GPIO_ETH_MEDIA_INTERFACE(GPIO_ETH_MediaInterface)); 
 633:../../STM32F10x_StdPeriph_Lib_V3.5.0/Libraries/STM32F10x_StdPeriph_Driver/src/stm32f10x_gpio.c **** 
 634:../../STM32F10x_StdPeriph_Lib_V3.5.0/Libraries/STM32F10x_StdPeriph_Driver/src/stm32f10x_gpio.c ****   /* Configure MII_RMII selection bit */ 
 635:../../STM32F10x_StdPeriph_Lib_V3.5.0/Libraries/STM32F10x_StdPeriph_Driver/src/stm32f10x_gpio.c ****   *(__IO uint32_t *) MAPR_MII_RMII_SEL_BB = GPIO_ETH_MediaInterface; 
 1208              		.loc 1 635 0
 1209 05a4 024A     		ldr	r2, .L65	@ D.6758,
 1210 05a6 019B     		ldr	r3, [sp, #4]	@ tmp111, GPIO_ETH_MediaInterface
 1211 05a8 1360     		str	r3, [r2]	@ tmp111, *_1
 636:../../STM32F10x_StdPeriph_Lib_V3.5.0/Libraries/STM32F10x_StdPeriph_Driver/src/stm32f10x_gpio.c **** }
 1212              		.loc 1 636 0
 1213 05aa 02B0     		add	sp, sp, #8	@,,
 1214              	.LCFI37:
 1215              		.cfi_def_cfa_offset 0
 1216              		@ sp needed	@
 1217 05ac 7047     		bx	lr	@
 1218              	.L66:
 1219 05ae 00BF     		.align	2
 1220              	.L65:
 1221 05b0 DC002042 		.word	1109393628
 1222              		.cfi_endproc
 1223              	.LFE46:
 1224              		.size	GPIO_ETH_MediaInterfaceConfig, .-GPIO_ETH_MediaInterfaceConfig
 1225              	.Letext0:
 1226              		.file 2 "/usr/include/newlib/machine/_default_types.h"
 1227              		.file 3 "/usr/include/newlib/sys/_stdint.h"
 1228              		.file 4 "../../STM32F10x_StdPeriph_Lib_V3.5.0/Libraries/CMSIS/CM3/DeviceSupport/ST/STM32F10x/stm32
 1229              		.file 5 "../../STM32F10x_StdPeriph_Lib_V3.5.0/Libraries/STM32F10x_StdPeriph_Driver/inc/stm32f10x_g
 1230              		.file 6 "../../STM32F10x_StdPeriph_Lib_V3.5.0/Libraries/CMSIS/CM3/CoreSupport/core_cm3.h"