ARM GAS  /tmp/cc3Mf3YA.s 			page 1


   1              		.cpu cortex-m3
   2              		.arch armv7-m
   3              		.fpu softvfp
   4              		.eabi_attribute 20, 1
   5              		.eabi_attribute 21, 1
   6              		.eabi_attribute 23, 3
   7              		.eabi_attribute 24, 1
   8              		.eabi_attribute 25, 1
   9              		.eabi_attribute 26, 1
  10              		.eabi_attribute 30, 1
  11              		.eabi_attribute 34, 1
  12              		.eabi_attribute 18, 4
  13              		.file	"stm32f10x_flash.c"
  14              		.text
  15              	.Ltext0:
  16              		.cfi_sections	.debug_frame
  17              		.file 1 "Drivers/STM32F10x_StdPeriph_Driver/src/stm32f10x_flash.c"
  18              		.section	.text.FLASH_SetLatency,"ax",%progbits
  19              		.align	1
  20              		.global	FLASH_SetLatency
  21              		.syntax unified
  22              		.thumb
  23              		.thumb_func
  25              	FLASH_SetLatency:
  26              	.LVL0:
  27              	.LFB65:
   1:Drivers/STM32F10x_StdPeriph_Driver/src/stm32f10x_flash.c **** /**
   2:Drivers/STM32F10x_StdPeriph_Driver/src/stm32f10x_flash.c ****   ******************************************************************************
   3:Drivers/STM32F10x_StdPeriph_Driver/src/stm32f10x_flash.c ****   * @file    stm32f10x_flash.c
   4:Drivers/STM32F10x_StdPeriph_Driver/src/stm32f10x_flash.c ****   * @author  MCD Application Team
   5:Drivers/STM32F10x_StdPeriph_Driver/src/stm32f10x_flash.c ****   * @version V3.5.0
   6:Drivers/STM32F10x_StdPeriph_Driver/src/stm32f10x_flash.c ****   * @date    11-March-2011
   7:Drivers/STM32F10x_StdPeriph_Driver/src/stm32f10x_flash.c ****   * @brief   This file provides all the FLASH firmware functions.
   8:Drivers/STM32F10x_StdPeriph_Driver/src/stm32f10x_flash.c ****   ******************************************************************************
   9:Drivers/STM32F10x_StdPeriph_Driver/src/stm32f10x_flash.c ****   * @attention
  10:Drivers/STM32F10x_StdPeriph_Driver/src/stm32f10x_flash.c ****   *
  11:Drivers/STM32F10x_StdPeriph_Driver/src/stm32f10x_flash.c ****   * THE PRESENT FIRMWARE WHICH IS FOR GUIDANCE ONLY AIMS AT PROVIDING CUSTOMERS
  12:Drivers/STM32F10x_StdPeriph_Driver/src/stm32f10x_flash.c ****   * WITH CODING INFORMATION REGARDING THEIR PRODUCTS IN ORDER FOR THEM TO SAVE
  13:Drivers/STM32F10x_StdPeriph_Driver/src/stm32f10x_flash.c ****   * TIME. AS A RESULT, STMICROELECTRONICS SHALL NOT BE HELD LIABLE FOR ANY
  14:Drivers/STM32F10x_StdPeriph_Driver/src/stm32f10x_flash.c ****   * DIRECT, INDIRECT OR CONSEQUENTIAL DAMAGES WITH RESPECT TO ANY CLAIMS ARISING
  15:Drivers/STM32F10x_StdPeriph_Driver/src/stm32f10x_flash.c ****   * FROM THE CONTENT OF SUCH FIRMWARE AND/OR THE USE MADE BY CUSTOMERS OF THE
  16:Drivers/STM32F10x_StdPeriph_Driver/src/stm32f10x_flash.c ****   * CODING INFORMATION CONTAINED HEREIN IN CONNECTION WITH THEIR PRODUCTS.
  17:Drivers/STM32F10x_StdPeriph_Driver/src/stm32f10x_flash.c ****   *
  18:Drivers/STM32F10x_StdPeriph_Driver/src/stm32f10x_flash.c ****   * <h2><center>&copy; COPYRIGHT 2011 STMicroelectronics</center></h2>
  19:Drivers/STM32F10x_StdPeriph_Driver/src/stm32f10x_flash.c ****   ******************************************************************************
  20:Drivers/STM32F10x_StdPeriph_Driver/src/stm32f10x_flash.c ****   */
  21:Drivers/STM32F10x_StdPeriph_Driver/src/stm32f10x_flash.c **** 
  22:Drivers/STM32F10x_StdPeriph_Driver/src/stm32f10x_flash.c **** /* Includes ------------------------------------------------------------------*/
  23:Drivers/STM32F10x_StdPeriph_Driver/src/stm32f10x_flash.c **** #include "stm32f10x_flash.h"
  24:Drivers/STM32F10x_StdPeriph_Driver/src/stm32f10x_flash.c **** 
  25:Drivers/STM32F10x_StdPeriph_Driver/src/stm32f10x_flash.c **** /** @addtogroup STM32F10x_StdPeriph_Driver
  26:Drivers/STM32F10x_StdPeriph_Driver/src/stm32f10x_flash.c ****   * @{
  27:Drivers/STM32F10x_StdPeriph_Driver/src/stm32f10x_flash.c ****   */
  28:Drivers/STM32F10x_StdPeriph_Driver/src/stm32f10x_flash.c **** 
  29:Drivers/STM32F10x_StdPeriph_Driver/src/stm32f10x_flash.c **** /** @defgroup FLASH 
  30:Drivers/STM32F10x_StdPeriph_Driver/src/stm32f10x_flash.c ****   * @brief FLASH driver modules
  31:Drivers/STM32F10x_StdPeriph_Driver/src/stm32f10x_flash.c ****   * @{
ARM GAS  /tmp/cc3Mf3YA.s 			page 2


  32:Drivers/STM32F10x_StdPeriph_Driver/src/stm32f10x_flash.c ****   */ 
  33:Drivers/STM32F10x_StdPeriph_Driver/src/stm32f10x_flash.c **** 
  34:Drivers/STM32F10x_StdPeriph_Driver/src/stm32f10x_flash.c **** /** @defgroup FLASH_Private_TypesDefinitions
  35:Drivers/STM32F10x_StdPeriph_Driver/src/stm32f10x_flash.c ****   * @{
  36:Drivers/STM32F10x_StdPeriph_Driver/src/stm32f10x_flash.c ****   */
  37:Drivers/STM32F10x_StdPeriph_Driver/src/stm32f10x_flash.c **** 
  38:Drivers/STM32F10x_StdPeriph_Driver/src/stm32f10x_flash.c **** /**
  39:Drivers/STM32F10x_StdPeriph_Driver/src/stm32f10x_flash.c ****   * @}
  40:Drivers/STM32F10x_StdPeriph_Driver/src/stm32f10x_flash.c ****   */ 
  41:Drivers/STM32F10x_StdPeriph_Driver/src/stm32f10x_flash.c **** 
  42:Drivers/STM32F10x_StdPeriph_Driver/src/stm32f10x_flash.c **** /** @defgroup FLASH_Private_Defines
  43:Drivers/STM32F10x_StdPeriph_Driver/src/stm32f10x_flash.c ****   * @{
  44:Drivers/STM32F10x_StdPeriph_Driver/src/stm32f10x_flash.c ****   */ 
  45:Drivers/STM32F10x_StdPeriph_Driver/src/stm32f10x_flash.c **** 
  46:Drivers/STM32F10x_StdPeriph_Driver/src/stm32f10x_flash.c **** /* Flash Access Control Register bits */
  47:Drivers/STM32F10x_StdPeriph_Driver/src/stm32f10x_flash.c **** #define ACR_LATENCY_Mask         ((uint32_t)0x00000038)
  48:Drivers/STM32F10x_StdPeriph_Driver/src/stm32f10x_flash.c **** #define ACR_HLFCYA_Mask          ((uint32_t)0xFFFFFFF7)
  49:Drivers/STM32F10x_StdPeriph_Driver/src/stm32f10x_flash.c **** #define ACR_PRFTBE_Mask          ((uint32_t)0xFFFFFFEF)
  50:Drivers/STM32F10x_StdPeriph_Driver/src/stm32f10x_flash.c **** 
  51:Drivers/STM32F10x_StdPeriph_Driver/src/stm32f10x_flash.c **** /* Flash Access Control Register bits */
  52:Drivers/STM32F10x_StdPeriph_Driver/src/stm32f10x_flash.c **** #define ACR_PRFTBS_Mask          ((uint32_t)0x00000020) 
  53:Drivers/STM32F10x_StdPeriph_Driver/src/stm32f10x_flash.c **** 
  54:Drivers/STM32F10x_StdPeriph_Driver/src/stm32f10x_flash.c **** /* Flash Control Register bits */
  55:Drivers/STM32F10x_StdPeriph_Driver/src/stm32f10x_flash.c **** #define CR_PG_Set                ((uint32_t)0x00000001)
  56:Drivers/STM32F10x_StdPeriph_Driver/src/stm32f10x_flash.c **** #define CR_PG_Reset              ((uint32_t)0x00001FFE) 
  57:Drivers/STM32F10x_StdPeriph_Driver/src/stm32f10x_flash.c **** #define CR_PER_Set               ((uint32_t)0x00000002)
  58:Drivers/STM32F10x_StdPeriph_Driver/src/stm32f10x_flash.c **** #define CR_PER_Reset             ((uint32_t)0x00001FFD)
  59:Drivers/STM32F10x_StdPeriph_Driver/src/stm32f10x_flash.c **** #define CR_MER_Set               ((uint32_t)0x00000004)
  60:Drivers/STM32F10x_StdPeriph_Driver/src/stm32f10x_flash.c **** #define CR_MER_Reset             ((uint32_t)0x00001FFB)
  61:Drivers/STM32F10x_StdPeriph_Driver/src/stm32f10x_flash.c **** #define CR_OPTPG_Set             ((uint32_t)0x00000010)
  62:Drivers/STM32F10x_StdPeriph_Driver/src/stm32f10x_flash.c **** #define CR_OPTPG_Reset           ((uint32_t)0x00001FEF)
  63:Drivers/STM32F10x_StdPeriph_Driver/src/stm32f10x_flash.c **** #define CR_OPTER_Set             ((uint32_t)0x00000020)
  64:Drivers/STM32F10x_StdPeriph_Driver/src/stm32f10x_flash.c **** #define CR_OPTER_Reset           ((uint32_t)0x00001FDF)
  65:Drivers/STM32F10x_StdPeriph_Driver/src/stm32f10x_flash.c **** #define CR_STRT_Set              ((uint32_t)0x00000040)
  66:Drivers/STM32F10x_StdPeriph_Driver/src/stm32f10x_flash.c **** #define CR_LOCK_Set              ((uint32_t)0x00000080)
  67:Drivers/STM32F10x_StdPeriph_Driver/src/stm32f10x_flash.c **** 
  68:Drivers/STM32F10x_StdPeriph_Driver/src/stm32f10x_flash.c **** /* FLASH Mask */
  69:Drivers/STM32F10x_StdPeriph_Driver/src/stm32f10x_flash.c **** #define RDPRT_Mask               ((uint32_t)0x00000002)
  70:Drivers/STM32F10x_StdPeriph_Driver/src/stm32f10x_flash.c **** #define WRP0_Mask                ((uint32_t)0x000000FF)
  71:Drivers/STM32F10x_StdPeriph_Driver/src/stm32f10x_flash.c **** #define WRP1_Mask                ((uint32_t)0x0000FF00)
  72:Drivers/STM32F10x_StdPeriph_Driver/src/stm32f10x_flash.c **** #define WRP2_Mask                ((uint32_t)0x00FF0000)
  73:Drivers/STM32F10x_StdPeriph_Driver/src/stm32f10x_flash.c **** #define WRP3_Mask                ((uint32_t)0xFF000000)
  74:Drivers/STM32F10x_StdPeriph_Driver/src/stm32f10x_flash.c **** #define OB_USER_BFB2             ((uint16_t)0x0008)
  75:Drivers/STM32F10x_StdPeriph_Driver/src/stm32f10x_flash.c **** 
  76:Drivers/STM32F10x_StdPeriph_Driver/src/stm32f10x_flash.c **** /* FLASH Keys */
  77:Drivers/STM32F10x_StdPeriph_Driver/src/stm32f10x_flash.c **** #define RDP_Key                  ((uint16_t)0x00A5)
  78:Drivers/STM32F10x_StdPeriph_Driver/src/stm32f10x_flash.c **** #define FLASH_KEY1               ((uint32_t)0x45670123)
  79:Drivers/STM32F10x_StdPeriph_Driver/src/stm32f10x_flash.c **** #define FLASH_KEY2               ((uint32_t)0xCDEF89AB)
  80:Drivers/STM32F10x_StdPeriph_Driver/src/stm32f10x_flash.c **** 
  81:Drivers/STM32F10x_StdPeriph_Driver/src/stm32f10x_flash.c **** /* FLASH BANK address */
  82:Drivers/STM32F10x_StdPeriph_Driver/src/stm32f10x_flash.c **** #define FLASH_BANK1_END_ADDRESS   ((uint32_t)0x807FFFF)
  83:Drivers/STM32F10x_StdPeriph_Driver/src/stm32f10x_flash.c **** 
  84:Drivers/STM32F10x_StdPeriph_Driver/src/stm32f10x_flash.c **** /* Delay definition */   
  85:Drivers/STM32F10x_StdPeriph_Driver/src/stm32f10x_flash.c **** #define EraseTimeout          ((uint32_t)0x000B0000)
  86:Drivers/STM32F10x_StdPeriph_Driver/src/stm32f10x_flash.c **** #define ProgramTimeout        ((uint32_t)0x00002000)
  87:Drivers/STM32F10x_StdPeriph_Driver/src/stm32f10x_flash.c **** /**
  88:Drivers/STM32F10x_StdPeriph_Driver/src/stm32f10x_flash.c ****   * @}
ARM GAS  /tmp/cc3Mf3YA.s 			page 3


  89:Drivers/STM32F10x_StdPeriph_Driver/src/stm32f10x_flash.c ****   */ 
  90:Drivers/STM32F10x_StdPeriph_Driver/src/stm32f10x_flash.c **** 
  91:Drivers/STM32F10x_StdPeriph_Driver/src/stm32f10x_flash.c **** /** @defgroup FLASH_Private_Macros
  92:Drivers/STM32F10x_StdPeriph_Driver/src/stm32f10x_flash.c ****   * @{
  93:Drivers/STM32F10x_StdPeriph_Driver/src/stm32f10x_flash.c ****   */
  94:Drivers/STM32F10x_StdPeriph_Driver/src/stm32f10x_flash.c **** 
  95:Drivers/STM32F10x_StdPeriph_Driver/src/stm32f10x_flash.c **** /**
  96:Drivers/STM32F10x_StdPeriph_Driver/src/stm32f10x_flash.c ****   * @}
  97:Drivers/STM32F10x_StdPeriph_Driver/src/stm32f10x_flash.c ****   */ 
  98:Drivers/STM32F10x_StdPeriph_Driver/src/stm32f10x_flash.c **** 
  99:Drivers/STM32F10x_StdPeriph_Driver/src/stm32f10x_flash.c **** /** @defgroup FLASH_Private_Variables
 100:Drivers/STM32F10x_StdPeriph_Driver/src/stm32f10x_flash.c ****   * @{
 101:Drivers/STM32F10x_StdPeriph_Driver/src/stm32f10x_flash.c ****   */
 102:Drivers/STM32F10x_StdPeriph_Driver/src/stm32f10x_flash.c **** 
 103:Drivers/STM32F10x_StdPeriph_Driver/src/stm32f10x_flash.c **** /**
 104:Drivers/STM32F10x_StdPeriph_Driver/src/stm32f10x_flash.c ****   * @}
 105:Drivers/STM32F10x_StdPeriph_Driver/src/stm32f10x_flash.c ****   */ 
 106:Drivers/STM32F10x_StdPeriph_Driver/src/stm32f10x_flash.c **** 
 107:Drivers/STM32F10x_StdPeriph_Driver/src/stm32f10x_flash.c **** /** @defgroup FLASH_Private_FunctionPrototypes
 108:Drivers/STM32F10x_StdPeriph_Driver/src/stm32f10x_flash.c ****   * @{
 109:Drivers/STM32F10x_StdPeriph_Driver/src/stm32f10x_flash.c ****   */
 110:Drivers/STM32F10x_StdPeriph_Driver/src/stm32f10x_flash.c ****   
 111:Drivers/STM32F10x_StdPeriph_Driver/src/stm32f10x_flash.c **** /**
 112:Drivers/STM32F10x_StdPeriph_Driver/src/stm32f10x_flash.c ****   * @}
 113:Drivers/STM32F10x_StdPeriph_Driver/src/stm32f10x_flash.c ****   */
 114:Drivers/STM32F10x_StdPeriph_Driver/src/stm32f10x_flash.c **** 
 115:Drivers/STM32F10x_StdPeriph_Driver/src/stm32f10x_flash.c **** /** @defgroup FLASH_Private_Functions
 116:Drivers/STM32F10x_StdPeriph_Driver/src/stm32f10x_flash.c ****   * @{
 117:Drivers/STM32F10x_StdPeriph_Driver/src/stm32f10x_flash.c ****   */
 118:Drivers/STM32F10x_StdPeriph_Driver/src/stm32f10x_flash.c **** 
 119:Drivers/STM32F10x_StdPeriph_Driver/src/stm32f10x_flash.c **** /**
 120:Drivers/STM32F10x_StdPeriph_Driver/src/stm32f10x_flash.c **** @code  
 121:Drivers/STM32F10x_StdPeriph_Driver/src/stm32f10x_flash.c ****  
 122:Drivers/STM32F10x_StdPeriph_Driver/src/stm32f10x_flash.c ****  This driver provides functions to configure and program the Flash memory of all STM32F10x devices,
 123:Drivers/STM32F10x_StdPeriph_Driver/src/stm32f10x_flash.c ****  including the latest STM32F10x_XL density devices. 
 124:Drivers/STM32F10x_StdPeriph_Driver/src/stm32f10x_flash.c **** 
 125:Drivers/STM32F10x_StdPeriph_Driver/src/stm32f10x_flash.c ****  STM32F10x_XL devices feature up to 1 Mbyte with dual bank architecture for read-while-write (RWW) 
 126:Drivers/STM32F10x_StdPeriph_Driver/src/stm32f10x_flash.c ****     - bank1: fixed size of 512 Kbytes (256 pages of 2Kbytes each)
 127:Drivers/STM32F10x_StdPeriph_Driver/src/stm32f10x_flash.c ****     - bank2: up to 512 Kbytes (up to 256 pages of 2Kbytes each)
 128:Drivers/STM32F10x_StdPeriph_Driver/src/stm32f10x_flash.c ****  While other STM32F10x devices features only one bank with memory up to 512 Kbytes.
 129:Drivers/STM32F10x_StdPeriph_Driver/src/stm32f10x_flash.c **** 
 130:Drivers/STM32F10x_StdPeriph_Driver/src/stm32f10x_flash.c ****  In version V3.3.0, some functions were updated and new ones were added to support
 131:Drivers/STM32F10x_StdPeriph_Driver/src/stm32f10x_flash.c ****  STM32F10x_XL devices. Thus some functions manages all devices, while other are 
 132:Drivers/STM32F10x_StdPeriph_Driver/src/stm32f10x_flash.c ****  dedicated for XL devices only.
 133:Drivers/STM32F10x_StdPeriph_Driver/src/stm32f10x_flash.c ****  
 134:Drivers/STM32F10x_StdPeriph_Driver/src/stm32f10x_flash.c ****  The table below presents the list of available functions depending on the used STM32F10x devices. 
 135:Drivers/STM32F10x_StdPeriph_Driver/src/stm32f10x_flash.c ****       
 136:Drivers/STM32F10x_StdPeriph_Driver/src/stm32f10x_flash.c ****    ***************************************************
 137:Drivers/STM32F10x_StdPeriph_Driver/src/stm32f10x_flash.c ****    * Legacy functions used for all STM32F10x devices *
 138:Drivers/STM32F10x_StdPeriph_Driver/src/stm32f10x_flash.c ****    ***************************************************
 139:Drivers/STM32F10x_StdPeriph_Driver/src/stm32f10x_flash.c ****    +-----------------------------------------------------------------------------------------------
 140:Drivers/STM32F10x_StdPeriph_Driver/src/stm32f10x_flash.c ****    |       Functions prototypes         |STM32F10x_XL|Other STM32F10x|    Comments                 
 141:Drivers/STM32F10x_StdPeriph_Driver/src/stm32f10x_flash.c ****    |                                    |   devices  |  devices      |                             
 142:Drivers/STM32F10x_StdPeriph_Driver/src/stm32f10x_flash.c ****    |-----------------------------------------------------------------------------------------------
 143:Drivers/STM32F10x_StdPeriph_Driver/src/stm32f10x_flash.c ****    |FLASH_SetLatency                    |    Yes     |      Yes      | No change                   
 144:Drivers/STM32F10x_StdPeriph_Driver/src/stm32f10x_flash.c ****    |-----------------------------------------------------------------------------------------------
 145:Drivers/STM32F10x_StdPeriph_Driver/src/stm32f10x_flash.c ****    |FLASH_HalfCycleAccessCmd            |    Yes     |      Yes      | No change                   
ARM GAS  /tmp/cc3Mf3YA.s 			page 4


 146:Drivers/STM32F10x_StdPeriph_Driver/src/stm32f10x_flash.c ****    |-----------------------------------------------------------------------------------------------
 147:Drivers/STM32F10x_StdPeriph_Driver/src/stm32f10x_flash.c ****    |FLASH_PrefetchBufferCmd             |    Yes     |      Yes      | No change                   
 148:Drivers/STM32F10x_StdPeriph_Driver/src/stm32f10x_flash.c ****    |-----------------------------------------------------------------------------------------------
 149:Drivers/STM32F10x_StdPeriph_Driver/src/stm32f10x_flash.c ****    |FLASH_Unlock                        |    Yes     |      Yes      | - For STM32F10X_XL devices: 
 150:Drivers/STM32F10x_StdPeriph_Driver/src/stm32f10x_flash.c ****    |                                    |            |               | - For other devices: unlock 
 151:Drivers/STM32F10x_StdPeriph_Driver/src/stm32f10x_flash.c ****    |                                    |            |               |   to FLASH_UnlockBank1 funct
 152:Drivers/STM32F10x_StdPeriph_Driver/src/stm32f10x_flash.c ****    |-----------------------------------------------------------------------------------------------
 153:Drivers/STM32F10x_StdPeriph_Driver/src/stm32f10x_flash.c ****    |FLASH_Lock                          |    Yes     |      Yes      | - For STM32F10X_XL devices: 
 154:Drivers/STM32F10x_StdPeriph_Driver/src/stm32f10x_flash.c ****    |                                    |            |               | - For other devices: lock Ba
 155:Drivers/STM32F10x_StdPeriph_Driver/src/stm32f10x_flash.c ****    |                                    |            |               |   to FLASH_LockBank1 functio
 156:Drivers/STM32F10x_StdPeriph_Driver/src/stm32f10x_flash.c ****    |-----------------------------------------------------------------------------------------------
 157:Drivers/STM32F10x_StdPeriph_Driver/src/stm32f10x_flash.c ****    |FLASH_ErasePage                     |    Yes     |      Yes      | - For STM32F10x_XL devices: 
 158:Drivers/STM32F10x_StdPeriph_Driver/src/stm32f10x_flash.c ****    |                                    |            |               | - For other devices: erase a
 159:Drivers/STM32F10x_StdPeriph_Driver/src/stm32f10x_flash.c ****    |-----------------------------------------------------------------------------------------------
 160:Drivers/STM32F10x_StdPeriph_Driver/src/stm32f10x_flash.c ****    |FLASH_EraseAllPages                 |    Yes     |      Yes      | - For STM32F10x_XL devices: 
 161:Drivers/STM32F10x_StdPeriph_Driver/src/stm32f10x_flash.c ****    |                                    |            |               | - For other devices: erase a
 162:Drivers/STM32F10x_StdPeriph_Driver/src/stm32f10x_flash.c ****    |-----------------------------------------------------------------------------------------------
 163:Drivers/STM32F10x_StdPeriph_Driver/src/stm32f10x_flash.c ****    |FLASH_EraseOptionBytes              |    Yes     |      Yes      | No change                   
 164:Drivers/STM32F10x_StdPeriph_Driver/src/stm32f10x_flash.c ****    |-----------------------------------------------------------------------------------------------
 165:Drivers/STM32F10x_StdPeriph_Driver/src/stm32f10x_flash.c ****    |FLASH_ProgramWord                   |    Yes     |      Yes      | Updated to program up to 1MB
 166:Drivers/STM32F10x_StdPeriph_Driver/src/stm32f10x_flash.c ****    |-----------------------------------------------------------------------------------------------
 167:Drivers/STM32F10x_StdPeriph_Driver/src/stm32f10x_flash.c ****    |FLASH_ProgramHalfWord               |    Yes     |      Yes      | Updated to program up to 1MB
 168:Drivers/STM32F10x_StdPeriph_Driver/src/stm32f10x_flash.c ****    |-----------------------------------------------------------------------------------------------
 169:Drivers/STM32F10x_StdPeriph_Driver/src/stm32f10x_flash.c ****    |FLASH_ProgramOptionByteData         |    Yes     |      Yes      | No change                   
 170:Drivers/STM32F10x_StdPeriph_Driver/src/stm32f10x_flash.c ****    |-----------------------------------------------------------------------------------------------
 171:Drivers/STM32F10x_StdPeriph_Driver/src/stm32f10x_flash.c ****    |FLASH_EnableWriteProtection         |    Yes     |      Yes      | No change                   
 172:Drivers/STM32F10x_StdPeriph_Driver/src/stm32f10x_flash.c ****    |-----------------------------------------------------------------------------------------------
 173:Drivers/STM32F10x_StdPeriph_Driver/src/stm32f10x_flash.c ****    |FLASH_ReadOutProtection             |    Yes     |      Yes      | No change                   
 174:Drivers/STM32F10x_StdPeriph_Driver/src/stm32f10x_flash.c ****    |-----------------------------------------------------------------------------------------------
 175:Drivers/STM32F10x_StdPeriph_Driver/src/stm32f10x_flash.c ****    |FLASH_UserOptionByteConfig          |    Yes     |      Yes      | No change                   
 176:Drivers/STM32F10x_StdPeriph_Driver/src/stm32f10x_flash.c ****    |-----------------------------------------------------------------------------------------------
 177:Drivers/STM32F10x_StdPeriph_Driver/src/stm32f10x_flash.c ****    |FLASH_GetUserOptionByte             |    Yes     |      Yes      | No change                   
 178:Drivers/STM32F10x_StdPeriph_Driver/src/stm32f10x_flash.c ****    |-----------------------------------------------------------------------------------------------
 179:Drivers/STM32F10x_StdPeriph_Driver/src/stm32f10x_flash.c ****    |FLASH_GetWriteProtectionOptionByte  |    Yes     |      Yes      | No change                   
 180:Drivers/STM32F10x_StdPeriph_Driver/src/stm32f10x_flash.c ****    |-----------------------------------------------------------------------------------------------
 181:Drivers/STM32F10x_StdPeriph_Driver/src/stm32f10x_flash.c ****    |FLASH_GetReadOutProtectionStatus    |    Yes     |      Yes      | No change                   
 182:Drivers/STM32F10x_StdPeriph_Driver/src/stm32f10x_flash.c ****    |-----------------------------------------------------------------------------------------------
 183:Drivers/STM32F10x_StdPeriph_Driver/src/stm32f10x_flash.c ****    |FLASH_GetPrefetchBufferStatus       |    Yes     |      Yes      | No change                   
 184:Drivers/STM32F10x_StdPeriph_Driver/src/stm32f10x_flash.c ****    |-----------------------------------------------------------------------------------------------
 185:Drivers/STM32F10x_StdPeriph_Driver/src/stm32f10x_flash.c ****    |FLASH_ITConfig                      |    Yes     |      Yes      | - For STM32F10x_XL devices: 
 186:Drivers/STM32F10x_StdPeriph_Driver/src/stm32f10x_flash.c ****    |                                    |            |               | - For other devices: enable 
 187:Drivers/STM32F10x_StdPeriph_Driver/src/stm32f10x_flash.c ****    |-----------------------------------------------------------------------------------------------
 188:Drivers/STM32F10x_StdPeriph_Driver/src/stm32f10x_flash.c ****    |FLASH_GetFlagStatus                 |    Yes     |      Yes      | - For STM32F10x_XL devices: 
 189:Drivers/STM32F10x_StdPeriph_Driver/src/stm32f10x_flash.c ****    |                                    |            |               | - For other devices: return 
 190:Drivers/STM32F10x_StdPeriph_Driver/src/stm32f10x_flash.c ****    |-----------------------------------------------------------------------------------------------
 191:Drivers/STM32F10x_StdPeriph_Driver/src/stm32f10x_flash.c ****    |FLASH_ClearFlag                     |    Yes     |      Yes      | - For STM32F10x_XL devices: 
 192:Drivers/STM32F10x_StdPeriph_Driver/src/stm32f10x_flash.c ****    |                                    |            |               | - For other devices: clear B
 193:Drivers/STM32F10x_StdPeriph_Driver/src/stm32f10x_flash.c ****    |-----------------------------------------------------------------------------------------------
 194:Drivers/STM32F10x_StdPeriph_Driver/src/stm32f10x_flash.c ****    |FLASH_GetStatus                     |    Yes     |      Yes      | - Return the status of Bank1
 195:Drivers/STM32F10x_StdPeriph_Driver/src/stm32f10x_flash.c ****    |                                    |            |               |   equivalent to FLASH_GetBan
 196:Drivers/STM32F10x_StdPeriph_Driver/src/stm32f10x_flash.c ****    |-----------------------------------------------------------------------------------------------
 197:Drivers/STM32F10x_StdPeriph_Driver/src/stm32f10x_flash.c ****    |FLASH_WaitForLastOperation          |    Yes     |      Yes      | - Wait for Bank1 last operat
 198:Drivers/STM32F10x_StdPeriph_Driver/src/stm32f10x_flash.c ****    |                                    |            |               |   equivalent to: FLASH_WaitF
 199:Drivers/STM32F10x_StdPeriph_Driver/src/stm32f10x_flash.c ****    +-----------------------------------------------------------------------------------------------
 200:Drivers/STM32F10x_StdPeriph_Driver/src/stm32f10x_flash.c **** 
 201:Drivers/STM32F10x_StdPeriph_Driver/src/stm32f10x_flash.c ****    ************************************************************************************************
 202:Drivers/STM32F10x_StdPeriph_Driver/src/stm32f10x_flash.c ****    * New functions used for all STM32F10x devices to manage Bank1:                                 
ARM GAS  /tmp/cc3Mf3YA.s 			page 5


 203:Drivers/STM32F10x_StdPeriph_Driver/src/stm32f10x_flash.c ****    *   - These functions are mainly useful for STM32F10x_XL density devices, to have separate contr
 204:Drivers/STM32F10x_StdPeriph_Driver/src/stm32f10x_flash.c ****    *   - For other devices, these functions are optional (covered by functions listed above)       
 205:Drivers/STM32F10x_StdPeriph_Driver/src/stm32f10x_flash.c ****    ************************************************************************************************
 206:Drivers/STM32F10x_StdPeriph_Driver/src/stm32f10x_flash.c ****    +-----------------------------------------------------------------------------------------------
 207:Drivers/STM32F10x_StdPeriph_Driver/src/stm32f10x_flash.c ****    |       Functions prototypes         |STM32F10x_XL|Other STM32F10x|    Comments                 
 208:Drivers/STM32F10x_StdPeriph_Driver/src/stm32f10x_flash.c ****    |                                    |   devices  |  devices      |                             
 209:Drivers/STM32F10x_StdPeriph_Driver/src/stm32f10x_flash.c ****    |-----------------------------------------------------------------------------------------------
 210:Drivers/STM32F10x_StdPeriph_Driver/src/stm32f10x_flash.c ****    | FLASH_UnlockBank1                  |    Yes     |      Yes      | - Unlock Bank1              
 211:Drivers/STM32F10x_StdPeriph_Driver/src/stm32f10x_flash.c ****    |-----------------------------------------------------------------------------------------------
 212:Drivers/STM32F10x_StdPeriph_Driver/src/stm32f10x_flash.c ****    |FLASH_LockBank1                     |    Yes     |      Yes      | - Lock Bank1                
 213:Drivers/STM32F10x_StdPeriph_Driver/src/stm32f10x_flash.c ****    |-----------------------------------------------------------------------------------------------
 214:Drivers/STM32F10x_StdPeriph_Driver/src/stm32f10x_flash.c ****    | FLASH_EraseAllBank1Pages           |    Yes     |      Yes      | - Erase all pages in Bank1  
 215:Drivers/STM32F10x_StdPeriph_Driver/src/stm32f10x_flash.c ****    |-----------------------------------------------------------------------------------------------
 216:Drivers/STM32F10x_StdPeriph_Driver/src/stm32f10x_flash.c ****    | FLASH_GetBank1Status               |    Yes     |      Yes      | - Return the status of Bank1
 217:Drivers/STM32F10x_StdPeriph_Driver/src/stm32f10x_flash.c ****    |-----------------------------------------------------------------------------------------------
 218:Drivers/STM32F10x_StdPeriph_Driver/src/stm32f10x_flash.c ****    | FLASH_WaitForLastBank1Operation    |    Yes     |      Yes      | - Wait for Bank1 last operat
 219:Drivers/STM32F10x_StdPeriph_Driver/src/stm32f10x_flash.c ****    +-----------------------------------------------------------------------------------------------
 220:Drivers/STM32F10x_StdPeriph_Driver/src/stm32f10x_flash.c **** 
 221:Drivers/STM32F10x_StdPeriph_Driver/src/stm32f10x_flash.c ****    *****************************************************************************
 222:Drivers/STM32F10x_StdPeriph_Driver/src/stm32f10x_flash.c ****    * New Functions used only with STM32F10x_XL density devices to manage Bank2 *
 223:Drivers/STM32F10x_StdPeriph_Driver/src/stm32f10x_flash.c ****    *****************************************************************************
 224:Drivers/STM32F10x_StdPeriph_Driver/src/stm32f10x_flash.c ****    +-----------------------------------------------------------------------------------------------
 225:Drivers/STM32F10x_StdPeriph_Driver/src/stm32f10x_flash.c ****    |       Functions prototypes         |STM32F10x_XL|Other STM32F10x|    Comments                 
 226:Drivers/STM32F10x_StdPeriph_Driver/src/stm32f10x_flash.c ****    |                                    |   devices  |  devices      |                             
 227:Drivers/STM32F10x_StdPeriph_Driver/src/stm32f10x_flash.c ****    |-----------------------------------------------------------------------------------------------
 228:Drivers/STM32F10x_StdPeriph_Driver/src/stm32f10x_flash.c ****    | FLASH_UnlockBank2                  |    Yes     |      No       | - Unlock Bank2              
 229:Drivers/STM32F10x_StdPeriph_Driver/src/stm32f10x_flash.c ****    |-----------------------------------------------------------------------------------------------
 230:Drivers/STM32F10x_StdPeriph_Driver/src/stm32f10x_flash.c ****    |FLASH_LockBank2                     |    Yes     |      No       | - Lock Bank2                
 231:Drivers/STM32F10x_StdPeriph_Driver/src/stm32f10x_flash.c ****    |-----------------------------------------------------------------------------------------------
 232:Drivers/STM32F10x_StdPeriph_Driver/src/stm32f10x_flash.c ****    | FLASH_EraseAllBank2Pages           |    Yes     |      No       | - Erase all pages in Bank2  
 233:Drivers/STM32F10x_StdPeriph_Driver/src/stm32f10x_flash.c ****    |-----------------------------------------------------------------------------------------------
 234:Drivers/STM32F10x_StdPeriph_Driver/src/stm32f10x_flash.c ****    | FLASH_GetBank2Status               |    Yes     |      No       | - Return the status of Bank2
 235:Drivers/STM32F10x_StdPeriph_Driver/src/stm32f10x_flash.c ****    |-----------------------------------------------------------------------------------------------
 236:Drivers/STM32F10x_StdPeriph_Driver/src/stm32f10x_flash.c ****    | FLASH_WaitForLastBank2Operation    |    Yes     |      No       | - Wait for Bank2 last operat
 237:Drivers/STM32F10x_StdPeriph_Driver/src/stm32f10x_flash.c ****    |-----------------------------------------------------------------------------------------------
 238:Drivers/STM32F10x_StdPeriph_Driver/src/stm32f10x_flash.c ****    | FLASH_BootConfig                   |    Yes     |      No       | - Configure to boot from Ban
 239:Drivers/STM32F10x_StdPeriph_Driver/src/stm32f10x_flash.c ****    +-----------------------------------------------------------------------------------------------
 240:Drivers/STM32F10x_StdPeriph_Driver/src/stm32f10x_flash.c **** @endcode
 241:Drivers/STM32F10x_StdPeriph_Driver/src/stm32f10x_flash.c **** */
 242:Drivers/STM32F10x_StdPeriph_Driver/src/stm32f10x_flash.c **** 
 243:Drivers/STM32F10x_StdPeriph_Driver/src/stm32f10x_flash.c **** 
 244:Drivers/STM32F10x_StdPeriph_Driver/src/stm32f10x_flash.c **** /**
 245:Drivers/STM32F10x_StdPeriph_Driver/src/stm32f10x_flash.c ****   * @brief  Sets the code latency value.
 246:Drivers/STM32F10x_StdPeriph_Driver/src/stm32f10x_flash.c ****   * @note   This function can be used for all STM32F10x devices.
 247:Drivers/STM32F10x_StdPeriph_Driver/src/stm32f10x_flash.c ****   * @param  FLASH_Latency: specifies the FLASH Latency value.
 248:Drivers/STM32F10x_StdPeriph_Driver/src/stm32f10x_flash.c ****   *   This parameter can be one of the following values:
 249:Drivers/STM32F10x_StdPeriph_Driver/src/stm32f10x_flash.c ****   *     @arg FLASH_Latency_0: FLASH Zero Latency cycle
 250:Drivers/STM32F10x_StdPeriph_Driver/src/stm32f10x_flash.c ****   *     @arg FLASH_Latency_1: FLASH One Latency cycle
 251:Drivers/STM32F10x_StdPeriph_Driver/src/stm32f10x_flash.c ****   *     @arg FLASH_Latency_2: FLASH Two Latency cycles
 252:Drivers/STM32F10x_StdPeriph_Driver/src/stm32f10x_flash.c ****   * @retval None
 253:Drivers/STM32F10x_StdPeriph_Driver/src/stm32f10x_flash.c ****   */
 254:Drivers/STM32F10x_StdPeriph_Driver/src/stm32f10x_flash.c **** void FLASH_SetLatency(uint32_t FLASH_Latency)
 255:Drivers/STM32F10x_StdPeriph_Driver/src/stm32f10x_flash.c **** {
  28              		.loc 1 255 1 view -0
  29              		.cfi_startproc
  30              		@ args = 0, pretend = 0, frame = 0
  31              		@ frame_needed = 0, uses_anonymous_args = 0
ARM GAS  /tmp/cc3Mf3YA.s 			page 6


  32              		@ link register save eliminated.
 256:Drivers/STM32F10x_StdPeriph_Driver/src/stm32f10x_flash.c ****   uint32_t tmpreg = 0;
  33              		.loc 1 256 3 view .LVU1
 257:Drivers/STM32F10x_StdPeriph_Driver/src/stm32f10x_flash.c ****   
 258:Drivers/STM32F10x_StdPeriph_Driver/src/stm32f10x_flash.c ****   /* Check the parameters */
 259:Drivers/STM32F10x_StdPeriph_Driver/src/stm32f10x_flash.c ****   assert_param(IS_FLASH_LATENCY(FLASH_Latency));
  34              		.loc 1 259 3 view .LVU2
 260:Drivers/STM32F10x_StdPeriph_Driver/src/stm32f10x_flash.c ****   
 261:Drivers/STM32F10x_StdPeriph_Driver/src/stm32f10x_flash.c ****   /* Read the ACR register */
 262:Drivers/STM32F10x_StdPeriph_Driver/src/stm32f10x_flash.c ****   tmpreg = FLASH->ACR;  
  35              		.loc 1 262 3 view .LVU3
  36              		.loc 1 262 10 is_stmt 0 view .LVU4
  37 0000 034A     		ldr	r2, .L2
  38 0002 1368     		ldr	r3, [r2]
  39              	.LVL1:
 263:Drivers/STM32F10x_StdPeriph_Driver/src/stm32f10x_flash.c ****   
 264:Drivers/STM32F10x_StdPeriph_Driver/src/stm32f10x_flash.c ****   /* Sets the Latency value */
 265:Drivers/STM32F10x_StdPeriph_Driver/src/stm32f10x_flash.c ****   tmpreg &= ACR_LATENCY_Mask;
  40              		.loc 1 265 3 is_stmt 1 view .LVU5
  41              		.loc 1 265 10 is_stmt 0 view .LVU6
  42 0004 03F03803 		and	r3, r3, #56
  43              	.LVL2:
 266:Drivers/STM32F10x_StdPeriph_Driver/src/stm32f10x_flash.c ****   tmpreg |= FLASH_Latency;
  44              		.loc 1 266 3 is_stmt 1 view .LVU7
  45              		.loc 1 266 10 is_stmt 0 view .LVU8
  46 0008 0343     		orrs	r3, r3, r0
  47              	.LVL3:
 267:Drivers/STM32F10x_StdPeriph_Driver/src/stm32f10x_flash.c ****   
 268:Drivers/STM32F10x_StdPeriph_Driver/src/stm32f10x_flash.c ****   /* Write the ACR register */
 269:Drivers/STM32F10x_StdPeriph_Driver/src/stm32f10x_flash.c ****   FLASH->ACR = tmpreg;
  48              		.loc 1 269 3 is_stmt 1 view .LVU9
  49              		.loc 1 269 14 is_stmt 0 view .LVU10
  50 000a 1360     		str	r3, [r2]
 270:Drivers/STM32F10x_StdPeriph_Driver/src/stm32f10x_flash.c **** }
  51              		.loc 1 270 1 view .LVU11
  52 000c 7047     		bx	lr
  53              	.L3:
  54 000e 00BF     		.align	2
  55              	.L2:
  56 0010 00200240 		.word	1073881088
  57              		.cfi_endproc
  58              	.LFE65:
  60              		.section	.text.FLASH_HalfCycleAccessCmd,"ax",%progbits
  61              		.align	1
  62              		.global	FLASH_HalfCycleAccessCmd
  63              		.syntax unified
  64              		.thumb
  65              		.thumb_func
  67              	FLASH_HalfCycleAccessCmd:
  68              	.LVL4:
  69              	.LFB66:
 271:Drivers/STM32F10x_StdPeriph_Driver/src/stm32f10x_flash.c **** 
 272:Drivers/STM32F10x_StdPeriph_Driver/src/stm32f10x_flash.c **** /**
 273:Drivers/STM32F10x_StdPeriph_Driver/src/stm32f10x_flash.c ****   * @brief  Enables or disables the Half cycle flash access.
 274:Drivers/STM32F10x_StdPeriph_Driver/src/stm32f10x_flash.c ****   * @note   This function can be used for all STM32F10x devices.
 275:Drivers/STM32F10x_StdPeriph_Driver/src/stm32f10x_flash.c ****   * @param  FLASH_HalfCycleAccess: specifies the FLASH Half cycle Access mode.
 276:Drivers/STM32F10x_StdPeriph_Driver/src/stm32f10x_flash.c ****   *   This parameter can be one of the following values:
ARM GAS  /tmp/cc3Mf3YA.s 			page 7


 277:Drivers/STM32F10x_StdPeriph_Driver/src/stm32f10x_flash.c ****   *     @arg FLASH_HalfCycleAccess_Enable: FLASH Half Cycle Enable
 278:Drivers/STM32F10x_StdPeriph_Driver/src/stm32f10x_flash.c ****   *     @arg FLASH_HalfCycleAccess_Disable: FLASH Half Cycle Disable
 279:Drivers/STM32F10x_StdPeriph_Driver/src/stm32f10x_flash.c ****   * @retval None
 280:Drivers/STM32F10x_StdPeriph_Driver/src/stm32f10x_flash.c ****   */
 281:Drivers/STM32F10x_StdPeriph_Driver/src/stm32f10x_flash.c **** void FLASH_HalfCycleAccessCmd(uint32_t FLASH_HalfCycleAccess)
 282:Drivers/STM32F10x_StdPeriph_Driver/src/stm32f10x_flash.c **** {
  70              		.loc 1 282 1 is_stmt 1 view -0
  71              		.cfi_startproc
  72              		@ args = 0, pretend = 0, frame = 0
  73              		@ frame_needed = 0, uses_anonymous_args = 0
  74              		@ link register save eliminated.
 283:Drivers/STM32F10x_StdPeriph_Driver/src/stm32f10x_flash.c ****   /* Check the parameters */
 284:Drivers/STM32F10x_StdPeriph_Driver/src/stm32f10x_flash.c ****   assert_param(IS_FLASH_HALFCYCLEACCESS_STATE(FLASH_HalfCycleAccess));
  75              		.loc 1 284 3 view .LVU13
 285:Drivers/STM32F10x_StdPeriph_Driver/src/stm32f10x_flash.c ****   
 286:Drivers/STM32F10x_StdPeriph_Driver/src/stm32f10x_flash.c ****   /* Enable or disable the Half cycle access */
 287:Drivers/STM32F10x_StdPeriph_Driver/src/stm32f10x_flash.c ****   FLASH->ACR &= ACR_HLFCYA_Mask;
  76              		.loc 1 287 3 view .LVU14
  77              		.loc 1 287 8 is_stmt 0 view .LVU15
  78 0000 044B     		ldr	r3, .L5
  79 0002 1A68     		ldr	r2, [r3]
  80              		.loc 1 287 14 view .LVU16
  81 0004 22F00802 		bic	r2, r2, #8
  82 0008 1A60     		str	r2, [r3]
 288:Drivers/STM32F10x_StdPeriph_Driver/src/stm32f10x_flash.c ****   FLASH->ACR |= FLASH_HalfCycleAccess;
  83              		.loc 1 288 3 is_stmt 1 view .LVU17
  84              		.loc 1 288 8 is_stmt 0 view .LVU18
  85 000a 1A68     		ldr	r2, [r3]
  86              		.loc 1 288 14 view .LVU19
  87 000c 0243     		orrs	r2, r2, r0
  88 000e 1A60     		str	r2, [r3]
 289:Drivers/STM32F10x_StdPeriph_Driver/src/stm32f10x_flash.c **** }
  89              		.loc 1 289 1 view .LVU20
  90 0010 7047     		bx	lr
  91              	.L6:
  92 0012 00BF     		.align	2
  93              	.L5:
  94 0014 00200240 		.word	1073881088
  95              		.cfi_endproc
  96              	.LFE66:
  98              		.section	.text.FLASH_PrefetchBufferCmd,"ax",%progbits
  99              		.align	1
 100              		.global	FLASH_PrefetchBufferCmd
 101              		.syntax unified
 102              		.thumb
 103              		.thumb_func
 105              	FLASH_PrefetchBufferCmd:
 106              	.LVL5:
 107              	.LFB67:
 290:Drivers/STM32F10x_StdPeriph_Driver/src/stm32f10x_flash.c **** 
 291:Drivers/STM32F10x_StdPeriph_Driver/src/stm32f10x_flash.c **** /**
 292:Drivers/STM32F10x_StdPeriph_Driver/src/stm32f10x_flash.c ****   * @brief  Enables or disables the Prefetch Buffer.
 293:Drivers/STM32F10x_StdPeriph_Driver/src/stm32f10x_flash.c ****   * @note   This function can be used for all STM32F10x devices.
 294:Drivers/STM32F10x_StdPeriph_Driver/src/stm32f10x_flash.c ****   * @param  FLASH_PrefetchBuffer: specifies the Prefetch buffer status.
 295:Drivers/STM32F10x_StdPeriph_Driver/src/stm32f10x_flash.c ****   *   This parameter can be one of the following values:
 296:Drivers/STM32F10x_StdPeriph_Driver/src/stm32f10x_flash.c ****   *     @arg FLASH_PrefetchBuffer_Enable: FLASH Prefetch Buffer Enable
 297:Drivers/STM32F10x_StdPeriph_Driver/src/stm32f10x_flash.c ****   *     @arg FLASH_PrefetchBuffer_Disable: FLASH Prefetch Buffer Disable
ARM GAS  /tmp/cc3Mf3YA.s 			page 8


 298:Drivers/STM32F10x_StdPeriph_Driver/src/stm32f10x_flash.c ****   * @retval None
 299:Drivers/STM32F10x_StdPeriph_Driver/src/stm32f10x_flash.c ****   */
 300:Drivers/STM32F10x_StdPeriph_Driver/src/stm32f10x_flash.c **** void FLASH_PrefetchBufferCmd(uint32_t FLASH_PrefetchBuffer)
 301:Drivers/STM32F10x_StdPeriph_Driver/src/stm32f10x_flash.c **** {
 108              		.loc 1 301 1 is_stmt 1 view -0
 109              		.cfi_startproc
 110              		@ args = 0, pretend = 0, frame = 0
 111              		@ frame_needed = 0, uses_anonymous_args = 0
 112              		@ link register save eliminated.
 302:Drivers/STM32F10x_StdPeriph_Driver/src/stm32f10x_flash.c ****   /* Check the parameters */
 303:Drivers/STM32F10x_StdPeriph_Driver/src/stm32f10x_flash.c ****   assert_param(IS_FLASH_PREFETCHBUFFER_STATE(FLASH_PrefetchBuffer));
 113              		.loc 1 303 3 view .LVU22
 304:Drivers/STM32F10x_StdPeriph_Driver/src/stm32f10x_flash.c ****   
 305:Drivers/STM32F10x_StdPeriph_Driver/src/stm32f10x_flash.c ****   /* Enable or disable the Prefetch Buffer */
 306:Drivers/STM32F10x_StdPeriph_Driver/src/stm32f10x_flash.c ****   FLASH->ACR &= ACR_PRFTBE_Mask;
 114              		.loc 1 306 3 view .LVU23
 115              		.loc 1 306 8 is_stmt 0 view .LVU24
 116 0000 044B     		ldr	r3, .L8
 117 0002 1A68     		ldr	r2, [r3]
 118              		.loc 1 306 14 view .LVU25
 119 0004 22F01002 		bic	r2, r2, #16
 120 0008 1A60     		str	r2, [r3]
 307:Drivers/STM32F10x_StdPeriph_Driver/src/stm32f10x_flash.c ****   FLASH->ACR |= FLASH_PrefetchBuffer;
 121              		.loc 1 307 3 is_stmt 1 view .LVU26
 122              		.loc 1 307 8 is_stmt 0 view .LVU27
 123 000a 1A68     		ldr	r2, [r3]
 124              		.loc 1 307 14 view .LVU28
 125 000c 0243     		orrs	r2, r2, r0
 126 000e 1A60     		str	r2, [r3]
 308:Drivers/STM32F10x_StdPeriph_Driver/src/stm32f10x_flash.c **** }
 127              		.loc 1 308 1 view .LVU29
 128 0010 7047     		bx	lr
 129              	.L9:
 130 0012 00BF     		.align	2
 131              	.L8:
 132 0014 00200240 		.word	1073881088
 133              		.cfi_endproc
 134              	.LFE67:
 136              		.section	.text.FLASH_Unlock,"ax",%progbits
 137              		.align	1
 138              		.global	FLASH_Unlock
 139              		.syntax unified
 140              		.thumb
 141              		.thumb_func
 143              	FLASH_Unlock:
 144              	.LFB68:
 309:Drivers/STM32F10x_StdPeriph_Driver/src/stm32f10x_flash.c **** 
 310:Drivers/STM32F10x_StdPeriph_Driver/src/stm32f10x_flash.c **** /**
 311:Drivers/STM32F10x_StdPeriph_Driver/src/stm32f10x_flash.c ****   * @brief  Unlocks the FLASH Program Erase Controller.
 312:Drivers/STM32F10x_StdPeriph_Driver/src/stm32f10x_flash.c ****   * @note   This function can be used for all STM32F10x devices.
 313:Drivers/STM32F10x_StdPeriph_Driver/src/stm32f10x_flash.c ****   *         - For STM32F10X_XL devices this function unlocks Bank1 and Bank2.
 314:Drivers/STM32F10x_StdPeriph_Driver/src/stm32f10x_flash.c ****   *         - For all other devices it unlocks Bank1 and it is equivalent 
 315:Drivers/STM32F10x_StdPeriph_Driver/src/stm32f10x_flash.c ****   *           to FLASH_UnlockBank1 function.. 
 316:Drivers/STM32F10x_StdPeriph_Driver/src/stm32f10x_flash.c ****   * @param  None
 317:Drivers/STM32F10x_StdPeriph_Driver/src/stm32f10x_flash.c ****   * @retval None
 318:Drivers/STM32F10x_StdPeriph_Driver/src/stm32f10x_flash.c ****   */
 319:Drivers/STM32F10x_StdPeriph_Driver/src/stm32f10x_flash.c **** void FLASH_Unlock(void)
ARM GAS  /tmp/cc3Mf3YA.s 			page 9


 320:Drivers/STM32F10x_StdPeriph_Driver/src/stm32f10x_flash.c **** {
 145              		.loc 1 320 1 is_stmt 1 view -0
 146              		.cfi_startproc
 147              		@ args = 0, pretend = 0, frame = 0
 148              		@ frame_needed = 0, uses_anonymous_args = 0
 149              		@ link register save eliminated.
 321:Drivers/STM32F10x_StdPeriph_Driver/src/stm32f10x_flash.c ****   /* Authorize the FPEC of Bank1 Access */
 322:Drivers/STM32F10x_StdPeriph_Driver/src/stm32f10x_flash.c ****   FLASH->KEYR = FLASH_KEY1;
 150              		.loc 1 322 3 view .LVU31
 151              		.loc 1 322 15 is_stmt 0 view .LVU32
 152 0000 034B     		ldr	r3, .L11
 153 0002 044A     		ldr	r2, .L11+4
 154 0004 5A60     		str	r2, [r3, #4]
 323:Drivers/STM32F10x_StdPeriph_Driver/src/stm32f10x_flash.c ****   FLASH->KEYR = FLASH_KEY2;
 155              		.loc 1 323 3 is_stmt 1 view .LVU33
 156              		.loc 1 323 15 is_stmt 0 view .LVU34
 157 0006 02F18832 		add	r2, r2, #-2004318072
 158 000a 5A60     		str	r2, [r3, #4]
 324:Drivers/STM32F10x_StdPeriph_Driver/src/stm32f10x_flash.c **** 
 325:Drivers/STM32F10x_StdPeriph_Driver/src/stm32f10x_flash.c **** #ifdef STM32F10X_XL
 326:Drivers/STM32F10x_StdPeriph_Driver/src/stm32f10x_flash.c ****   /* Authorize the FPEC of Bank2 Access */
 327:Drivers/STM32F10x_StdPeriph_Driver/src/stm32f10x_flash.c ****   FLASH->KEYR2 = FLASH_KEY1;
 328:Drivers/STM32F10x_StdPeriph_Driver/src/stm32f10x_flash.c ****   FLASH->KEYR2 = FLASH_KEY2;
 329:Drivers/STM32F10x_StdPeriph_Driver/src/stm32f10x_flash.c **** #endif /* STM32F10X_XL */
 330:Drivers/STM32F10x_StdPeriph_Driver/src/stm32f10x_flash.c **** }
 159              		.loc 1 330 1 view .LVU35
 160 000c 7047     		bx	lr
 161              	.L12:
 162 000e 00BF     		.align	2
 163              	.L11:
 164 0010 00200240 		.word	1073881088
 165 0014 23016745 		.word	1164378403
 166              		.cfi_endproc
 167              	.LFE68:
 169              		.section	.text.FLASH_UnlockBank1,"ax",%progbits
 170              		.align	1
 171              		.global	FLASH_UnlockBank1
 172              		.syntax unified
 173              		.thumb
 174              		.thumb_func
 176              	FLASH_UnlockBank1:
 177              	.LFB69:
 331:Drivers/STM32F10x_StdPeriph_Driver/src/stm32f10x_flash.c **** /**
 332:Drivers/STM32F10x_StdPeriph_Driver/src/stm32f10x_flash.c ****   * @brief  Unlocks the FLASH Bank1 Program Erase Controller.
 333:Drivers/STM32F10x_StdPeriph_Driver/src/stm32f10x_flash.c ****   * @note   This function can be used for all STM32F10x devices.
 334:Drivers/STM32F10x_StdPeriph_Driver/src/stm32f10x_flash.c ****   *         - For STM32F10X_XL devices this function unlocks Bank1.
 335:Drivers/STM32F10x_StdPeriph_Driver/src/stm32f10x_flash.c ****   *         - For all other devices it unlocks Bank1 and it is 
 336:Drivers/STM32F10x_StdPeriph_Driver/src/stm32f10x_flash.c ****   *           equivalent to FLASH_Unlock function.
 337:Drivers/STM32F10x_StdPeriph_Driver/src/stm32f10x_flash.c ****   * @param  None
 338:Drivers/STM32F10x_StdPeriph_Driver/src/stm32f10x_flash.c ****   * @retval None
 339:Drivers/STM32F10x_StdPeriph_Driver/src/stm32f10x_flash.c ****   */
 340:Drivers/STM32F10x_StdPeriph_Driver/src/stm32f10x_flash.c **** void FLASH_UnlockBank1(void)
 341:Drivers/STM32F10x_StdPeriph_Driver/src/stm32f10x_flash.c **** {
 178              		.loc 1 341 1 is_stmt 1 view -0
 179              		.cfi_startproc
 180              		@ args = 0, pretend = 0, frame = 0
 181              		@ frame_needed = 0, uses_anonymous_args = 0
ARM GAS  /tmp/cc3Mf3YA.s 			page 10


 182              		@ link register save eliminated.
 342:Drivers/STM32F10x_StdPeriph_Driver/src/stm32f10x_flash.c ****   /* Authorize the FPEC of Bank1 Access */
 343:Drivers/STM32F10x_StdPeriph_Driver/src/stm32f10x_flash.c ****   FLASH->KEYR = FLASH_KEY1;
 183              		.loc 1 343 3 view .LVU37
 184              		.loc 1 343 15 is_stmt 0 view .LVU38
 185 0000 034B     		ldr	r3, .L14
 186 0002 044A     		ldr	r2, .L14+4
 187 0004 5A60     		str	r2, [r3, #4]
 344:Drivers/STM32F10x_StdPeriph_Driver/src/stm32f10x_flash.c ****   FLASH->KEYR = FLASH_KEY2;
 188              		.loc 1 344 3 is_stmt 1 view .LVU39
 189              		.loc 1 344 15 is_stmt 0 view .LVU40
 190 0006 02F18832 		add	r2, r2, #-2004318072
 191 000a 5A60     		str	r2, [r3, #4]
 345:Drivers/STM32F10x_StdPeriph_Driver/src/stm32f10x_flash.c **** }
 192              		.loc 1 345 1 view .LVU41
 193 000c 7047     		bx	lr
 194              	.L15:
 195 000e 00BF     		.align	2
 196              	.L14:
 197 0010 00200240 		.word	1073881088
 198 0014 23016745 		.word	1164378403
 199              		.cfi_endproc
 200              	.LFE69:
 202              		.section	.text.FLASH_Lock,"ax",%progbits
 203              		.align	1
 204              		.global	FLASH_Lock
 205              		.syntax unified
 206              		.thumb
 207              		.thumb_func
 209              	FLASH_Lock:
 210              	.LFB70:
 346:Drivers/STM32F10x_StdPeriph_Driver/src/stm32f10x_flash.c **** 
 347:Drivers/STM32F10x_StdPeriph_Driver/src/stm32f10x_flash.c **** #ifdef STM32F10X_XL
 348:Drivers/STM32F10x_StdPeriph_Driver/src/stm32f10x_flash.c **** /**
 349:Drivers/STM32F10x_StdPeriph_Driver/src/stm32f10x_flash.c ****   * @brief  Unlocks the FLASH Bank2 Program Erase Controller.
 350:Drivers/STM32F10x_StdPeriph_Driver/src/stm32f10x_flash.c ****   * @note   This function can be used only for STM32F10X_XL density devices.
 351:Drivers/STM32F10x_StdPeriph_Driver/src/stm32f10x_flash.c ****   * @param  None
 352:Drivers/STM32F10x_StdPeriph_Driver/src/stm32f10x_flash.c ****   * @retval None
 353:Drivers/STM32F10x_StdPeriph_Driver/src/stm32f10x_flash.c ****   */
 354:Drivers/STM32F10x_StdPeriph_Driver/src/stm32f10x_flash.c **** void FLASH_UnlockBank2(void)
 355:Drivers/STM32F10x_StdPeriph_Driver/src/stm32f10x_flash.c **** {
 356:Drivers/STM32F10x_StdPeriph_Driver/src/stm32f10x_flash.c ****   /* Authorize the FPEC of Bank2 Access */
 357:Drivers/STM32F10x_StdPeriph_Driver/src/stm32f10x_flash.c ****   FLASH->KEYR2 = FLASH_KEY1;
 358:Drivers/STM32F10x_StdPeriph_Driver/src/stm32f10x_flash.c ****   FLASH->KEYR2 = FLASH_KEY2;
 359:Drivers/STM32F10x_StdPeriph_Driver/src/stm32f10x_flash.c **** 
 360:Drivers/STM32F10x_StdPeriph_Driver/src/stm32f10x_flash.c **** }
 361:Drivers/STM32F10x_StdPeriph_Driver/src/stm32f10x_flash.c **** #endif /* STM32F10X_XL */
 362:Drivers/STM32F10x_StdPeriph_Driver/src/stm32f10x_flash.c **** 
 363:Drivers/STM32F10x_StdPeriph_Driver/src/stm32f10x_flash.c **** /**
 364:Drivers/STM32F10x_StdPeriph_Driver/src/stm32f10x_flash.c ****   * @brief  Locks the FLASH Program Erase Controller.
 365:Drivers/STM32F10x_StdPeriph_Driver/src/stm32f10x_flash.c ****   * @note   This function can be used for all STM32F10x devices.
 366:Drivers/STM32F10x_StdPeriph_Driver/src/stm32f10x_flash.c ****   *         - For STM32F10X_XL devices this function Locks Bank1 and Bank2.
 367:Drivers/STM32F10x_StdPeriph_Driver/src/stm32f10x_flash.c ****   *         - For all other devices it Locks Bank1 and it is equivalent 
 368:Drivers/STM32F10x_StdPeriph_Driver/src/stm32f10x_flash.c ****   *           to FLASH_LockBank1 function.
 369:Drivers/STM32F10x_StdPeriph_Driver/src/stm32f10x_flash.c ****   * @param  None
 370:Drivers/STM32F10x_StdPeriph_Driver/src/stm32f10x_flash.c ****   * @retval None
 371:Drivers/STM32F10x_StdPeriph_Driver/src/stm32f10x_flash.c ****   */
ARM GAS  /tmp/cc3Mf3YA.s 			page 11


 372:Drivers/STM32F10x_StdPeriph_Driver/src/stm32f10x_flash.c **** void FLASH_Lock(void)
 373:Drivers/STM32F10x_StdPeriph_Driver/src/stm32f10x_flash.c **** {
 211              		.loc 1 373 1 is_stmt 1 view -0
 212              		.cfi_startproc
 213              		@ args = 0, pretend = 0, frame = 0
 214              		@ frame_needed = 0, uses_anonymous_args = 0
 215              		@ link register save eliminated.
 374:Drivers/STM32F10x_StdPeriph_Driver/src/stm32f10x_flash.c ****   /* Set the Lock Bit to lock the FPEC and the CR of  Bank1 */
 375:Drivers/STM32F10x_StdPeriph_Driver/src/stm32f10x_flash.c ****   FLASH->CR |= CR_LOCK_Set;
 216              		.loc 1 375 3 view .LVU43
 217              		.loc 1 375 8 is_stmt 0 view .LVU44
 218 0000 024A     		ldr	r2, .L17
 219 0002 1369     		ldr	r3, [r2, #16]
 220              		.loc 1 375 13 view .LVU45
 221 0004 43F08003 		orr	r3, r3, #128
 222 0008 1361     		str	r3, [r2, #16]
 376:Drivers/STM32F10x_StdPeriph_Driver/src/stm32f10x_flash.c **** 
 377:Drivers/STM32F10x_StdPeriph_Driver/src/stm32f10x_flash.c **** #ifdef STM32F10X_XL
 378:Drivers/STM32F10x_StdPeriph_Driver/src/stm32f10x_flash.c ****   /* Set the Lock Bit to lock the FPEC and the CR of  Bank2 */
 379:Drivers/STM32F10x_StdPeriph_Driver/src/stm32f10x_flash.c ****   FLASH->CR2 |= CR_LOCK_Set;
 380:Drivers/STM32F10x_StdPeriph_Driver/src/stm32f10x_flash.c **** #endif /* STM32F10X_XL */
 381:Drivers/STM32F10x_StdPeriph_Driver/src/stm32f10x_flash.c **** }
 223              		.loc 1 381 1 view .LVU46
 224 000a 7047     		bx	lr
 225              	.L18:
 226              		.align	2
 227              	.L17:
 228 000c 00200240 		.word	1073881088
 229              		.cfi_endproc
 230              	.LFE70:
 232              		.section	.text.FLASH_LockBank1,"ax",%progbits
 233              		.align	1
 234              		.global	FLASH_LockBank1
 235              		.syntax unified
 236              		.thumb
 237              		.thumb_func
 239              	FLASH_LockBank1:
 240              	.LFB71:
 382:Drivers/STM32F10x_StdPeriph_Driver/src/stm32f10x_flash.c **** 
 383:Drivers/STM32F10x_StdPeriph_Driver/src/stm32f10x_flash.c **** /**
 384:Drivers/STM32F10x_StdPeriph_Driver/src/stm32f10x_flash.c ****   * @brief  Locks the FLASH Bank1 Program Erase Controller.
 385:Drivers/STM32F10x_StdPeriph_Driver/src/stm32f10x_flash.c ****   * @note   this function can be used for all STM32F10x devices.
 386:Drivers/STM32F10x_StdPeriph_Driver/src/stm32f10x_flash.c ****   *         - For STM32F10X_XL devices this function Locks Bank1.
 387:Drivers/STM32F10x_StdPeriph_Driver/src/stm32f10x_flash.c ****   *         - For all other devices it Locks Bank1 and it is equivalent 
 388:Drivers/STM32F10x_StdPeriph_Driver/src/stm32f10x_flash.c ****   *           to FLASH_Lock function.
 389:Drivers/STM32F10x_StdPeriph_Driver/src/stm32f10x_flash.c ****   * @param  None
 390:Drivers/STM32F10x_StdPeriph_Driver/src/stm32f10x_flash.c ****   * @retval None
 391:Drivers/STM32F10x_StdPeriph_Driver/src/stm32f10x_flash.c ****   */
 392:Drivers/STM32F10x_StdPeriph_Driver/src/stm32f10x_flash.c **** void FLASH_LockBank1(void)
 393:Drivers/STM32F10x_StdPeriph_Driver/src/stm32f10x_flash.c **** {
 241              		.loc 1 393 1 is_stmt 1 view -0
 242              		.cfi_startproc
 243              		@ args = 0, pretend = 0, frame = 0
 244              		@ frame_needed = 0, uses_anonymous_args = 0
 245              		@ link register save eliminated.
 394:Drivers/STM32F10x_StdPeriph_Driver/src/stm32f10x_flash.c ****   /* Set the Lock Bit to lock the FPEC and the CR of  Bank1 */
 395:Drivers/STM32F10x_StdPeriph_Driver/src/stm32f10x_flash.c ****   FLASH->CR |= CR_LOCK_Set;
ARM GAS  /tmp/cc3Mf3YA.s 			page 12


 246              		.loc 1 395 3 view .LVU48
 247              		.loc 1 395 8 is_stmt 0 view .LVU49
 248 0000 024A     		ldr	r2, .L20
 249 0002 1369     		ldr	r3, [r2, #16]
 250              		.loc 1 395 13 view .LVU50
 251 0004 43F08003 		orr	r3, r3, #128
 252 0008 1361     		str	r3, [r2, #16]
 396:Drivers/STM32F10x_StdPeriph_Driver/src/stm32f10x_flash.c **** }
 253              		.loc 1 396 1 view .LVU51
 254 000a 7047     		bx	lr
 255              	.L21:
 256              		.align	2
 257              	.L20:
 258 000c 00200240 		.word	1073881088
 259              		.cfi_endproc
 260              	.LFE71:
 262              		.section	.text.FLASH_GetUserOptionByte,"ax",%progbits
 263              		.align	1
 264              		.global	FLASH_GetUserOptionByte
 265              		.syntax unified
 266              		.thumb
 267              		.thumb_func
 269              	FLASH_GetUserOptionByte:
 270              	.LFB82:
 397:Drivers/STM32F10x_StdPeriph_Driver/src/stm32f10x_flash.c **** 
 398:Drivers/STM32F10x_StdPeriph_Driver/src/stm32f10x_flash.c **** #ifdef STM32F10X_XL
 399:Drivers/STM32F10x_StdPeriph_Driver/src/stm32f10x_flash.c **** /**
 400:Drivers/STM32F10x_StdPeriph_Driver/src/stm32f10x_flash.c ****   * @brief  Locks the FLASH Bank2 Program Erase Controller.
 401:Drivers/STM32F10x_StdPeriph_Driver/src/stm32f10x_flash.c ****   * @note   This function can be used only for STM32F10X_XL density devices.
 402:Drivers/STM32F10x_StdPeriph_Driver/src/stm32f10x_flash.c ****   * @param  None
 403:Drivers/STM32F10x_StdPeriph_Driver/src/stm32f10x_flash.c ****   * @retval None
 404:Drivers/STM32F10x_StdPeriph_Driver/src/stm32f10x_flash.c ****   */
 405:Drivers/STM32F10x_StdPeriph_Driver/src/stm32f10x_flash.c **** void FLASH_LockBank2(void)
 406:Drivers/STM32F10x_StdPeriph_Driver/src/stm32f10x_flash.c **** {
 407:Drivers/STM32F10x_StdPeriph_Driver/src/stm32f10x_flash.c ****   /* Set the Lock Bit to lock the FPEC and the CR of  Bank2 */
 408:Drivers/STM32F10x_StdPeriph_Driver/src/stm32f10x_flash.c ****   FLASH->CR2 |= CR_LOCK_Set;
 409:Drivers/STM32F10x_StdPeriph_Driver/src/stm32f10x_flash.c **** }
 410:Drivers/STM32F10x_StdPeriph_Driver/src/stm32f10x_flash.c **** #endif /* STM32F10X_XL */
 411:Drivers/STM32F10x_StdPeriph_Driver/src/stm32f10x_flash.c **** 
 412:Drivers/STM32F10x_StdPeriph_Driver/src/stm32f10x_flash.c **** /**
 413:Drivers/STM32F10x_StdPeriph_Driver/src/stm32f10x_flash.c ****   * @brief  Erases a specified FLASH page.
 414:Drivers/STM32F10x_StdPeriph_Driver/src/stm32f10x_flash.c ****   * @note   This function can be used for all STM32F10x devices.
 415:Drivers/STM32F10x_StdPeriph_Driver/src/stm32f10x_flash.c ****   * @param  Page_Address: The page address to be erased.
 416:Drivers/STM32F10x_StdPeriph_Driver/src/stm32f10x_flash.c ****   * @retval FLASH Status: The returned value can be: FLASH_BUSY, FLASH_ERROR_PG,
 417:Drivers/STM32F10x_StdPeriph_Driver/src/stm32f10x_flash.c ****   *         FLASH_ERROR_WRP, FLASH_COMPLETE or FLASH_TIMEOUT.
 418:Drivers/STM32F10x_StdPeriph_Driver/src/stm32f10x_flash.c ****   */
 419:Drivers/STM32F10x_StdPeriph_Driver/src/stm32f10x_flash.c **** FLASH_Status FLASH_ErasePage(uint32_t Page_Address)
 420:Drivers/STM32F10x_StdPeriph_Driver/src/stm32f10x_flash.c **** {
 421:Drivers/STM32F10x_StdPeriph_Driver/src/stm32f10x_flash.c ****   FLASH_Status status = FLASH_COMPLETE;
 422:Drivers/STM32F10x_StdPeriph_Driver/src/stm32f10x_flash.c ****   /* Check the parameters */
 423:Drivers/STM32F10x_StdPeriph_Driver/src/stm32f10x_flash.c ****   assert_param(IS_FLASH_ADDRESS(Page_Address));
 424:Drivers/STM32F10x_StdPeriph_Driver/src/stm32f10x_flash.c **** 
 425:Drivers/STM32F10x_StdPeriph_Driver/src/stm32f10x_flash.c **** #ifdef STM32F10X_XL
 426:Drivers/STM32F10x_StdPeriph_Driver/src/stm32f10x_flash.c ****   if(Page_Address < FLASH_BANK1_END_ADDRESS)  
 427:Drivers/STM32F10x_StdPeriph_Driver/src/stm32f10x_flash.c ****   {
 428:Drivers/STM32F10x_StdPeriph_Driver/src/stm32f10x_flash.c ****     /* Wait for last operation to be completed */
 429:Drivers/STM32F10x_StdPeriph_Driver/src/stm32f10x_flash.c ****     status = FLASH_WaitForLastBank1Operation(EraseTimeout);
ARM GAS  /tmp/cc3Mf3YA.s 			page 13


 430:Drivers/STM32F10x_StdPeriph_Driver/src/stm32f10x_flash.c ****     if(status == FLASH_COMPLETE)
 431:Drivers/STM32F10x_StdPeriph_Driver/src/stm32f10x_flash.c ****     { 
 432:Drivers/STM32F10x_StdPeriph_Driver/src/stm32f10x_flash.c ****       /* if the previous operation is completed, proceed to erase the page */
 433:Drivers/STM32F10x_StdPeriph_Driver/src/stm32f10x_flash.c ****       FLASH->CR|= CR_PER_Set;
 434:Drivers/STM32F10x_StdPeriph_Driver/src/stm32f10x_flash.c ****       FLASH->AR = Page_Address; 
 435:Drivers/STM32F10x_StdPeriph_Driver/src/stm32f10x_flash.c ****       FLASH->CR|= CR_STRT_Set;
 436:Drivers/STM32F10x_StdPeriph_Driver/src/stm32f10x_flash.c ****     
 437:Drivers/STM32F10x_StdPeriph_Driver/src/stm32f10x_flash.c ****       /* Wait for last operation to be completed */
 438:Drivers/STM32F10x_StdPeriph_Driver/src/stm32f10x_flash.c ****       status = FLASH_WaitForLastBank1Operation(EraseTimeout);
 439:Drivers/STM32F10x_StdPeriph_Driver/src/stm32f10x_flash.c **** 
 440:Drivers/STM32F10x_StdPeriph_Driver/src/stm32f10x_flash.c ****       /* Disable the PER Bit */
 441:Drivers/STM32F10x_StdPeriph_Driver/src/stm32f10x_flash.c ****       FLASH->CR &= CR_PER_Reset;
 442:Drivers/STM32F10x_StdPeriph_Driver/src/stm32f10x_flash.c ****     }
 443:Drivers/STM32F10x_StdPeriph_Driver/src/stm32f10x_flash.c ****   }
 444:Drivers/STM32F10x_StdPeriph_Driver/src/stm32f10x_flash.c ****   else
 445:Drivers/STM32F10x_StdPeriph_Driver/src/stm32f10x_flash.c ****   {
 446:Drivers/STM32F10x_StdPeriph_Driver/src/stm32f10x_flash.c ****     /* Wait for last operation to be completed */
 447:Drivers/STM32F10x_StdPeriph_Driver/src/stm32f10x_flash.c ****     status = FLASH_WaitForLastBank2Operation(EraseTimeout);
 448:Drivers/STM32F10x_StdPeriph_Driver/src/stm32f10x_flash.c ****     if(status == FLASH_COMPLETE)
 449:Drivers/STM32F10x_StdPeriph_Driver/src/stm32f10x_flash.c ****     { 
 450:Drivers/STM32F10x_StdPeriph_Driver/src/stm32f10x_flash.c ****       /* if the previous operation is completed, proceed to erase the page */
 451:Drivers/STM32F10x_StdPeriph_Driver/src/stm32f10x_flash.c ****       FLASH->CR2|= CR_PER_Set;
 452:Drivers/STM32F10x_StdPeriph_Driver/src/stm32f10x_flash.c ****       FLASH->AR2 = Page_Address; 
 453:Drivers/STM32F10x_StdPeriph_Driver/src/stm32f10x_flash.c ****       FLASH->CR2|= CR_STRT_Set;
 454:Drivers/STM32F10x_StdPeriph_Driver/src/stm32f10x_flash.c ****     
 455:Drivers/STM32F10x_StdPeriph_Driver/src/stm32f10x_flash.c ****       /* Wait for last operation to be completed */
 456:Drivers/STM32F10x_StdPeriph_Driver/src/stm32f10x_flash.c ****       status = FLASH_WaitForLastBank2Operation(EraseTimeout);
 457:Drivers/STM32F10x_StdPeriph_Driver/src/stm32f10x_flash.c ****       
 458:Drivers/STM32F10x_StdPeriph_Driver/src/stm32f10x_flash.c ****       /* Disable the PER Bit */
 459:Drivers/STM32F10x_StdPeriph_Driver/src/stm32f10x_flash.c ****       FLASH->CR2 &= CR_PER_Reset;
 460:Drivers/STM32F10x_StdPeriph_Driver/src/stm32f10x_flash.c ****     }
 461:Drivers/STM32F10x_StdPeriph_Driver/src/stm32f10x_flash.c ****   }
 462:Drivers/STM32F10x_StdPeriph_Driver/src/stm32f10x_flash.c **** #else
 463:Drivers/STM32F10x_StdPeriph_Driver/src/stm32f10x_flash.c ****   /* Wait for last operation to be completed */
 464:Drivers/STM32F10x_StdPeriph_Driver/src/stm32f10x_flash.c ****   status = FLASH_WaitForLastOperation(EraseTimeout);
 465:Drivers/STM32F10x_StdPeriph_Driver/src/stm32f10x_flash.c ****   
 466:Drivers/STM32F10x_StdPeriph_Driver/src/stm32f10x_flash.c ****   if(status == FLASH_COMPLETE)
 467:Drivers/STM32F10x_StdPeriph_Driver/src/stm32f10x_flash.c ****   { 
 468:Drivers/STM32F10x_StdPeriph_Driver/src/stm32f10x_flash.c ****     /* if the previous operation is completed, proceed to erase the page */
 469:Drivers/STM32F10x_StdPeriph_Driver/src/stm32f10x_flash.c ****     FLASH->CR|= CR_PER_Set;
 470:Drivers/STM32F10x_StdPeriph_Driver/src/stm32f10x_flash.c ****     FLASH->AR = Page_Address; 
 471:Drivers/STM32F10x_StdPeriph_Driver/src/stm32f10x_flash.c ****     FLASH->CR|= CR_STRT_Set;
 472:Drivers/STM32F10x_StdPeriph_Driver/src/stm32f10x_flash.c ****     
 473:Drivers/STM32F10x_StdPeriph_Driver/src/stm32f10x_flash.c ****     /* Wait for last operation to be completed */
 474:Drivers/STM32F10x_StdPeriph_Driver/src/stm32f10x_flash.c ****     status = FLASH_WaitForLastOperation(EraseTimeout);
 475:Drivers/STM32F10x_StdPeriph_Driver/src/stm32f10x_flash.c ****     
 476:Drivers/STM32F10x_StdPeriph_Driver/src/stm32f10x_flash.c ****     /* Disable the PER Bit */
 477:Drivers/STM32F10x_StdPeriph_Driver/src/stm32f10x_flash.c ****     FLASH->CR &= CR_PER_Reset;
 478:Drivers/STM32F10x_StdPeriph_Driver/src/stm32f10x_flash.c ****   }
 479:Drivers/STM32F10x_StdPeriph_Driver/src/stm32f10x_flash.c **** #endif /* STM32F10X_XL */
 480:Drivers/STM32F10x_StdPeriph_Driver/src/stm32f10x_flash.c **** 
 481:Drivers/STM32F10x_StdPeriph_Driver/src/stm32f10x_flash.c ****   /* Return the Erase Status */
 482:Drivers/STM32F10x_StdPeriph_Driver/src/stm32f10x_flash.c ****   return status;
 483:Drivers/STM32F10x_StdPeriph_Driver/src/stm32f10x_flash.c **** }
 484:Drivers/STM32F10x_StdPeriph_Driver/src/stm32f10x_flash.c **** 
 485:Drivers/STM32F10x_StdPeriph_Driver/src/stm32f10x_flash.c **** /**
 486:Drivers/STM32F10x_StdPeriph_Driver/src/stm32f10x_flash.c ****   * @brief  Erases all FLASH pages.
ARM GAS  /tmp/cc3Mf3YA.s 			page 14


 487:Drivers/STM32F10x_StdPeriph_Driver/src/stm32f10x_flash.c ****   * @note   This function can be used for all STM32F10x devices.
 488:Drivers/STM32F10x_StdPeriph_Driver/src/stm32f10x_flash.c ****   * @param  None
 489:Drivers/STM32F10x_StdPeriph_Driver/src/stm32f10x_flash.c ****   * @retval FLASH Status: The returned value can be: FLASH_ERROR_PG,
 490:Drivers/STM32F10x_StdPeriph_Driver/src/stm32f10x_flash.c ****   *         FLASH_ERROR_WRP, FLASH_COMPLETE or FLASH_TIMEOUT.
 491:Drivers/STM32F10x_StdPeriph_Driver/src/stm32f10x_flash.c ****   */
 492:Drivers/STM32F10x_StdPeriph_Driver/src/stm32f10x_flash.c **** FLASH_Status FLASH_EraseAllPages(void)
 493:Drivers/STM32F10x_StdPeriph_Driver/src/stm32f10x_flash.c **** {
 494:Drivers/STM32F10x_StdPeriph_Driver/src/stm32f10x_flash.c ****   FLASH_Status status = FLASH_COMPLETE;
 495:Drivers/STM32F10x_StdPeriph_Driver/src/stm32f10x_flash.c **** 
 496:Drivers/STM32F10x_StdPeriph_Driver/src/stm32f10x_flash.c **** #ifdef STM32F10X_XL
 497:Drivers/STM32F10x_StdPeriph_Driver/src/stm32f10x_flash.c ****   /* Wait for last operation to be completed */
 498:Drivers/STM32F10x_StdPeriph_Driver/src/stm32f10x_flash.c ****   status = FLASH_WaitForLastBank1Operation(EraseTimeout);
 499:Drivers/STM32F10x_StdPeriph_Driver/src/stm32f10x_flash.c ****   
 500:Drivers/STM32F10x_StdPeriph_Driver/src/stm32f10x_flash.c ****   if(status == FLASH_COMPLETE)
 501:Drivers/STM32F10x_StdPeriph_Driver/src/stm32f10x_flash.c ****   {
 502:Drivers/STM32F10x_StdPeriph_Driver/src/stm32f10x_flash.c ****     /* if the previous operation is completed, proceed to erase all pages */
 503:Drivers/STM32F10x_StdPeriph_Driver/src/stm32f10x_flash.c ****      FLASH->CR |= CR_MER_Set;
 504:Drivers/STM32F10x_StdPeriph_Driver/src/stm32f10x_flash.c ****      FLASH->CR |= CR_STRT_Set;
 505:Drivers/STM32F10x_StdPeriph_Driver/src/stm32f10x_flash.c ****     
 506:Drivers/STM32F10x_StdPeriph_Driver/src/stm32f10x_flash.c ****     /* Wait for last operation to be completed */
 507:Drivers/STM32F10x_StdPeriph_Driver/src/stm32f10x_flash.c ****     status = FLASH_WaitForLastBank1Operation(EraseTimeout);
 508:Drivers/STM32F10x_StdPeriph_Driver/src/stm32f10x_flash.c ****     
 509:Drivers/STM32F10x_StdPeriph_Driver/src/stm32f10x_flash.c ****     /* Disable the MER Bit */
 510:Drivers/STM32F10x_StdPeriph_Driver/src/stm32f10x_flash.c ****     FLASH->CR &= CR_MER_Reset;
 511:Drivers/STM32F10x_StdPeriph_Driver/src/stm32f10x_flash.c ****   }    
 512:Drivers/STM32F10x_StdPeriph_Driver/src/stm32f10x_flash.c ****   if(status == FLASH_COMPLETE)
 513:Drivers/STM32F10x_StdPeriph_Driver/src/stm32f10x_flash.c ****   {
 514:Drivers/STM32F10x_StdPeriph_Driver/src/stm32f10x_flash.c ****     /* if the previous operation is completed, proceed to erase all pages */
 515:Drivers/STM32F10x_StdPeriph_Driver/src/stm32f10x_flash.c ****      FLASH->CR2 |= CR_MER_Set;
 516:Drivers/STM32F10x_StdPeriph_Driver/src/stm32f10x_flash.c ****      FLASH->CR2 |= CR_STRT_Set;
 517:Drivers/STM32F10x_StdPeriph_Driver/src/stm32f10x_flash.c ****     
 518:Drivers/STM32F10x_StdPeriph_Driver/src/stm32f10x_flash.c ****     /* Wait for last operation to be completed */
 519:Drivers/STM32F10x_StdPeriph_Driver/src/stm32f10x_flash.c ****     status = FLASH_WaitForLastBank2Operation(EraseTimeout);
 520:Drivers/STM32F10x_StdPeriph_Driver/src/stm32f10x_flash.c ****     
 521:Drivers/STM32F10x_StdPeriph_Driver/src/stm32f10x_flash.c ****     /* Disable the MER Bit */
 522:Drivers/STM32F10x_StdPeriph_Driver/src/stm32f10x_flash.c ****     FLASH->CR2 &= CR_MER_Reset;
 523:Drivers/STM32F10x_StdPeriph_Driver/src/stm32f10x_flash.c ****   }
 524:Drivers/STM32F10x_StdPeriph_Driver/src/stm32f10x_flash.c **** #else
 525:Drivers/STM32F10x_StdPeriph_Driver/src/stm32f10x_flash.c ****   /* Wait for last operation to be completed */
 526:Drivers/STM32F10x_StdPeriph_Driver/src/stm32f10x_flash.c ****   status = FLASH_WaitForLastOperation(EraseTimeout);
 527:Drivers/STM32F10x_StdPeriph_Driver/src/stm32f10x_flash.c ****   if(status == FLASH_COMPLETE)
 528:Drivers/STM32F10x_StdPeriph_Driver/src/stm32f10x_flash.c ****   {
 529:Drivers/STM32F10x_StdPeriph_Driver/src/stm32f10x_flash.c ****     /* if the previous operation is completed, proceed to erase all pages */
 530:Drivers/STM32F10x_StdPeriph_Driver/src/stm32f10x_flash.c ****      FLASH->CR |= CR_MER_Set;
 531:Drivers/STM32F10x_StdPeriph_Driver/src/stm32f10x_flash.c ****      FLASH->CR |= CR_STRT_Set;
 532:Drivers/STM32F10x_StdPeriph_Driver/src/stm32f10x_flash.c ****     
 533:Drivers/STM32F10x_StdPeriph_Driver/src/stm32f10x_flash.c ****     /* Wait for last operation to be completed */
 534:Drivers/STM32F10x_StdPeriph_Driver/src/stm32f10x_flash.c ****     status = FLASH_WaitForLastOperation(EraseTimeout);
 535:Drivers/STM32F10x_StdPeriph_Driver/src/stm32f10x_flash.c **** 
 536:Drivers/STM32F10x_StdPeriph_Driver/src/stm32f10x_flash.c ****     /* Disable the MER Bit */
 537:Drivers/STM32F10x_StdPeriph_Driver/src/stm32f10x_flash.c ****     FLASH->CR &= CR_MER_Reset;
 538:Drivers/STM32F10x_StdPeriph_Driver/src/stm32f10x_flash.c ****   }
 539:Drivers/STM32F10x_StdPeriph_Driver/src/stm32f10x_flash.c **** #endif /* STM32F10X_XL */
 540:Drivers/STM32F10x_StdPeriph_Driver/src/stm32f10x_flash.c **** 
 541:Drivers/STM32F10x_StdPeriph_Driver/src/stm32f10x_flash.c ****   /* Return the Erase Status */
 542:Drivers/STM32F10x_StdPeriph_Driver/src/stm32f10x_flash.c ****   return status;
 543:Drivers/STM32F10x_StdPeriph_Driver/src/stm32f10x_flash.c **** }
ARM GAS  /tmp/cc3Mf3YA.s 			page 15


 544:Drivers/STM32F10x_StdPeriph_Driver/src/stm32f10x_flash.c **** 
 545:Drivers/STM32F10x_StdPeriph_Driver/src/stm32f10x_flash.c **** /**
 546:Drivers/STM32F10x_StdPeriph_Driver/src/stm32f10x_flash.c ****   * @brief  Erases all Bank1 FLASH pages.
 547:Drivers/STM32F10x_StdPeriph_Driver/src/stm32f10x_flash.c ****   * @note   This function can be used for all STM32F10x devices.
 548:Drivers/STM32F10x_StdPeriph_Driver/src/stm32f10x_flash.c ****   *         - For STM32F10X_XL devices this function erases all Bank1 pages.
 549:Drivers/STM32F10x_StdPeriph_Driver/src/stm32f10x_flash.c ****   *         - For all other devices it erases all Bank1 pages and it is equivalent 
 550:Drivers/STM32F10x_StdPeriph_Driver/src/stm32f10x_flash.c ****   *           to FLASH_EraseAllPages function.
 551:Drivers/STM32F10x_StdPeriph_Driver/src/stm32f10x_flash.c ****   * @param  None
 552:Drivers/STM32F10x_StdPeriph_Driver/src/stm32f10x_flash.c ****   * @retval FLASH Status: The returned value can be: FLASH_ERROR_PG,
 553:Drivers/STM32F10x_StdPeriph_Driver/src/stm32f10x_flash.c ****   *         FLASH_ERROR_WRP, FLASH_COMPLETE or FLASH_TIMEOUT.
 554:Drivers/STM32F10x_StdPeriph_Driver/src/stm32f10x_flash.c ****   */
 555:Drivers/STM32F10x_StdPeriph_Driver/src/stm32f10x_flash.c **** FLASH_Status FLASH_EraseAllBank1Pages(void)
 556:Drivers/STM32F10x_StdPeriph_Driver/src/stm32f10x_flash.c **** {
 557:Drivers/STM32F10x_StdPeriph_Driver/src/stm32f10x_flash.c ****   FLASH_Status status = FLASH_COMPLETE;
 558:Drivers/STM32F10x_StdPeriph_Driver/src/stm32f10x_flash.c ****   /* Wait for last operation to be completed */
 559:Drivers/STM32F10x_StdPeriph_Driver/src/stm32f10x_flash.c ****   status = FLASH_WaitForLastBank1Operation(EraseTimeout);
 560:Drivers/STM32F10x_StdPeriph_Driver/src/stm32f10x_flash.c ****   
 561:Drivers/STM32F10x_StdPeriph_Driver/src/stm32f10x_flash.c ****   if(status == FLASH_COMPLETE)
 562:Drivers/STM32F10x_StdPeriph_Driver/src/stm32f10x_flash.c ****   {
 563:Drivers/STM32F10x_StdPeriph_Driver/src/stm32f10x_flash.c ****     /* if the previous operation is completed, proceed to erase all pages */
 564:Drivers/STM32F10x_StdPeriph_Driver/src/stm32f10x_flash.c ****      FLASH->CR |= CR_MER_Set;
 565:Drivers/STM32F10x_StdPeriph_Driver/src/stm32f10x_flash.c ****      FLASH->CR |= CR_STRT_Set;
 566:Drivers/STM32F10x_StdPeriph_Driver/src/stm32f10x_flash.c ****     
 567:Drivers/STM32F10x_StdPeriph_Driver/src/stm32f10x_flash.c ****     /* Wait for last operation to be completed */
 568:Drivers/STM32F10x_StdPeriph_Driver/src/stm32f10x_flash.c ****     status = FLASH_WaitForLastBank1Operation(EraseTimeout);
 569:Drivers/STM32F10x_StdPeriph_Driver/src/stm32f10x_flash.c ****     
 570:Drivers/STM32F10x_StdPeriph_Driver/src/stm32f10x_flash.c ****     /* Disable the MER Bit */
 571:Drivers/STM32F10x_StdPeriph_Driver/src/stm32f10x_flash.c ****     FLASH->CR &= CR_MER_Reset;
 572:Drivers/STM32F10x_StdPeriph_Driver/src/stm32f10x_flash.c ****   }    
 573:Drivers/STM32F10x_StdPeriph_Driver/src/stm32f10x_flash.c ****   /* Return the Erase Status */
 574:Drivers/STM32F10x_StdPeriph_Driver/src/stm32f10x_flash.c ****   return status;
 575:Drivers/STM32F10x_StdPeriph_Driver/src/stm32f10x_flash.c **** }
 576:Drivers/STM32F10x_StdPeriph_Driver/src/stm32f10x_flash.c **** 
 577:Drivers/STM32F10x_StdPeriph_Driver/src/stm32f10x_flash.c **** #ifdef STM32F10X_XL
 578:Drivers/STM32F10x_StdPeriph_Driver/src/stm32f10x_flash.c **** /**
 579:Drivers/STM32F10x_StdPeriph_Driver/src/stm32f10x_flash.c ****   * @brief  Erases all Bank2 FLASH pages.
 580:Drivers/STM32F10x_StdPeriph_Driver/src/stm32f10x_flash.c ****   * @note   This function can be used only for STM32F10x_XL density devices.
 581:Drivers/STM32F10x_StdPeriph_Driver/src/stm32f10x_flash.c ****   * @param  None
 582:Drivers/STM32F10x_StdPeriph_Driver/src/stm32f10x_flash.c ****   * @retval FLASH Status: The returned value can be: FLASH_ERROR_PG,
 583:Drivers/STM32F10x_StdPeriph_Driver/src/stm32f10x_flash.c ****   *         FLASH_ERROR_WRP, FLASH_COMPLETE or FLASH_TIMEOUT.
 584:Drivers/STM32F10x_StdPeriph_Driver/src/stm32f10x_flash.c ****   */
 585:Drivers/STM32F10x_StdPeriph_Driver/src/stm32f10x_flash.c **** FLASH_Status FLASH_EraseAllBank2Pages(void)
 586:Drivers/STM32F10x_StdPeriph_Driver/src/stm32f10x_flash.c **** {
 587:Drivers/STM32F10x_StdPeriph_Driver/src/stm32f10x_flash.c ****   FLASH_Status status = FLASH_COMPLETE;
 588:Drivers/STM32F10x_StdPeriph_Driver/src/stm32f10x_flash.c ****   /* Wait for last operation to be completed */
 589:Drivers/STM32F10x_StdPeriph_Driver/src/stm32f10x_flash.c ****   status = FLASH_WaitForLastBank2Operation(EraseTimeout);
 590:Drivers/STM32F10x_StdPeriph_Driver/src/stm32f10x_flash.c ****   
 591:Drivers/STM32F10x_StdPeriph_Driver/src/stm32f10x_flash.c ****   if(status == FLASH_COMPLETE)
 592:Drivers/STM32F10x_StdPeriph_Driver/src/stm32f10x_flash.c ****   {
 593:Drivers/STM32F10x_StdPeriph_Driver/src/stm32f10x_flash.c ****     /* if the previous operation is completed, proceed to erase all pages */
 594:Drivers/STM32F10x_StdPeriph_Driver/src/stm32f10x_flash.c ****      FLASH->CR2 |= CR_MER_Set;
 595:Drivers/STM32F10x_StdPeriph_Driver/src/stm32f10x_flash.c ****      FLASH->CR2 |= CR_STRT_Set;
 596:Drivers/STM32F10x_StdPeriph_Driver/src/stm32f10x_flash.c ****     
 597:Drivers/STM32F10x_StdPeriph_Driver/src/stm32f10x_flash.c ****     /* Wait for last operation to be completed */
 598:Drivers/STM32F10x_StdPeriph_Driver/src/stm32f10x_flash.c ****     status = FLASH_WaitForLastBank2Operation(EraseTimeout);
 599:Drivers/STM32F10x_StdPeriph_Driver/src/stm32f10x_flash.c **** 
 600:Drivers/STM32F10x_StdPeriph_Driver/src/stm32f10x_flash.c ****     /* Disable the MER Bit */
ARM GAS  /tmp/cc3Mf3YA.s 			page 16


 601:Drivers/STM32F10x_StdPeriph_Driver/src/stm32f10x_flash.c ****     FLASH->CR2 &= CR_MER_Reset;
 602:Drivers/STM32F10x_StdPeriph_Driver/src/stm32f10x_flash.c ****   }    
 603:Drivers/STM32F10x_StdPeriph_Driver/src/stm32f10x_flash.c ****   /* Return the Erase Status */
 604:Drivers/STM32F10x_StdPeriph_Driver/src/stm32f10x_flash.c ****   return status;
 605:Drivers/STM32F10x_StdPeriph_Driver/src/stm32f10x_flash.c **** }
 606:Drivers/STM32F10x_StdPeriph_Driver/src/stm32f10x_flash.c **** #endif /* STM32F10X_XL */
 607:Drivers/STM32F10x_StdPeriph_Driver/src/stm32f10x_flash.c **** 
 608:Drivers/STM32F10x_StdPeriph_Driver/src/stm32f10x_flash.c **** /**
 609:Drivers/STM32F10x_StdPeriph_Driver/src/stm32f10x_flash.c ****   * @brief  Erases the FLASH option bytes.
 610:Drivers/STM32F10x_StdPeriph_Driver/src/stm32f10x_flash.c ****   * @note   This functions erases all option bytes except the Read protection (RDP). 
 611:Drivers/STM32F10x_StdPeriph_Driver/src/stm32f10x_flash.c ****   * @note   This function can be used for all STM32F10x devices.
 612:Drivers/STM32F10x_StdPeriph_Driver/src/stm32f10x_flash.c ****   * @param  None
 613:Drivers/STM32F10x_StdPeriph_Driver/src/stm32f10x_flash.c ****   * @retval FLASH Status: The returned value can be: FLASH_ERROR_PG,
 614:Drivers/STM32F10x_StdPeriph_Driver/src/stm32f10x_flash.c ****   *         FLASH_ERROR_WRP, FLASH_COMPLETE or FLASH_TIMEOUT.
 615:Drivers/STM32F10x_StdPeriph_Driver/src/stm32f10x_flash.c ****   */
 616:Drivers/STM32F10x_StdPeriph_Driver/src/stm32f10x_flash.c **** FLASH_Status FLASH_EraseOptionBytes(void)
 617:Drivers/STM32F10x_StdPeriph_Driver/src/stm32f10x_flash.c **** {
 618:Drivers/STM32F10x_StdPeriph_Driver/src/stm32f10x_flash.c ****   uint16_t rdptmp = RDP_Key;
 619:Drivers/STM32F10x_StdPeriph_Driver/src/stm32f10x_flash.c **** 
 620:Drivers/STM32F10x_StdPeriph_Driver/src/stm32f10x_flash.c ****   FLASH_Status status = FLASH_COMPLETE;
 621:Drivers/STM32F10x_StdPeriph_Driver/src/stm32f10x_flash.c **** 
 622:Drivers/STM32F10x_StdPeriph_Driver/src/stm32f10x_flash.c ****   /* Get the actual read protection Option Byte value */ 
 623:Drivers/STM32F10x_StdPeriph_Driver/src/stm32f10x_flash.c ****   if(FLASH_GetReadOutProtectionStatus() != RESET)
 624:Drivers/STM32F10x_StdPeriph_Driver/src/stm32f10x_flash.c ****   {
 625:Drivers/STM32F10x_StdPeriph_Driver/src/stm32f10x_flash.c ****     rdptmp = 0x00;  
 626:Drivers/STM32F10x_StdPeriph_Driver/src/stm32f10x_flash.c ****   }
 627:Drivers/STM32F10x_StdPeriph_Driver/src/stm32f10x_flash.c **** 
 628:Drivers/STM32F10x_StdPeriph_Driver/src/stm32f10x_flash.c ****   /* Wait for last operation to be completed */
 629:Drivers/STM32F10x_StdPeriph_Driver/src/stm32f10x_flash.c ****   status = FLASH_WaitForLastOperation(EraseTimeout);
 630:Drivers/STM32F10x_StdPeriph_Driver/src/stm32f10x_flash.c ****   if(status == FLASH_COMPLETE)
 631:Drivers/STM32F10x_StdPeriph_Driver/src/stm32f10x_flash.c ****   {
 632:Drivers/STM32F10x_StdPeriph_Driver/src/stm32f10x_flash.c ****     /* Authorize the small information block programming */
 633:Drivers/STM32F10x_StdPeriph_Driver/src/stm32f10x_flash.c ****     FLASH->OPTKEYR = FLASH_KEY1;
 634:Drivers/STM32F10x_StdPeriph_Driver/src/stm32f10x_flash.c ****     FLASH->OPTKEYR = FLASH_KEY2;
 635:Drivers/STM32F10x_StdPeriph_Driver/src/stm32f10x_flash.c ****     
 636:Drivers/STM32F10x_StdPeriph_Driver/src/stm32f10x_flash.c ****     /* if the previous operation is completed, proceed to erase the option bytes */
 637:Drivers/STM32F10x_StdPeriph_Driver/src/stm32f10x_flash.c ****     FLASH->CR |= CR_OPTER_Set;
 638:Drivers/STM32F10x_StdPeriph_Driver/src/stm32f10x_flash.c ****     FLASH->CR |= CR_STRT_Set;
 639:Drivers/STM32F10x_StdPeriph_Driver/src/stm32f10x_flash.c ****     /* Wait for last operation to be completed */
 640:Drivers/STM32F10x_StdPeriph_Driver/src/stm32f10x_flash.c ****     status = FLASH_WaitForLastOperation(EraseTimeout);
 641:Drivers/STM32F10x_StdPeriph_Driver/src/stm32f10x_flash.c ****     
 642:Drivers/STM32F10x_StdPeriph_Driver/src/stm32f10x_flash.c ****     if(status == FLASH_COMPLETE)
 643:Drivers/STM32F10x_StdPeriph_Driver/src/stm32f10x_flash.c ****     {
 644:Drivers/STM32F10x_StdPeriph_Driver/src/stm32f10x_flash.c ****       /* if the erase operation is completed, disable the OPTER Bit */
 645:Drivers/STM32F10x_StdPeriph_Driver/src/stm32f10x_flash.c ****       FLASH->CR &= CR_OPTER_Reset;
 646:Drivers/STM32F10x_StdPeriph_Driver/src/stm32f10x_flash.c ****        
 647:Drivers/STM32F10x_StdPeriph_Driver/src/stm32f10x_flash.c ****       /* Enable the Option Bytes Programming operation */
 648:Drivers/STM32F10x_StdPeriph_Driver/src/stm32f10x_flash.c ****       FLASH->CR |= CR_OPTPG_Set;
 649:Drivers/STM32F10x_StdPeriph_Driver/src/stm32f10x_flash.c ****       /* Restore the last read protection Option Byte value */
 650:Drivers/STM32F10x_StdPeriph_Driver/src/stm32f10x_flash.c ****       OB->RDP = (uint16_t)rdptmp; 
 651:Drivers/STM32F10x_StdPeriph_Driver/src/stm32f10x_flash.c ****       /* Wait for last operation to be completed */
 652:Drivers/STM32F10x_StdPeriph_Driver/src/stm32f10x_flash.c ****       status = FLASH_WaitForLastOperation(ProgramTimeout);
 653:Drivers/STM32F10x_StdPeriph_Driver/src/stm32f10x_flash.c ****  
 654:Drivers/STM32F10x_StdPeriph_Driver/src/stm32f10x_flash.c ****       if(status != FLASH_TIMEOUT)
 655:Drivers/STM32F10x_StdPeriph_Driver/src/stm32f10x_flash.c ****       {
 656:Drivers/STM32F10x_StdPeriph_Driver/src/stm32f10x_flash.c ****         /* if the program operation is completed, disable the OPTPG Bit */
 657:Drivers/STM32F10x_StdPeriph_Driver/src/stm32f10x_flash.c ****         FLASH->CR &= CR_OPTPG_Reset;
ARM GAS  /tmp/cc3Mf3YA.s 			page 17


 658:Drivers/STM32F10x_StdPeriph_Driver/src/stm32f10x_flash.c ****       }
 659:Drivers/STM32F10x_StdPeriph_Driver/src/stm32f10x_flash.c ****     }
 660:Drivers/STM32F10x_StdPeriph_Driver/src/stm32f10x_flash.c ****     else
 661:Drivers/STM32F10x_StdPeriph_Driver/src/stm32f10x_flash.c ****     {
 662:Drivers/STM32F10x_StdPeriph_Driver/src/stm32f10x_flash.c ****       if (status != FLASH_TIMEOUT)
 663:Drivers/STM32F10x_StdPeriph_Driver/src/stm32f10x_flash.c ****       {
 664:Drivers/STM32F10x_StdPeriph_Driver/src/stm32f10x_flash.c ****         /* Disable the OPTPG Bit */
 665:Drivers/STM32F10x_StdPeriph_Driver/src/stm32f10x_flash.c ****         FLASH->CR &= CR_OPTPG_Reset;
 666:Drivers/STM32F10x_StdPeriph_Driver/src/stm32f10x_flash.c ****       }
 667:Drivers/STM32F10x_StdPeriph_Driver/src/stm32f10x_flash.c ****     }  
 668:Drivers/STM32F10x_StdPeriph_Driver/src/stm32f10x_flash.c ****   }
 669:Drivers/STM32F10x_StdPeriph_Driver/src/stm32f10x_flash.c ****   /* Return the erase status */
 670:Drivers/STM32F10x_StdPeriph_Driver/src/stm32f10x_flash.c ****   return status;
 671:Drivers/STM32F10x_StdPeriph_Driver/src/stm32f10x_flash.c **** }
 672:Drivers/STM32F10x_StdPeriph_Driver/src/stm32f10x_flash.c **** 
 673:Drivers/STM32F10x_StdPeriph_Driver/src/stm32f10x_flash.c **** /**
 674:Drivers/STM32F10x_StdPeriph_Driver/src/stm32f10x_flash.c ****   * @brief  Programs a word at a specified address.
 675:Drivers/STM32F10x_StdPeriph_Driver/src/stm32f10x_flash.c ****   * @note   This function can be used for all STM32F10x devices.
 676:Drivers/STM32F10x_StdPeriph_Driver/src/stm32f10x_flash.c ****   * @param  Address: specifies the address to be programmed.
 677:Drivers/STM32F10x_StdPeriph_Driver/src/stm32f10x_flash.c ****   * @param  Data: specifies the data to be programmed.
 678:Drivers/STM32F10x_StdPeriph_Driver/src/stm32f10x_flash.c ****   * @retval FLASH Status: The returned value can be: FLASH_ERROR_PG,
 679:Drivers/STM32F10x_StdPeriph_Driver/src/stm32f10x_flash.c ****   *         FLASH_ERROR_WRP, FLASH_COMPLETE or FLASH_TIMEOUT. 
 680:Drivers/STM32F10x_StdPeriph_Driver/src/stm32f10x_flash.c ****   */
 681:Drivers/STM32F10x_StdPeriph_Driver/src/stm32f10x_flash.c **** FLASH_Status FLASH_ProgramWord(uint32_t Address, uint32_t Data)
 682:Drivers/STM32F10x_StdPeriph_Driver/src/stm32f10x_flash.c **** {
 683:Drivers/STM32F10x_StdPeriph_Driver/src/stm32f10x_flash.c ****   FLASH_Status status = FLASH_COMPLETE;
 684:Drivers/STM32F10x_StdPeriph_Driver/src/stm32f10x_flash.c ****   __IO uint32_t tmp = 0;
 685:Drivers/STM32F10x_StdPeriph_Driver/src/stm32f10x_flash.c **** 
 686:Drivers/STM32F10x_StdPeriph_Driver/src/stm32f10x_flash.c ****   /* Check the parameters */
 687:Drivers/STM32F10x_StdPeriph_Driver/src/stm32f10x_flash.c ****   assert_param(IS_FLASH_ADDRESS(Address));
 688:Drivers/STM32F10x_StdPeriph_Driver/src/stm32f10x_flash.c **** 
 689:Drivers/STM32F10x_StdPeriph_Driver/src/stm32f10x_flash.c **** #ifdef STM32F10X_XL
 690:Drivers/STM32F10x_StdPeriph_Driver/src/stm32f10x_flash.c ****   if(Address < FLASH_BANK1_END_ADDRESS - 2)
 691:Drivers/STM32F10x_StdPeriph_Driver/src/stm32f10x_flash.c ****   { 
 692:Drivers/STM32F10x_StdPeriph_Driver/src/stm32f10x_flash.c ****     /* Wait for last operation to be completed */
 693:Drivers/STM32F10x_StdPeriph_Driver/src/stm32f10x_flash.c ****     status = FLASH_WaitForLastBank1Operation(ProgramTimeout); 
 694:Drivers/STM32F10x_StdPeriph_Driver/src/stm32f10x_flash.c ****     if(status == FLASH_COMPLETE)
 695:Drivers/STM32F10x_StdPeriph_Driver/src/stm32f10x_flash.c ****     {
 696:Drivers/STM32F10x_StdPeriph_Driver/src/stm32f10x_flash.c ****       /* if the previous operation is completed, proceed to program the new first 
 697:Drivers/STM32F10x_StdPeriph_Driver/src/stm32f10x_flash.c ****         half word */
 698:Drivers/STM32F10x_StdPeriph_Driver/src/stm32f10x_flash.c ****       FLASH->CR |= CR_PG_Set;
 699:Drivers/STM32F10x_StdPeriph_Driver/src/stm32f10x_flash.c ****   
 700:Drivers/STM32F10x_StdPeriph_Driver/src/stm32f10x_flash.c ****       *(__IO uint16_t*)Address = (uint16_t)Data;
 701:Drivers/STM32F10x_StdPeriph_Driver/src/stm32f10x_flash.c ****       /* Wait for last operation to be completed */
 702:Drivers/STM32F10x_StdPeriph_Driver/src/stm32f10x_flash.c ****       status = FLASH_WaitForLastOperation(ProgramTimeout);
 703:Drivers/STM32F10x_StdPeriph_Driver/src/stm32f10x_flash.c ****  
 704:Drivers/STM32F10x_StdPeriph_Driver/src/stm32f10x_flash.c ****       if(status == FLASH_COMPLETE)
 705:Drivers/STM32F10x_StdPeriph_Driver/src/stm32f10x_flash.c ****       {
 706:Drivers/STM32F10x_StdPeriph_Driver/src/stm32f10x_flash.c ****         /* if the previous operation is completed, proceed to program the new second 
 707:Drivers/STM32F10x_StdPeriph_Driver/src/stm32f10x_flash.c ****         half word */
 708:Drivers/STM32F10x_StdPeriph_Driver/src/stm32f10x_flash.c ****         tmp = Address + 2;
 709:Drivers/STM32F10x_StdPeriph_Driver/src/stm32f10x_flash.c **** 
 710:Drivers/STM32F10x_StdPeriph_Driver/src/stm32f10x_flash.c ****         *(__IO uint16_t*) tmp = Data >> 16;
 711:Drivers/STM32F10x_StdPeriph_Driver/src/stm32f10x_flash.c ****     
 712:Drivers/STM32F10x_StdPeriph_Driver/src/stm32f10x_flash.c ****         /* Wait for last operation to be completed */
 713:Drivers/STM32F10x_StdPeriph_Driver/src/stm32f10x_flash.c ****         status = FLASH_WaitForLastOperation(ProgramTimeout);
 714:Drivers/STM32F10x_StdPeriph_Driver/src/stm32f10x_flash.c ****         
ARM GAS  /tmp/cc3Mf3YA.s 			page 18


 715:Drivers/STM32F10x_StdPeriph_Driver/src/stm32f10x_flash.c ****         /* Disable the PG Bit */
 716:Drivers/STM32F10x_StdPeriph_Driver/src/stm32f10x_flash.c ****         FLASH->CR &= CR_PG_Reset;
 717:Drivers/STM32F10x_StdPeriph_Driver/src/stm32f10x_flash.c ****       }
 718:Drivers/STM32F10x_StdPeriph_Driver/src/stm32f10x_flash.c ****       else
 719:Drivers/STM32F10x_StdPeriph_Driver/src/stm32f10x_flash.c ****       {
 720:Drivers/STM32F10x_StdPeriph_Driver/src/stm32f10x_flash.c ****         /* Disable the PG Bit */
 721:Drivers/STM32F10x_StdPeriph_Driver/src/stm32f10x_flash.c ****         FLASH->CR &= CR_PG_Reset;
 722:Drivers/STM32F10x_StdPeriph_Driver/src/stm32f10x_flash.c ****        }
 723:Drivers/STM32F10x_StdPeriph_Driver/src/stm32f10x_flash.c ****     }
 724:Drivers/STM32F10x_StdPeriph_Driver/src/stm32f10x_flash.c ****   }
 725:Drivers/STM32F10x_StdPeriph_Driver/src/stm32f10x_flash.c ****   else if(Address == (FLASH_BANK1_END_ADDRESS - 1))
 726:Drivers/STM32F10x_StdPeriph_Driver/src/stm32f10x_flash.c ****   {
 727:Drivers/STM32F10x_StdPeriph_Driver/src/stm32f10x_flash.c ****     /* Wait for last operation to be completed */
 728:Drivers/STM32F10x_StdPeriph_Driver/src/stm32f10x_flash.c ****     status = FLASH_WaitForLastBank1Operation(ProgramTimeout);
 729:Drivers/STM32F10x_StdPeriph_Driver/src/stm32f10x_flash.c **** 
 730:Drivers/STM32F10x_StdPeriph_Driver/src/stm32f10x_flash.c ****     if(status == FLASH_COMPLETE)
 731:Drivers/STM32F10x_StdPeriph_Driver/src/stm32f10x_flash.c ****     {
 732:Drivers/STM32F10x_StdPeriph_Driver/src/stm32f10x_flash.c ****       /* if the previous operation is completed, proceed to program the new first 
 733:Drivers/STM32F10x_StdPeriph_Driver/src/stm32f10x_flash.c ****         half word */
 734:Drivers/STM32F10x_StdPeriph_Driver/src/stm32f10x_flash.c ****       FLASH->CR |= CR_PG_Set;
 735:Drivers/STM32F10x_StdPeriph_Driver/src/stm32f10x_flash.c ****   
 736:Drivers/STM32F10x_StdPeriph_Driver/src/stm32f10x_flash.c ****       *(__IO uint16_t*)Address = (uint16_t)Data;
 737:Drivers/STM32F10x_StdPeriph_Driver/src/stm32f10x_flash.c **** 
 738:Drivers/STM32F10x_StdPeriph_Driver/src/stm32f10x_flash.c ****       /* Wait for last operation to be completed */
 739:Drivers/STM32F10x_StdPeriph_Driver/src/stm32f10x_flash.c ****       status = FLASH_WaitForLastBank1Operation(ProgramTimeout);
 740:Drivers/STM32F10x_StdPeriph_Driver/src/stm32f10x_flash.c ****       
 741:Drivers/STM32F10x_StdPeriph_Driver/src/stm32f10x_flash.c **** 	  /* Disable the PG Bit */
 742:Drivers/STM32F10x_StdPeriph_Driver/src/stm32f10x_flash.c ****       FLASH->CR &= CR_PG_Reset;
 743:Drivers/STM32F10x_StdPeriph_Driver/src/stm32f10x_flash.c ****     }
 744:Drivers/STM32F10x_StdPeriph_Driver/src/stm32f10x_flash.c ****     else
 745:Drivers/STM32F10x_StdPeriph_Driver/src/stm32f10x_flash.c ****     {
 746:Drivers/STM32F10x_StdPeriph_Driver/src/stm32f10x_flash.c ****       /* Disable the PG Bit */
 747:Drivers/STM32F10x_StdPeriph_Driver/src/stm32f10x_flash.c ****       FLASH->CR &= CR_PG_Reset;
 748:Drivers/STM32F10x_StdPeriph_Driver/src/stm32f10x_flash.c ****     }
 749:Drivers/STM32F10x_StdPeriph_Driver/src/stm32f10x_flash.c **** 
 750:Drivers/STM32F10x_StdPeriph_Driver/src/stm32f10x_flash.c ****     /* Wait for last operation to be completed */
 751:Drivers/STM32F10x_StdPeriph_Driver/src/stm32f10x_flash.c ****     status = FLASH_WaitForLastBank2Operation(ProgramTimeout);
 752:Drivers/STM32F10x_StdPeriph_Driver/src/stm32f10x_flash.c **** 
 753:Drivers/STM32F10x_StdPeriph_Driver/src/stm32f10x_flash.c ****     if(status == FLASH_COMPLETE)
 754:Drivers/STM32F10x_StdPeriph_Driver/src/stm32f10x_flash.c ****     {
 755:Drivers/STM32F10x_StdPeriph_Driver/src/stm32f10x_flash.c ****       /* if the previous operation is completed, proceed to program the new second 
 756:Drivers/STM32F10x_StdPeriph_Driver/src/stm32f10x_flash.c ****       half word */
 757:Drivers/STM32F10x_StdPeriph_Driver/src/stm32f10x_flash.c ****       FLASH->CR2 |= CR_PG_Set;
 758:Drivers/STM32F10x_StdPeriph_Driver/src/stm32f10x_flash.c ****       tmp = Address + 2;
 759:Drivers/STM32F10x_StdPeriph_Driver/src/stm32f10x_flash.c **** 
 760:Drivers/STM32F10x_StdPeriph_Driver/src/stm32f10x_flash.c ****       *(__IO uint16_t*) tmp = Data >> 16;
 761:Drivers/STM32F10x_StdPeriph_Driver/src/stm32f10x_flash.c ****     
 762:Drivers/STM32F10x_StdPeriph_Driver/src/stm32f10x_flash.c ****       /* Wait for last operation to be completed */
 763:Drivers/STM32F10x_StdPeriph_Driver/src/stm32f10x_flash.c ****       status = FLASH_WaitForLastBank2Operation(ProgramTimeout);
 764:Drivers/STM32F10x_StdPeriph_Driver/src/stm32f10x_flash.c ****         
 765:Drivers/STM32F10x_StdPeriph_Driver/src/stm32f10x_flash.c ****       /* Disable the PG Bit */
 766:Drivers/STM32F10x_StdPeriph_Driver/src/stm32f10x_flash.c ****       FLASH->CR2 &= CR_PG_Reset;
 767:Drivers/STM32F10x_StdPeriph_Driver/src/stm32f10x_flash.c ****     }
 768:Drivers/STM32F10x_StdPeriph_Driver/src/stm32f10x_flash.c ****     else
 769:Drivers/STM32F10x_StdPeriph_Driver/src/stm32f10x_flash.c ****     {
 770:Drivers/STM32F10x_StdPeriph_Driver/src/stm32f10x_flash.c ****       /* Disable the PG Bit */
 771:Drivers/STM32F10x_StdPeriph_Driver/src/stm32f10x_flash.c ****       FLASH->CR2 &= CR_PG_Reset;
ARM GAS  /tmp/cc3Mf3YA.s 			page 19


 772:Drivers/STM32F10x_StdPeriph_Driver/src/stm32f10x_flash.c ****     }
 773:Drivers/STM32F10x_StdPeriph_Driver/src/stm32f10x_flash.c ****   }
 774:Drivers/STM32F10x_StdPeriph_Driver/src/stm32f10x_flash.c ****   else
 775:Drivers/STM32F10x_StdPeriph_Driver/src/stm32f10x_flash.c ****   {
 776:Drivers/STM32F10x_StdPeriph_Driver/src/stm32f10x_flash.c ****     /* Wait for last operation to be completed */
 777:Drivers/STM32F10x_StdPeriph_Driver/src/stm32f10x_flash.c ****     status = FLASH_WaitForLastBank2Operation(ProgramTimeout);
 778:Drivers/STM32F10x_StdPeriph_Driver/src/stm32f10x_flash.c **** 
 779:Drivers/STM32F10x_StdPeriph_Driver/src/stm32f10x_flash.c ****     if(status == FLASH_COMPLETE)
 780:Drivers/STM32F10x_StdPeriph_Driver/src/stm32f10x_flash.c ****     {
 781:Drivers/STM32F10x_StdPeriph_Driver/src/stm32f10x_flash.c ****       /* if the previous operation is completed, proceed to program the new first 
 782:Drivers/STM32F10x_StdPeriph_Driver/src/stm32f10x_flash.c ****         half word */
 783:Drivers/STM32F10x_StdPeriph_Driver/src/stm32f10x_flash.c ****       FLASH->CR2 |= CR_PG_Set;
 784:Drivers/STM32F10x_StdPeriph_Driver/src/stm32f10x_flash.c ****   
 785:Drivers/STM32F10x_StdPeriph_Driver/src/stm32f10x_flash.c ****       *(__IO uint16_t*)Address = (uint16_t)Data;
 786:Drivers/STM32F10x_StdPeriph_Driver/src/stm32f10x_flash.c ****       /* Wait for last operation to be completed */
 787:Drivers/STM32F10x_StdPeriph_Driver/src/stm32f10x_flash.c ****       status = FLASH_WaitForLastBank2Operation(ProgramTimeout);
 788:Drivers/STM32F10x_StdPeriph_Driver/src/stm32f10x_flash.c ****  
 789:Drivers/STM32F10x_StdPeriph_Driver/src/stm32f10x_flash.c ****       if(status == FLASH_COMPLETE)
 790:Drivers/STM32F10x_StdPeriph_Driver/src/stm32f10x_flash.c ****       {
 791:Drivers/STM32F10x_StdPeriph_Driver/src/stm32f10x_flash.c ****         /* if the previous operation is completed, proceed to program the new second 
 792:Drivers/STM32F10x_StdPeriph_Driver/src/stm32f10x_flash.c ****         half word */
 793:Drivers/STM32F10x_StdPeriph_Driver/src/stm32f10x_flash.c ****         tmp = Address + 2;
 794:Drivers/STM32F10x_StdPeriph_Driver/src/stm32f10x_flash.c **** 
 795:Drivers/STM32F10x_StdPeriph_Driver/src/stm32f10x_flash.c ****         *(__IO uint16_t*) tmp = Data >> 16;
 796:Drivers/STM32F10x_StdPeriph_Driver/src/stm32f10x_flash.c ****     
 797:Drivers/STM32F10x_StdPeriph_Driver/src/stm32f10x_flash.c ****         /* Wait for last operation to be completed */
 798:Drivers/STM32F10x_StdPeriph_Driver/src/stm32f10x_flash.c ****         status = FLASH_WaitForLastBank2Operation(ProgramTimeout);
 799:Drivers/STM32F10x_StdPeriph_Driver/src/stm32f10x_flash.c ****         
 800:Drivers/STM32F10x_StdPeriph_Driver/src/stm32f10x_flash.c ****         /* Disable the PG Bit */
 801:Drivers/STM32F10x_StdPeriph_Driver/src/stm32f10x_flash.c ****         FLASH->CR2 &= CR_PG_Reset;
 802:Drivers/STM32F10x_StdPeriph_Driver/src/stm32f10x_flash.c ****       }
 803:Drivers/STM32F10x_StdPeriph_Driver/src/stm32f10x_flash.c ****       else
 804:Drivers/STM32F10x_StdPeriph_Driver/src/stm32f10x_flash.c ****       {
 805:Drivers/STM32F10x_StdPeriph_Driver/src/stm32f10x_flash.c ****         /* Disable the PG Bit */
 806:Drivers/STM32F10x_StdPeriph_Driver/src/stm32f10x_flash.c ****         FLASH->CR2 &= CR_PG_Reset;
 807:Drivers/STM32F10x_StdPeriph_Driver/src/stm32f10x_flash.c ****       }
 808:Drivers/STM32F10x_StdPeriph_Driver/src/stm32f10x_flash.c ****     }
 809:Drivers/STM32F10x_StdPeriph_Driver/src/stm32f10x_flash.c ****   }
 810:Drivers/STM32F10x_StdPeriph_Driver/src/stm32f10x_flash.c **** #else
 811:Drivers/STM32F10x_StdPeriph_Driver/src/stm32f10x_flash.c ****   /* Wait for last operation to be completed */
 812:Drivers/STM32F10x_StdPeriph_Driver/src/stm32f10x_flash.c ****   status = FLASH_WaitForLastOperation(ProgramTimeout);
 813:Drivers/STM32F10x_StdPeriph_Driver/src/stm32f10x_flash.c ****   
 814:Drivers/STM32F10x_StdPeriph_Driver/src/stm32f10x_flash.c ****   if(status == FLASH_COMPLETE)
 815:Drivers/STM32F10x_StdPeriph_Driver/src/stm32f10x_flash.c ****   {
 816:Drivers/STM32F10x_StdPeriph_Driver/src/stm32f10x_flash.c ****     /* if the previous operation is completed, proceed to program the new first 
 817:Drivers/STM32F10x_StdPeriph_Driver/src/stm32f10x_flash.c ****     half word */
 818:Drivers/STM32F10x_StdPeriph_Driver/src/stm32f10x_flash.c ****     FLASH->CR |= CR_PG_Set;
 819:Drivers/STM32F10x_StdPeriph_Driver/src/stm32f10x_flash.c ****   
 820:Drivers/STM32F10x_StdPeriph_Driver/src/stm32f10x_flash.c ****     *(__IO uint16_t*)Address = (uint16_t)Data;
 821:Drivers/STM32F10x_StdPeriph_Driver/src/stm32f10x_flash.c ****     /* Wait for last operation to be completed */
 822:Drivers/STM32F10x_StdPeriph_Driver/src/stm32f10x_flash.c ****     status = FLASH_WaitForLastOperation(ProgramTimeout);
 823:Drivers/STM32F10x_StdPeriph_Driver/src/stm32f10x_flash.c ****  
 824:Drivers/STM32F10x_StdPeriph_Driver/src/stm32f10x_flash.c ****     if(status == FLASH_COMPLETE)
 825:Drivers/STM32F10x_StdPeriph_Driver/src/stm32f10x_flash.c ****     {
 826:Drivers/STM32F10x_StdPeriph_Driver/src/stm32f10x_flash.c ****       /* if the previous operation is completed, proceed to program the new second 
 827:Drivers/STM32F10x_StdPeriph_Driver/src/stm32f10x_flash.c ****       half word */
 828:Drivers/STM32F10x_StdPeriph_Driver/src/stm32f10x_flash.c ****       tmp = Address + 2;
ARM GAS  /tmp/cc3Mf3YA.s 			page 20


 829:Drivers/STM32F10x_StdPeriph_Driver/src/stm32f10x_flash.c **** 
 830:Drivers/STM32F10x_StdPeriph_Driver/src/stm32f10x_flash.c ****       *(__IO uint16_t*) tmp = Data >> 16;
 831:Drivers/STM32F10x_StdPeriph_Driver/src/stm32f10x_flash.c ****     
 832:Drivers/STM32F10x_StdPeriph_Driver/src/stm32f10x_flash.c ****       /* Wait for last operation to be completed */
 833:Drivers/STM32F10x_StdPeriph_Driver/src/stm32f10x_flash.c ****       status = FLASH_WaitForLastOperation(ProgramTimeout);
 834:Drivers/STM32F10x_StdPeriph_Driver/src/stm32f10x_flash.c ****         
 835:Drivers/STM32F10x_StdPeriph_Driver/src/stm32f10x_flash.c ****       /* Disable the PG Bit */
 836:Drivers/STM32F10x_StdPeriph_Driver/src/stm32f10x_flash.c ****       FLASH->CR &= CR_PG_Reset;
 837:Drivers/STM32F10x_StdPeriph_Driver/src/stm32f10x_flash.c ****     }
 838:Drivers/STM32F10x_StdPeriph_Driver/src/stm32f10x_flash.c ****     else
 839:Drivers/STM32F10x_StdPeriph_Driver/src/stm32f10x_flash.c ****     {
 840:Drivers/STM32F10x_StdPeriph_Driver/src/stm32f10x_flash.c ****       /* Disable the PG Bit */
 841:Drivers/STM32F10x_StdPeriph_Driver/src/stm32f10x_flash.c ****       FLASH->CR &= CR_PG_Reset;
 842:Drivers/STM32F10x_StdPeriph_Driver/src/stm32f10x_flash.c ****     }
 843:Drivers/STM32F10x_StdPeriph_Driver/src/stm32f10x_flash.c ****   }         
 844:Drivers/STM32F10x_StdPeriph_Driver/src/stm32f10x_flash.c **** #endif /* STM32F10X_XL */
 845:Drivers/STM32F10x_StdPeriph_Driver/src/stm32f10x_flash.c ****    
 846:Drivers/STM32F10x_StdPeriph_Driver/src/stm32f10x_flash.c ****   /* Return the Program Status */
 847:Drivers/STM32F10x_StdPeriph_Driver/src/stm32f10x_flash.c ****   return status;
 848:Drivers/STM32F10x_StdPeriph_Driver/src/stm32f10x_flash.c **** }
 849:Drivers/STM32F10x_StdPeriph_Driver/src/stm32f10x_flash.c **** 
 850:Drivers/STM32F10x_StdPeriph_Driver/src/stm32f10x_flash.c **** /**
 851:Drivers/STM32F10x_StdPeriph_Driver/src/stm32f10x_flash.c ****   * @brief  Programs a half word at a specified address.
 852:Drivers/STM32F10x_StdPeriph_Driver/src/stm32f10x_flash.c ****   * @note   This function can be used for all STM32F10x devices.
 853:Drivers/STM32F10x_StdPeriph_Driver/src/stm32f10x_flash.c ****   * @param  Address: specifies the address to be programmed.
 854:Drivers/STM32F10x_StdPeriph_Driver/src/stm32f10x_flash.c ****   * @param  Data: specifies the data to be programmed.
 855:Drivers/STM32F10x_StdPeriph_Driver/src/stm32f10x_flash.c ****   * @retval FLASH Status: The returned value can be: FLASH_ERROR_PG,
 856:Drivers/STM32F10x_StdPeriph_Driver/src/stm32f10x_flash.c ****   *         FLASH_ERROR_WRP, FLASH_COMPLETE or FLASH_TIMEOUT. 
 857:Drivers/STM32F10x_StdPeriph_Driver/src/stm32f10x_flash.c ****   */
 858:Drivers/STM32F10x_StdPeriph_Driver/src/stm32f10x_flash.c **** FLASH_Status FLASH_ProgramHalfWord(uint32_t Address, uint16_t Data)
 859:Drivers/STM32F10x_StdPeriph_Driver/src/stm32f10x_flash.c **** {
 860:Drivers/STM32F10x_StdPeriph_Driver/src/stm32f10x_flash.c ****   FLASH_Status status = FLASH_COMPLETE;
 861:Drivers/STM32F10x_StdPeriph_Driver/src/stm32f10x_flash.c ****   /* Check the parameters */
 862:Drivers/STM32F10x_StdPeriph_Driver/src/stm32f10x_flash.c ****   assert_param(IS_FLASH_ADDRESS(Address));
 863:Drivers/STM32F10x_StdPeriph_Driver/src/stm32f10x_flash.c **** 
 864:Drivers/STM32F10x_StdPeriph_Driver/src/stm32f10x_flash.c **** #ifdef STM32F10X_XL
 865:Drivers/STM32F10x_StdPeriph_Driver/src/stm32f10x_flash.c ****   /* Wait for last operation to be completed */
 866:Drivers/STM32F10x_StdPeriph_Driver/src/stm32f10x_flash.c ****   status = FLASH_WaitForLastOperation(ProgramTimeout);
 867:Drivers/STM32F10x_StdPeriph_Driver/src/stm32f10x_flash.c ****   
 868:Drivers/STM32F10x_StdPeriph_Driver/src/stm32f10x_flash.c ****   if(Address < FLASH_BANK1_END_ADDRESS)
 869:Drivers/STM32F10x_StdPeriph_Driver/src/stm32f10x_flash.c ****   {
 870:Drivers/STM32F10x_StdPeriph_Driver/src/stm32f10x_flash.c ****     if(status == FLASH_COMPLETE)
 871:Drivers/STM32F10x_StdPeriph_Driver/src/stm32f10x_flash.c ****     {
 872:Drivers/STM32F10x_StdPeriph_Driver/src/stm32f10x_flash.c ****       /* if the previous operation is completed, proceed to program the new data */
 873:Drivers/STM32F10x_StdPeriph_Driver/src/stm32f10x_flash.c ****       FLASH->CR |= CR_PG_Set;
 874:Drivers/STM32F10x_StdPeriph_Driver/src/stm32f10x_flash.c ****   
 875:Drivers/STM32F10x_StdPeriph_Driver/src/stm32f10x_flash.c ****       *(__IO uint16_t*)Address = Data;
 876:Drivers/STM32F10x_StdPeriph_Driver/src/stm32f10x_flash.c ****       /* Wait for last operation to be completed */
 877:Drivers/STM32F10x_StdPeriph_Driver/src/stm32f10x_flash.c ****       status = FLASH_WaitForLastBank1Operation(ProgramTimeout);
 878:Drivers/STM32F10x_StdPeriph_Driver/src/stm32f10x_flash.c **** 
 879:Drivers/STM32F10x_StdPeriph_Driver/src/stm32f10x_flash.c ****       /* Disable the PG Bit */
 880:Drivers/STM32F10x_StdPeriph_Driver/src/stm32f10x_flash.c ****       FLASH->CR &= CR_PG_Reset;
 881:Drivers/STM32F10x_StdPeriph_Driver/src/stm32f10x_flash.c ****     }
 882:Drivers/STM32F10x_StdPeriph_Driver/src/stm32f10x_flash.c ****   }
 883:Drivers/STM32F10x_StdPeriph_Driver/src/stm32f10x_flash.c ****   else
 884:Drivers/STM32F10x_StdPeriph_Driver/src/stm32f10x_flash.c ****   {
 885:Drivers/STM32F10x_StdPeriph_Driver/src/stm32f10x_flash.c ****     if(status == FLASH_COMPLETE)
ARM GAS  /tmp/cc3Mf3YA.s 			page 21


 886:Drivers/STM32F10x_StdPeriph_Driver/src/stm32f10x_flash.c ****     {
 887:Drivers/STM32F10x_StdPeriph_Driver/src/stm32f10x_flash.c ****       /* if the previous operation is completed, proceed to program the new data */
 888:Drivers/STM32F10x_StdPeriph_Driver/src/stm32f10x_flash.c ****       FLASH->CR2 |= CR_PG_Set;
 889:Drivers/STM32F10x_StdPeriph_Driver/src/stm32f10x_flash.c ****   
 890:Drivers/STM32F10x_StdPeriph_Driver/src/stm32f10x_flash.c ****       *(__IO uint16_t*)Address = Data;
 891:Drivers/STM32F10x_StdPeriph_Driver/src/stm32f10x_flash.c ****       /* Wait for last operation to be completed */
 892:Drivers/STM32F10x_StdPeriph_Driver/src/stm32f10x_flash.c ****       status = FLASH_WaitForLastBank2Operation(ProgramTimeout);
 893:Drivers/STM32F10x_StdPeriph_Driver/src/stm32f10x_flash.c **** 
 894:Drivers/STM32F10x_StdPeriph_Driver/src/stm32f10x_flash.c ****       /* Disable the PG Bit */
 895:Drivers/STM32F10x_StdPeriph_Driver/src/stm32f10x_flash.c ****       FLASH->CR2 &= CR_PG_Reset;
 896:Drivers/STM32F10x_StdPeriph_Driver/src/stm32f10x_flash.c ****     }
 897:Drivers/STM32F10x_StdPeriph_Driver/src/stm32f10x_flash.c ****   }
 898:Drivers/STM32F10x_StdPeriph_Driver/src/stm32f10x_flash.c **** #else
 899:Drivers/STM32F10x_StdPeriph_Driver/src/stm32f10x_flash.c ****   /* Wait for last operation to be completed */
 900:Drivers/STM32F10x_StdPeriph_Driver/src/stm32f10x_flash.c ****   status = FLASH_WaitForLastOperation(ProgramTimeout);
 901:Drivers/STM32F10x_StdPeriph_Driver/src/stm32f10x_flash.c ****   
 902:Drivers/STM32F10x_StdPeriph_Driver/src/stm32f10x_flash.c ****   if(status == FLASH_COMPLETE)
 903:Drivers/STM32F10x_StdPeriph_Driver/src/stm32f10x_flash.c ****   {
 904:Drivers/STM32F10x_StdPeriph_Driver/src/stm32f10x_flash.c ****     /* if the previous operation is completed, proceed to program the new data */
 905:Drivers/STM32F10x_StdPeriph_Driver/src/stm32f10x_flash.c ****     FLASH->CR |= CR_PG_Set;
 906:Drivers/STM32F10x_StdPeriph_Driver/src/stm32f10x_flash.c ****   
 907:Drivers/STM32F10x_StdPeriph_Driver/src/stm32f10x_flash.c ****     *(__IO uint16_t*)Address = Data;
 908:Drivers/STM32F10x_StdPeriph_Driver/src/stm32f10x_flash.c ****     /* Wait for last operation to be completed */
 909:Drivers/STM32F10x_StdPeriph_Driver/src/stm32f10x_flash.c ****     status = FLASH_WaitForLastOperation(ProgramTimeout);
 910:Drivers/STM32F10x_StdPeriph_Driver/src/stm32f10x_flash.c ****     
 911:Drivers/STM32F10x_StdPeriph_Driver/src/stm32f10x_flash.c ****     /* Disable the PG Bit */
 912:Drivers/STM32F10x_StdPeriph_Driver/src/stm32f10x_flash.c ****     FLASH->CR &= CR_PG_Reset;
 913:Drivers/STM32F10x_StdPeriph_Driver/src/stm32f10x_flash.c ****   } 
 914:Drivers/STM32F10x_StdPeriph_Driver/src/stm32f10x_flash.c **** #endif  /* STM32F10X_XL */
 915:Drivers/STM32F10x_StdPeriph_Driver/src/stm32f10x_flash.c ****   
 916:Drivers/STM32F10x_StdPeriph_Driver/src/stm32f10x_flash.c ****   /* Return the Program Status */
 917:Drivers/STM32F10x_StdPeriph_Driver/src/stm32f10x_flash.c ****   return status;
 918:Drivers/STM32F10x_StdPeriph_Driver/src/stm32f10x_flash.c **** }
 919:Drivers/STM32F10x_StdPeriph_Driver/src/stm32f10x_flash.c **** 
 920:Drivers/STM32F10x_StdPeriph_Driver/src/stm32f10x_flash.c **** /**
 921:Drivers/STM32F10x_StdPeriph_Driver/src/stm32f10x_flash.c ****   * @brief  Programs a half word at a specified Option Byte Data address.
 922:Drivers/STM32F10x_StdPeriph_Driver/src/stm32f10x_flash.c ****   * @note   This function can be used for all STM32F10x devices.
 923:Drivers/STM32F10x_StdPeriph_Driver/src/stm32f10x_flash.c ****   * @param  Address: specifies the address to be programmed.
 924:Drivers/STM32F10x_StdPeriph_Driver/src/stm32f10x_flash.c ****   *   This parameter can be 0x1FFFF804 or 0x1FFFF806. 
 925:Drivers/STM32F10x_StdPeriph_Driver/src/stm32f10x_flash.c ****   * @param  Data: specifies the data to be programmed.
 926:Drivers/STM32F10x_StdPeriph_Driver/src/stm32f10x_flash.c ****   * @retval FLASH Status: The returned value can be: FLASH_ERROR_PG,
 927:Drivers/STM32F10x_StdPeriph_Driver/src/stm32f10x_flash.c ****   *         FLASH_ERROR_WRP, FLASH_COMPLETE or FLASH_TIMEOUT. 
 928:Drivers/STM32F10x_StdPeriph_Driver/src/stm32f10x_flash.c ****   */
 929:Drivers/STM32F10x_StdPeriph_Driver/src/stm32f10x_flash.c **** FLASH_Status FLASH_ProgramOptionByteData(uint32_t Address, uint8_t Data)
 930:Drivers/STM32F10x_StdPeriph_Driver/src/stm32f10x_flash.c **** {
 931:Drivers/STM32F10x_StdPeriph_Driver/src/stm32f10x_flash.c ****   FLASH_Status status = FLASH_COMPLETE;
 932:Drivers/STM32F10x_StdPeriph_Driver/src/stm32f10x_flash.c ****   /* Check the parameters */
 933:Drivers/STM32F10x_StdPeriph_Driver/src/stm32f10x_flash.c ****   assert_param(IS_OB_DATA_ADDRESS(Address));
 934:Drivers/STM32F10x_StdPeriph_Driver/src/stm32f10x_flash.c ****   status = FLASH_WaitForLastOperation(ProgramTimeout);
 935:Drivers/STM32F10x_StdPeriph_Driver/src/stm32f10x_flash.c **** 
 936:Drivers/STM32F10x_StdPeriph_Driver/src/stm32f10x_flash.c ****   if(status == FLASH_COMPLETE)
 937:Drivers/STM32F10x_StdPeriph_Driver/src/stm32f10x_flash.c ****   {
 938:Drivers/STM32F10x_StdPeriph_Driver/src/stm32f10x_flash.c ****     /* Authorize the small information block programming */
 939:Drivers/STM32F10x_StdPeriph_Driver/src/stm32f10x_flash.c ****     FLASH->OPTKEYR = FLASH_KEY1;
 940:Drivers/STM32F10x_StdPeriph_Driver/src/stm32f10x_flash.c ****     FLASH->OPTKEYR = FLASH_KEY2;
 941:Drivers/STM32F10x_StdPeriph_Driver/src/stm32f10x_flash.c ****     /* Enables the Option Bytes Programming operation */
 942:Drivers/STM32F10x_StdPeriph_Driver/src/stm32f10x_flash.c ****     FLASH->CR |= CR_OPTPG_Set; 
ARM GAS  /tmp/cc3Mf3YA.s 			page 22


 943:Drivers/STM32F10x_StdPeriph_Driver/src/stm32f10x_flash.c ****     *(__IO uint16_t*)Address = Data;
 944:Drivers/STM32F10x_StdPeriph_Driver/src/stm32f10x_flash.c ****     
 945:Drivers/STM32F10x_StdPeriph_Driver/src/stm32f10x_flash.c ****     /* Wait for last operation to be completed */
 946:Drivers/STM32F10x_StdPeriph_Driver/src/stm32f10x_flash.c ****     status = FLASH_WaitForLastOperation(ProgramTimeout);
 947:Drivers/STM32F10x_StdPeriph_Driver/src/stm32f10x_flash.c ****     if(status != FLASH_TIMEOUT)
 948:Drivers/STM32F10x_StdPeriph_Driver/src/stm32f10x_flash.c ****     {
 949:Drivers/STM32F10x_StdPeriph_Driver/src/stm32f10x_flash.c ****       /* if the program operation is completed, disable the OPTPG Bit */
 950:Drivers/STM32F10x_StdPeriph_Driver/src/stm32f10x_flash.c ****       FLASH->CR &= CR_OPTPG_Reset;
 951:Drivers/STM32F10x_StdPeriph_Driver/src/stm32f10x_flash.c ****     }
 952:Drivers/STM32F10x_StdPeriph_Driver/src/stm32f10x_flash.c ****   }
 953:Drivers/STM32F10x_StdPeriph_Driver/src/stm32f10x_flash.c ****   /* Return the Option Byte Data Program Status */
 954:Drivers/STM32F10x_StdPeriph_Driver/src/stm32f10x_flash.c ****   return status;
 955:Drivers/STM32F10x_StdPeriph_Driver/src/stm32f10x_flash.c **** }
 956:Drivers/STM32F10x_StdPeriph_Driver/src/stm32f10x_flash.c **** 
 957:Drivers/STM32F10x_StdPeriph_Driver/src/stm32f10x_flash.c **** /**
 958:Drivers/STM32F10x_StdPeriph_Driver/src/stm32f10x_flash.c ****   * @brief  Write protects the desired pages
 959:Drivers/STM32F10x_StdPeriph_Driver/src/stm32f10x_flash.c ****   * @note   This function can be used for all STM32F10x devices.
 960:Drivers/STM32F10x_StdPeriph_Driver/src/stm32f10x_flash.c ****   * @param  FLASH_Pages: specifies the address of the pages to be write protected.
 961:Drivers/STM32F10x_StdPeriph_Driver/src/stm32f10x_flash.c ****   *   This parameter can be:
 962:Drivers/STM32F10x_StdPeriph_Driver/src/stm32f10x_flash.c ****   *     @arg For @b STM32_Low-density_devices: value between FLASH_WRProt_Pages0to3 and FLASH_WRPro
 963:Drivers/STM32F10x_StdPeriph_Driver/src/stm32f10x_flash.c ****   *     @arg For @b STM32_Medium-density_devices: value between FLASH_WRProt_Pages0to3
 964:Drivers/STM32F10x_StdPeriph_Driver/src/stm32f10x_flash.c ****   *       and FLASH_WRProt_Pages124to127
 965:Drivers/STM32F10x_StdPeriph_Driver/src/stm32f10x_flash.c ****   *     @arg For @b STM32_High-density_devices: value between FLASH_WRProt_Pages0to1 and
 966:Drivers/STM32F10x_StdPeriph_Driver/src/stm32f10x_flash.c ****   *       FLASH_WRProt_Pages60to61 or FLASH_WRProt_Pages62to255
 967:Drivers/STM32F10x_StdPeriph_Driver/src/stm32f10x_flash.c ****   *     @arg For @b STM32_Connectivity_line_devices: value between FLASH_WRProt_Pages0to1 and
 968:Drivers/STM32F10x_StdPeriph_Driver/src/stm32f10x_flash.c ****   *       FLASH_WRProt_Pages60to61 or FLASH_WRProt_Pages62to127    
 969:Drivers/STM32F10x_StdPeriph_Driver/src/stm32f10x_flash.c ****   *     @arg For @b STM32_XL-density_devices: value between FLASH_WRProt_Pages0to1 and
 970:Drivers/STM32F10x_StdPeriph_Driver/src/stm32f10x_flash.c ****   *       FLASH_WRProt_Pages60to61 or FLASH_WRProt_Pages62to511
 971:Drivers/STM32F10x_StdPeriph_Driver/src/stm32f10x_flash.c ****   *     @arg FLASH_WRProt_AllPages
 972:Drivers/STM32F10x_StdPeriph_Driver/src/stm32f10x_flash.c ****   * @retval FLASH Status: The returned value can be: FLASH_ERROR_PG,
 973:Drivers/STM32F10x_StdPeriph_Driver/src/stm32f10x_flash.c ****   *         FLASH_ERROR_WRP, FLASH_COMPLETE or FLASH_TIMEOUT.
 974:Drivers/STM32F10x_StdPeriph_Driver/src/stm32f10x_flash.c ****   */
 975:Drivers/STM32F10x_StdPeriph_Driver/src/stm32f10x_flash.c **** FLASH_Status FLASH_EnableWriteProtection(uint32_t FLASH_Pages)
 976:Drivers/STM32F10x_StdPeriph_Driver/src/stm32f10x_flash.c **** {
 977:Drivers/STM32F10x_StdPeriph_Driver/src/stm32f10x_flash.c ****   uint16_t WRP0_Data = 0xFFFF, WRP1_Data = 0xFFFF, WRP2_Data = 0xFFFF, WRP3_Data = 0xFFFF;
 978:Drivers/STM32F10x_StdPeriph_Driver/src/stm32f10x_flash.c ****   
 979:Drivers/STM32F10x_StdPeriph_Driver/src/stm32f10x_flash.c ****   FLASH_Status status = FLASH_COMPLETE;
 980:Drivers/STM32F10x_StdPeriph_Driver/src/stm32f10x_flash.c ****   
 981:Drivers/STM32F10x_StdPeriph_Driver/src/stm32f10x_flash.c ****   /* Check the parameters */
 982:Drivers/STM32F10x_StdPeriph_Driver/src/stm32f10x_flash.c ****   assert_param(IS_FLASH_WRPROT_PAGE(FLASH_Pages));
 983:Drivers/STM32F10x_StdPeriph_Driver/src/stm32f10x_flash.c ****   
 984:Drivers/STM32F10x_StdPeriph_Driver/src/stm32f10x_flash.c ****   FLASH_Pages = (uint32_t)(~FLASH_Pages);
 985:Drivers/STM32F10x_StdPeriph_Driver/src/stm32f10x_flash.c ****   WRP0_Data = (uint16_t)(FLASH_Pages & WRP0_Mask);
 986:Drivers/STM32F10x_StdPeriph_Driver/src/stm32f10x_flash.c ****   WRP1_Data = (uint16_t)((FLASH_Pages & WRP1_Mask) >> 8);
 987:Drivers/STM32F10x_StdPeriph_Driver/src/stm32f10x_flash.c ****   WRP2_Data = (uint16_t)((FLASH_Pages & WRP2_Mask) >> 16);
 988:Drivers/STM32F10x_StdPeriph_Driver/src/stm32f10x_flash.c ****   WRP3_Data = (uint16_t)((FLASH_Pages & WRP3_Mask) >> 24);
 989:Drivers/STM32F10x_StdPeriph_Driver/src/stm32f10x_flash.c ****   
 990:Drivers/STM32F10x_StdPeriph_Driver/src/stm32f10x_flash.c ****   /* Wait for last operation to be completed */
 991:Drivers/STM32F10x_StdPeriph_Driver/src/stm32f10x_flash.c ****   status = FLASH_WaitForLastOperation(ProgramTimeout);
 992:Drivers/STM32F10x_StdPeriph_Driver/src/stm32f10x_flash.c ****   
 993:Drivers/STM32F10x_StdPeriph_Driver/src/stm32f10x_flash.c ****   if(status == FLASH_COMPLETE)
 994:Drivers/STM32F10x_StdPeriph_Driver/src/stm32f10x_flash.c ****   {
 995:Drivers/STM32F10x_StdPeriph_Driver/src/stm32f10x_flash.c ****     /* Authorizes the small information block programming */
 996:Drivers/STM32F10x_StdPeriph_Driver/src/stm32f10x_flash.c ****     FLASH->OPTKEYR = FLASH_KEY1;
 997:Drivers/STM32F10x_StdPeriph_Driver/src/stm32f10x_flash.c ****     FLASH->OPTKEYR = FLASH_KEY2;
 998:Drivers/STM32F10x_StdPeriph_Driver/src/stm32f10x_flash.c ****     FLASH->CR |= CR_OPTPG_Set;
 999:Drivers/STM32F10x_StdPeriph_Driver/src/stm32f10x_flash.c ****     if(WRP0_Data != 0xFF)
ARM GAS  /tmp/cc3Mf3YA.s 			page 23


1000:Drivers/STM32F10x_StdPeriph_Driver/src/stm32f10x_flash.c ****     {
1001:Drivers/STM32F10x_StdPeriph_Driver/src/stm32f10x_flash.c ****       OB->WRP0 = WRP0_Data;
1002:Drivers/STM32F10x_StdPeriph_Driver/src/stm32f10x_flash.c ****       
1003:Drivers/STM32F10x_StdPeriph_Driver/src/stm32f10x_flash.c ****       /* Wait for last operation to be completed */
1004:Drivers/STM32F10x_StdPeriph_Driver/src/stm32f10x_flash.c ****       status = FLASH_WaitForLastOperation(ProgramTimeout);
1005:Drivers/STM32F10x_StdPeriph_Driver/src/stm32f10x_flash.c ****     }
1006:Drivers/STM32F10x_StdPeriph_Driver/src/stm32f10x_flash.c ****     if((status == FLASH_COMPLETE) && (WRP1_Data != 0xFF))
1007:Drivers/STM32F10x_StdPeriph_Driver/src/stm32f10x_flash.c ****     {
1008:Drivers/STM32F10x_StdPeriph_Driver/src/stm32f10x_flash.c ****       OB->WRP1 = WRP1_Data;
1009:Drivers/STM32F10x_StdPeriph_Driver/src/stm32f10x_flash.c ****       
1010:Drivers/STM32F10x_StdPeriph_Driver/src/stm32f10x_flash.c ****       /* Wait for last operation to be completed */
1011:Drivers/STM32F10x_StdPeriph_Driver/src/stm32f10x_flash.c ****       status = FLASH_WaitForLastOperation(ProgramTimeout);
1012:Drivers/STM32F10x_StdPeriph_Driver/src/stm32f10x_flash.c ****     }
1013:Drivers/STM32F10x_StdPeriph_Driver/src/stm32f10x_flash.c ****     if((status == FLASH_COMPLETE) && (WRP2_Data != 0xFF))
1014:Drivers/STM32F10x_StdPeriph_Driver/src/stm32f10x_flash.c ****     {
1015:Drivers/STM32F10x_StdPeriph_Driver/src/stm32f10x_flash.c ****       OB->WRP2 = WRP2_Data;
1016:Drivers/STM32F10x_StdPeriph_Driver/src/stm32f10x_flash.c ****       
1017:Drivers/STM32F10x_StdPeriph_Driver/src/stm32f10x_flash.c ****       /* Wait for last operation to be completed */
1018:Drivers/STM32F10x_StdPeriph_Driver/src/stm32f10x_flash.c ****       status = FLASH_WaitForLastOperation(ProgramTimeout);
1019:Drivers/STM32F10x_StdPeriph_Driver/src/stm32f10x_flash.c ****     }
1020:Drivers/STM32F10x_StdPeriph_Driver/src/stm32f10x_flash.c ****     
1021:Drivers/STM32F10x_StdPeriph_Driver/src/stm32f10x_flash.c ****     if((status == FLASH_COMPLETE)&& (WRP3_Data != 0xFF))
1022:Drivers/STM32F10x_StdPeriph_Driver/src/stm32f10x_flash.c ****     {
1023:Drivers/STM32F10x_StdPeriph_Driver/src/stm32f10x_flash.c ****       OB->WRP3 = WRP3_Data;
1024:Drivers/STM32F10x_StdPeriph_Driver/src/stm32f10x_flash.c ****      
1025:Drivers/STM32F10x_StdPeriph_Driver/src/stm32f10x_flash.c ****       /* Wait for last operation to be completed */
1026:Drivers/STM32F10x_StdPeriph_Driver/src/stm32f10x_flash.c ****       status = FLASH_WaitForLastOperation(ProgramTimeout);
1027:Drivers/STM32F10x_StdPeriph_Driver/src/stm32f10x_flash.c ****     }
1028:Drivers/STM32F10x_StdPeriph_Driver/src/stm32f10x_flash.c ****           
1029:Drivers/STM32F10x_StdPeriph_Driver/src/stm32f10x_flash.c ****     if(status != FLASH_TIMEOUT)
1030:Drivers/STM32F10x_StdPeriph_Driver/src/stm32f10x_flash.c ****     {
1031:Drivers/STM32F10x_StdPeriph_Driver/src/stm32f10x_flash.c ****       /* if the program operation is completed, disable the OPTPG Bit */
1032:Drivers/STM32F10x_StdPeriph_Driver/src/stm32f10x_flash.c ****       FLASH->CR &= CR_OPTPG_Reset;
1033:Drivers/STM32F10x_StdPeriph_Driver/src/stm32f10x_flash.c ****     }
1034:Drivers/STM32F10x_StdPeriph_Driver/src/stm32f10x_flash.c ****   } 
1035:Drivers/STM32F10x_StdPeriph_Driver/src/stm32f10x_flash.c ****   /* Return the write protection operation Status */
1036:Drivers/STM32F10x_StdPeriph_Driver/src/stm32f10x_flash.c ****   return status;       
1037:Drivers/STM32F10x_StdPeriph_Driver/src/stm32f10x_flash.c **** }
1038:Drivers/STM32F10x_StdPeriph_Driver/src/stm32f10x_flash.c **** 
1039:Drivers/STM32F10x_StdPeriph_Driver/src/stm32f10x_flash.c **** /**
1040:Drivers/STM32F10x_StdPeriph_Driver/src/stm32f10x_flash.c ****   * @brief  Enables or disables the read out protection.
1041:Drivers/STM32F10x_StdPeriph_Driver/src/stm32f10x_flash.c ****   * @note   If the user has already programmed the other option bytes before calling 
1042:Drivers/STM32F10x_StdPeriph_Driver/src/stm32f10x_flash.c ****   *   this function, he must re-program them since this function erases all option bytes.
1043:Drivers/STM32F10x_StdPeriph_Driver/src/stm32f10x_flash.c ****   * @note   This function can be used for all STM32F10x devices.
1044:Drivers/STM32F10x_StdPeriph_Driver/src/stm32f10x_flash.c ****   * @param  Newstate: new state of the ReadOut Protection.
1045:Drivers/STM32F10x_StdPeriph_Driver/src/stm32f10x_flash.c ****   *   This parameter can be: ENABLE or DISABLE.
1046:Drivers/STM32F10x_StdPeriph_Driver/src/stm32f10x_flash.c ****   * @retval FLASH Status: The returned value can be: FLASH_ERROR_PG,
1047:Drivers/STM32F10x_StdPeriph_Driver/src/stm32f10x_flash.c ****   *         FLASH_ERROR_WRP, FLASH_COMPLETE or FLASH_TIMEOUT.
1048:Drivers/STM32F10x_StdPeriph_Driver/src/stm32f10x_flash.c ****   */
1049:Drivers/STM32F10x_StdPeriph_Driver/src/stm32f10x_flash.c **** FLASH_Status FLASH_ReadOutProtection(FunctionalState NewState)
1050:Drivers/STM32F10x_StdPeriph_Driver/src/stm32f10x_flash.c **** {
1051:Drivers/STM32F10x_StdPeriph_Driver/src/stm32f10x_flash.c ****   FLASH_Status status = FLASH_COMPLETE;
1052:Drivers/STM32F10x_StdPeriph_Driver/src/stm32f10x_flash.c ****   /* Check the parameters */
1053:Drivers/STM32F10x_StdPeriph_Driver/src/stm32f10x_flash.c ****   assert_param(IS_FUNCTIONAL_STATE(NewState));
1054:Drivers/STM32F10x_StdPeriph_Driver/src/stm32f10x_flash.c ****   status = FLASH_WaitForLastOperation(EraseTimeout);
1055:Drivers/STM32F10x_StdPeriph_Driver/src/stm32f10x_flash.c ****   if(status == FLASH_COMPLETE)
1056:Drivers/STM32F10x_StdPeriph_Driver/src/stm32f10x_flash.c ****   {
ARM GAS  /tmp/cc3Mf3YA.s 			page 24


1057:Drivers/STM32F10x_StdPeriph_Driver/src/stm32f10x_flash.c ****     /* Authorizes the small information block programming */
1058:Drivers/STM32F10x_StdPeriph_Driver/src/stm32f10x_flash.c ****     FLASH->OPTKEYR = FLASH_KEY1;
1059:Drivers/STM32F10x_StdPeriph_Driver/src/stm32f10x_flash.c ****     FLASH->OPTKEYR = FLASH_KEY2;
1060:Drivers/STM32F10x_StdPeriph_Driver/src/stm32f10x_flash.c ****     FLASH->CR |= CR_OPTER_Set;
1061:Drivers/STM32F10x_StdPeriph_Driver/src/stm32f10x_flash.c ****     FLASH->CR |= CR_STRT_Set;
1062:Drivers/STM32F10x_StdPeriph_Driver/src/stm32f10x_flash.c ****     /* Wait for last operation to be completed */
1063:Drivers/STM32F10x_StdPeriph_Driver/src/stm32f10x_flash.c ****     status = FLASH_WaitForLastOperation(EraseTimeout);
1064:Drivers/STM32F10x_StdPeriph_Driver/src/stm32f10x_flash.c ****     if(status == FLASH_COMPLETE)
1065:Drivers/STM32F10x_StdPeriph_Driver/src/stm32f10x_flash.c ****     {
1066:Drivers/STM32F10x_StdPeriph_Driver/src/stm32f10x_flash.c ****       /* if the erase operation is completed, disable the OPTER Bit */
1067:Drivers/STM32F10x_StdPeriph_Driver/src/stm32f10x_flash.c ****       FLASH->CR &= CR_OPTER_Reset;
1068:Drivers/STM32F10x_StdPeriph_Driver/src/stm32f10x_flash.c ****       /* Enable the Option Bytes Programming operation */
1069:Drivers/STM32F10x_StdPeriph_Driver/src/stm32f10x_flash.c ****       FLASH->CR |= CR_OPTPG_Set; 
1070:Drivers/STM32F10x_StdPeriph_Driver/src/stm32f10x_flash.c ****       if(NewState != DISABLE)
1071:Drivers/STM32F10x_StdPeriph_Driver/src/stm32f10x_flash.c ****       {
1072:Drivers/STM32F10x_StdPeriph_Driver/src/stm32f10x_flash.c ****         OB->RDP = 0x00;
1073:Drivers/STM32F10x_StdPeriph_Driver/src/stm32f10x_flash.c ****       }
1074:Drivers/STM32F10x_StdPeriph_Driver/src/stm32f10x_flash.c ****       else
1075:Drivers/STM32F10x_StdPeriph_Driver/src/stm32f10x_flash.c ****       {
1076:Drivers/STM32F10x_StdPeriph_Driver/src/stm32f10x_flash.c ****         OB->RDP = RDP_Key;  
1077:Drivers/STM32F10x_StdPeriph_Driver/src/stm32f10x_flash.c ****       }
1078:Drivers/STM32F10x_StdPeriph_Driver/src/stm32f10x_flash.c ****       /* Wait for last operation to be completed */
1079:Drivers/STM32F10x_StdPeriph_Driver/src/stm32f10x_flash.c ****       status = FLASH_WaitForLastOperation(EraseTimeout); 
1080:Drivers/STM32F10x_StdPeriph_Driver/src/stm32f10x_flash.c ****     
1081:Drivers/STM32F10x_StdPeriph_Driver/src/stm32f10x_flash.c ****       if(status != FLASH_TIMEOUT)
1082:Drivers/STM32F10x_StdPeriph_Driver/src/stm32f10x_flash.c ****       {
1083:Drivers/STM32F10x_StdPeriph_Driver/src/stm32f10x_flash.c ****         /* if the program operation is completed, disable the OPTPG Bit */
1084:Drivers/STM32F10x_StdPeriph_Driver/src/stm32f10x_flash.c ****         FLASH->CR &= CR_OPTPG_Reset;
1085:Drivers/STM32F10x_StdPeriph_Driver/src/stm32f10x_flash.c ****       }
1086:Drivers/STM32F10x_StdPeriph_Driver/src/stm32f10x_flash.c ****     }
1087:Drivers/STM32F10x_StdPeriph_Driver/src/stm32f10x_flash.c ****     else 
1088:Drivers/STM32F10x_StdPeriph_Driver/src/stm32f10x_flash.c ****     {
1089:Drivers/STM32F10x_StdPeriph_Driver/src/stm32f10x_flash.c ****       if(status != FLASH_TIMEOUT)
1090:Drivers/STM32F10x_StdPeriph_Driver/src/stm32f10x_flash.c ****       {
1091:Drivers/STM32F10x_StdPeriph_Driver/src/stm32f10x_flash.c ****         /* Disable the OPTER Bit */
1092:Drivers/STM32F10x_StdPeriph_Driver/src/stm32f10x_flash.c ****         FLASH->CR &= CR_OPTER_Reset;
1093:Drivers/STM32F10x_StdPeriph_Driver/src/stm32f10x_flash.c ****       }
1094:Drivers/STM32F10x_StdPeriph_Driver/src/stm32f10x_flash.c ****     }
1095:Drivers/STM32F10x_StdPeriph_Driver/src/stm32f10x_flash.c ****   }
1096:Drivers/STM32F10x_StdPeriph_Driver/src/stm32f10x_flash.c ****   /* Return the protection operation Status */
1097:Drivers/STM32F10x_StdPeriph_Driver/src/stm32f10x_flash.c ****   return status;       
1098:Drivers/STM32F10x_StdPeriph_Driver/src/stm32f10x_flash.c **** }
1099:Drivers/STM32F10x_StdPeriph_Driver/src/stm32f10x_flash.c **** 
1100:Drivers/STM32F10x_StdPeriph_Driver/src/stm32f10x_flash.c **** /**
1101:Drivers/STM32F10x_StdPeriph_Driver/src/stm32f10x_flash.c ****   * @brief  Programs the FLASH User Option Byte: IWDG_SW / RST_STOP / RST_STDBY.
1102:Drivers/STM32F10x_StdPeriph_Driver/src/stm32f10x_flash.c ****   * @note   This function can be used for all STM32F10x devices.
1103:Drivers/STM32F10x_StdPeriph_Driver/src/stm32f10x_flash.c ****   * @param  OB_IWDG: Selects the IWDG mode
1104:Drivers/STM32F10x_StdPeriph_Driver/src/stm32f10x_flash.c ****   *   This parameter can be one of the following values:
1105:Drivers/STM32F10x_StdPeriph_Driver/src/stm32f10x_flash.c ****   *     @arg OB_IWDG_SW: Software IWDG selected
1106:Drivers/STM32F10x_StdPeriph_Driver/src/stm32f10x_flash.c ****   *     @arg OB_IWDG_HW: Hardware IWDG selected
1107:Drivers/STM32F10x_StdPeriph_Driver/src/stm32f10x_flash.c ****   * @param  OB_STOP: Reset event when entering STOP mode.
1108:Drivers/STM32F10x_StdPeriph_Driver/src/stm32f10x_flash.c ****   *   This parameter can be one of the following values:
1109:Drivers/STM32F10x_StdPeriph_Driver/src/stm32f10x_flash.c ****   *     @arg OB_STOP_NoRST: No reset generated when entering in STOP
1110:Drivers/STM32F10x_StdPeriph_Driver/src/stm32f10x_flash.c ****   *     @arg OB_STOP_RST: Reset generated when entering in STOP
1111:Drivers/STM32F10x_StdPeriph_Driver/src/stm32f10x_flash.c ****   * @param  OB_STDBY: Reset event when entering Standby mode.
1112:Drivers/STM32F10x_StdPeriph_Driver/src/stm32f10x_flash.c ****   *   This parameter can be one of the following values:
1113:Drivers/STM32F10x_StdPeriph_Driver/src/stm32f10x_flash.c ****   *     @arg OB_STDBY_NoRST: No reset generated when entering in STANDBY
ARM GAS  /tmp/cc3Mf3YA.s 			page 25


1114:Drivers/STM32F10x_StdPeriph_Driver/src/stm32f10x_flash.c ****   *     @arg OB_STDBY_RST: Reset generated when entering in STANDBY
1115:Drivers/STM32F10x_StdPeriph_Driver/src/stm32f10x_flash.c ****   * @retval FLASH Status: The returned value can be: FLASH_ERROR_PG, 
1116:Drivers/STM32F10x_StdPeriph_Driver/src/stm32f10x_flash.c ****   *         FLASH_ERROR_WRP, FLASH_COMPLETE or FLASH_TIMEOUT.
1117:Drivers/STM32F10x_StdPeriph_Driver/src/stm32f10x_flash.c ****   */
1118:Drivers/STM32F10x_StdPeriph_Driver/src/stm32f10x_flash.c **** FLASH_Status FLASH_UserOptionByteConfig(uint16_t OB_IWDG, uint16_t OB_STOP, uint16_t OB_STDBY)
1119:Drivers/STM32F10x_StdPeriph_Driver/src/stm32f10x_flash.c **** {
1120:Drivers/STM32F10x_StdPeriph_Driver/src/stm32f10x_flash.c ****   FLASH_Status status = FLASH_COMPLETE; 
1121:Drivers/STM32F10x_StdPeriph_Driver/src/stm32f10x_flash.c **** 
1122:Drivers/STM32F10x_StdPeriph_Driver/src/stm32f10x_flash.c ****   /* Check the parameters */
1123:Drivers/STM32F10x_StdPeriph_Driver/src/stm32f10x_flash.c ****   assert_param(IS_OB_IWDG_SOURCE(OB_IWDG));
1124:Drivers/STM32F10x_StdPeriph_Driver/src/stm32f10x_flash.c ****   assert_param(IS_OB_STOP_SOURCE(OB_STOP));
1125:Drivers/STM32F10x_StdPeriph_Driver/src/stm32f10x_flash.c ****   assert_param(IS_OB_STDBY_SOURCE(OB_STDBY));
1126:Drivers/STM32F10x_StdPeriph_Driver/src/stm32f10x_flash.c **** 
1127:Drivers/STM32F10x_StdPeriph_Driver/src/stm32f10x_flash.c ****   /* Authorize the small information block programming */
1128:Drivers/STM32F10x_StdPeriph_Driver/src/stm32f10x_flash.c ****   FLASH->OPTKEYR = FLASH_KEY1;
1129:Drivers/STM32F10x_StdPeriph_Driver/src/stm32f10x_flash.c ****   FLASH->OPTKEYR = FLASH_KEY2;
1130:Drivers/STM32F10x_StdPeriph_Driver/src/stm32f10x_flash.c ****   
1131:Drivers/STM32F10x_StdPeriph_Driver/src/stm32f10x_flash.c ****   /* Wait for last operation to be completed */
1132:Drivers/STM32F10x_StdPeriph_Driver/src/stm32f10x_flash.c ****   status = FLASH_WaitForLastOperation(ProgramTimeout);
1133:Drivers/STM32F10x_StdPeriph_Driver/src/stm32f10x_flash.c ****   
1134:Drivers/STM32F10x_StdPeriph_Driver/src/stm32f10x_flash.c ****   if(status == FLASH_COMPLETE)
1135:Drivers/STM32F10x_StdPeriph_Driver/src/stm32f10x_flash.c ****   {  
1136:Drivers/STM32F10x_StdPeriph_Driver/src/stm32f10x_flash.c ****     /* Enable the Option Bytes Programming operation */
1137:Drivers/STM32F10x_StdPeriph_Driver/src/stm32f10x_flash.c ****     FLASH->CR |= CR_OPTPG_Set; 
1138:Drivers/STM32F10x_StdPeriph_Driver/src/stm32f10x_flash.c ****            
1139:Drivers/STM32F10x_StdPeriph_Driver/src/stm32f10x_flash.c ****     OB->USER = OB_IWDG | (uint16_t)(OB_STOP | (uint16_t)(OB_STDBY | ((uint16_t)0xF8))); 
1140:Drivers/STM32F10x_StdPeriph_Driver/src/stm32f10x_flash.c ****   
1141:Drivers/STM32F10x_StdPeriph_Driver/src/stm32f10x_flash.c ****     /* Wait for last operation to be completed */
1142:Drivers/STM32F10x_StdPeriph_Driver/src/stm32f10x_flash.c ****     status = FLASH_WaitForLastOperation(ProgramTimeout);
1143:Drivers/STM32F10x_StdPeriph_Driver/src/stm32f10x_flash.c ****     if(status != FLASH_TIMEOUT)
1144:Drivers/STM32F10x_StdPeriph_Driver/src/stm32f10x_flash.c ****     {
1145:Drivers/STM32F10x_StdPeriph_Driver/src/stm32f10x_flash.c ****       /* if the program operation is completed, disable the OPTPG Bit */
1146:Drivers/STM32F10x_StdPeriph_Driver/src/stm32f10x_flash.c ****       FLASH->CR &= CR_OPTPG_Reset;
1147:Drivers/STM32F10x_StdPeriph_Driver/src/stm32f10x_flash.c ****     }
1148:Drivers/STM32F10x_StdPeriph_Driver/src/stm32f10x_flash.c ****   }    
1149:Drivers/STM32F10x_StdPeriph_Driver/src/stm32f10x_flash.c ****   /* Return the Option Byte program Status */
1150:Drivers/STM32F10x_StdPeriph_Driver/src/stm32f10x_flash.c ****   return status;
1151:Drivers/STM32F10x_StdPeriph_Driver/src/stm32f10x_flash.c **** }
1152:Drivers/STM32F10x_StdPeriph_Driver/src/stm32f10x_flash.c **** 
1153:Drivers/STM32F10x_StdPeriph_Driver/src/stm32f10x_flash.c **** #ifdef STM32F10X_XL
1154:Drivers/STM32F10x_StdPeriph_Driver/src/stm32f10x_flash.c **** /**
1155:Drivers/STM32F10x_StdPeriph_Driver/src/stm32f10x_flash.c ****   * @brief  Configures to boot from Bank1 or Bank2.  
1156:Drivers/STM32F10x_StdPeriph_Driver/src/stm32f10x_flash.c ****   * @note   This function can be used only for STM32F10x_XL density devices.
1157:Drivers/STM32F10x_StdPeriph_Driver/src/stm32f10x_flash.c ****   * @param  FLASH_BOOT: select the FLASH Bank to boot from.
1158:Drivers/STM32F10x_StdPeriph_Driver/src/stm32f10x_flash.c ****   *   This parameter can be one of the following values:
1159:Drivers/STM32F10x_StdPeriph_Driver/src/stm32f10x_flash.c ****   *     @arg FLASH_BOOT_Bank1: At startup, if boot pins are set in boot from user Flash
1160:Drivers/STM32F10x_StdPeriph_Driver/src/stm32f10x_flash.c ****   *        position and this parameter is selected the device will boot from Bank1(Default).
1161:Drivers/STM32F10x_StdPeriph_Driver/src/stm32f10x_flash.c ****   *     @arg FLASH_BOOT_Bank2: At startup, if boot pins are set in boot from user Flash
1162:Drivers/STM32F10x_StdPeriph_Driver/src/stm32f10x_flash.c ****   *        position and this parameter is selected the device will boot from Bank2 or Bank1,
1163:Drivers/STM32F10x_StdPeriph_Driver/src/stm32f10x_flash.c ****   *        depending on the activation of the bank. The active banks are checked in
1164:Drivers/STM32F10x_StdPeriph_Driver/src/stm32f10x_flash.c ****   *        the following order: Bank2, followed by Bank1.
1165:Drivers/STM32F10x_StdPeriph_Driver/src/stm32f10x_flash.c ****   *        The active bank is recognized by the value programmed at the base address
1166:Drivers/STM32F10x_StdPeriph_Driver/src/stm32f10x_flash.c ****   *        of the respective bank (corresponding to the initial stack pointer value
1167:Drivers/STM32F10x_StdPeriph_Driver/src/stm32f10x_flash.c ****   *        in the interrupt vector table).
1168:Drivers/STM32F10x_StdPeriph_Driver/src/stm32f10x_flash.c ****   *        For more information, please refer to AN2606 from www.st.com.    
1169:Drivers/STM32F10x_StdPeriph_Driver/src/stm32f10x_flash.c ****   * @retval FLASH Status: The returned value can be: FLASH_ERROR_PG, 
1170:Drivers/STM32F10x_StdPeriph_Driver/src/stm32f10x_flash.c ****   *         FLASH_ERROR_WRP, FLASH_COMPLETE or FLASH_TIMEOUT.
ARM GAS  /tmp/cc3Mf3YA.s 			page 26


1171:Drivers/STM32F10x_StdPeriph_Driver/src/stm32f10x_flash.c ****   */
1172:Drivers/STM32F10x_StdPeriph_Driver/src/stm32f10x_flash.c **** FLASH_Status FLASH_BootConfig(uint16_t FLASH_BOOT)
1173:Drivers/STM32F10x_StdPeriph_Driver/src/stm32f10x_flash.c **** { 
1174:Drivers/STM32F10x_StdPeriph_Driver/src/stm32f10x_flash.c ****   FLASH_Status status = FLASH_COMPLETE; 
1175:Drivers/STM32F10x_StdPeriph_Driver/src/stm32f10x_flash.c ****   assert_param(IS_FLASH_BOOT(FLASH_BOOT));
1176:Drivers/STM32F10x_StdPeriph_Driver/src/stm32f10x_flash.c ****   /* Authorize the small information block programming */
1177:Drivers/STM32F10x_StdPeriph_Driver/src/stm32f10x_flash.c ****   FLASH->OPTKEYR = FLASH_KEY1;
1178:Drivers/STM32F10x_StdPeriph_Driver/src/stm32f10x_flash.c ****   FLASH->OPTKEYR = FLASH_KEY2;
1179:Drivers/STM32F10x_StdPeriph_Driver/src/stm32f10x_flash.c ****   
1180:Drivers/STM32F10x_StdPeriph_Driver/src/stm32f10x_flash.c ****   /* Wait for last operation to be completed */
1181:Drivers/STM32F10x_StdPeriph_Driver/src/stm32f10x_flash.c ****   status = FLASH_WaitForLastOperation(ProgramTimeout);
1182:Drivers/STM32F10x_StdPeriph_Driver/src/stm32f10x_flash.c ****   
1183:Drivers/STM32F10x_StdPeriph_Driver/src/stm32f10x_flash.c ****   if(status == FLASH_COMPLETE)
1184:Drivers/STM32F10x_StdPeriph_Driver/src/stm32f10x_flash.c ****   {  
1185:Drivers/STM32F10x_StdPeriph_Driver/src/stm32f10x_flash.c ****     /* Enable the Option Bytes Programming operation */
1186:Drivers/STM32F10x_StdPeriph_Driver/src/stm32f10x_flash.c ****     FLASH->CR |= CR_OPTPG_Set; 
1187:Drivers/STM32F10x_StdPeriph_Driver/src/stm32f10x_flash.c **** 
1188:Drivers/STM32F10x_StdPeriph_Driver/src/stm32f10x_flash.c ****     if(FLASH_BOOT == FLASH_BOOT_Bank1)
1189:Drivers/STM32F10x_StdPeriph_Driver/src/stm32f10x_flash.c ****     {
1190:Drivers/STM32F10x_StdPeriph_Driver/src/stm32f10x_flash.c ****       OB->USER |= OB_USER_BFB2;
1191:Drivers/STM32F10x_StdPeriph_Driver/src/stm32f10x_flash.c ****     }
1192:Drivers/STM32F10x_StdPeriph_Driver/src/stm32f10x_flash.c ****     else
1193:Drivers/STM32F10x_StdPeriph_Driver/src/stm32f10x_flash.c ****     {
1194:Drivers/STM32F10x_StdPeriph_Driver/src/stm32f10x_flash.c ****       OB->USER &= (uint16_t)(~(uint16_t)(OB_USER_BFB2));
1195:Drivers/STM32F10x_StdPeriph_Driver/src/stm32f10x_flash.c ****     }
1196:Drivers/STM32F10x_StdPeriph_Driver/src/stm32f10x_flash.c ****     /* Wait for last operation to be completed */
1197:Drivers/STM32F10x_StdPeriph_Driver/src/stm32f10x_flash.c ****     status = FLASH_WaitForLastOperation(ProgramTimeout);
1198:Drivers/STM32F10x_StdPeriph_Driver/src/stm32f10x_flash.c ****     if(status != FLASH_TIMEOUT)
1199:Drivers/STM32F10x_StdPeriph_Driver/src/stm32f10x_flash.c ****     {
1200:Drivers/STM32F10x_StdPeriph_Driver/src/stm32f10x_flash.c ****       /* if the program operation is completed, disable the OPTPG Bit */
1201:Drivers/STM32F10x_StdPeriph_Driver/src/stm32f10x_flash.c ****       FLASH->CR &= CR_OPTPG_Reset;
1202:Drivers/STM32F10x_StdPeriph_Driver/src/stm32f10x_flash.c ****     }
1203:Drivers/STM32F10x_StdPeriph_Driver/src/stm32f10x_flash.c ****   }    
1204:Drivers/STM32F10x_StdPeriph_Driver/src/stm32f10x_flash.c ****   /* Return the Option Byte program Status */
1205:Drivers/STM32F10x_StdPeriph_Driver/src/stm32f10x_flash.c ****   return status;
1206:Drivers/STM32F10x_StdPeriph_Driver/src/stm32f10x_flash.c **** }
1207:Drivers/STM32F10x_StdPeriph_Driver/src/stm32f10x_flash.c **** #endif /* STM32F10X_XL */
1208:Drivers/STM32F10x_StdPeriph_Driver/src/stm32f10x_flash.c **** 
1209:Drivers/STM32F10x_StdPeriph_Driver/src/stm32f10x_flash.c **** /**
1210:Drivers/STM32F10x_StdPeriph_Driver/src/stm32f10x_flash.c ****   * @brief  Returns the FLASH User Option Bytes values.
1211:Drivers/STM32F10x_StdPeriph_Driver/src/stm32f10x_flash.c ****   * @note   This function can be used for all STM32F10x devices.
1212:Drivers/STM32F10x_StdPeriph_Driver/src/stm32f10x_flash.c ****   * @param  None
1213:Drivers/STM32F10x_StdPeriph_Driver/src/stm32f10x_flash.c ****   * @retval The FLASH User Option Bytes values:IWDG_SW(Bit0), RST_STOP(Bit1)
1214:Drivers/STM32F10x_StdPeriph_Driver/src/stm32f10x_flash.c ****   *         and RST_STDBY(Bit2).
1215:Drivers/STM32F10x_StdPeriph_Driver/src/stm32f10x_flash.c ****   */
1216:Drivers/STM32F10x_StdPeriph_Driver/src/stm32f10x_flash.c **** uint32_t FLASH_GetUserOptionByte(void)
1217:Drivers/STM32F10x_StdPeriph_Driver/src/stm32f10x_flash.c **** {
 271              		.loc 1 1217 1 is_stmt 1 view -0
 272              		.cfi_startproc
 273              		@ args = 0, pretend = 0, frame = 0
 274              		@ frame_needed = 0, uses_anonymous_args = 0
 275              		@ link register save eliminated.
1218:Drivers/STM32F10x_StdPeriph_Driver/src/stm32f10x_flash.c ****   /* Return the User Option Byte */
1219:Drivers/STM32F10x_StdPeriph_Driver/src/stm32f10x_flash.c ****   return (uint32_t)(FLASH->OBR >> 2);
 276              		.loc 1 1219 3 view .LVU53
 277              		.loc 1 1219 26 is_stmt 0 view .LVU54
 278 0000 014B     		ldr	r3, .L23
ARM GAS  /tmp/cc3Mf3YA.s 			page 27


 279 0002 D869     		ldr	r0, [r3, #28]
1220:Drivers/STM32F10x_StdPeriph_Driver/src/stm32f10x_flash.c **** }
 280              		.loc 1 1220 1 view .LVU55
 281 0004 8008     		lsrs	r0, r0, #2
 282 0006 7047     		bx	lr
 283              	.L24:
 284              		.align	2
 285              	.L23:
 286 0008 00200240 		.word	1073881088
 287              		.cfi_endproc
 288              	.LFE82:
 290              		.section	.text.FLASH_GetWriteProtectionOptionByte,"ax",%progbits
 291              		.align	1
 292              		.global	FLASH_GetWriteProtectionOptionByte
 293              		.syntax unified
 294              		.thumb
 295              		.thumb_func
 297              	FLASH_GetWriteProtectionOptionByte:
 298              	.LFB83:
1221:Drivers/STM32F10x_StdPeriph_Driver/src/stm32f10x_flash.c **** 
1222:Drivers/STM32F10x_StdPeriph_Driver/src/stm32f10x_flash.c **** /**
1223:Drivers/STM32F10x_StdPeriph_Driver/src/stm32f10x_flash.c ****   * @brief  Returns the FLASH Write Protection Option Bytes Register value.
1224:Drivers/STM32F10x_StdPeriph_Driver/src/stm32f10x_flash.c ****   * @note   This function can be used for all STM32F10x devices.
1225:Drivers/STM32F10x_StdPeriph_Driver/src/stm32f10x_flash.c ****   * @param  None
1226:Drivers/STM32F10x_StdPeriph_Driver/src/stm32f10x_flash.c ****   * @retval The FLASH Write Protection  Option Bytes Register value
1227:Drivers/STM32F10x_StdPeriph_Driver/src/stm32f10x_flash.c ****   */
1228:Drivers/STM32F10x_StdPeriph_Driver/src/stm32f10x_flash.c **** uint32_t FLASH_GetWriteProtectionOptionByte(void)
1229:Drivers/STM32F10x_StdPeriph_Driver/src/stm32f10x_flash.c **** {
 299              		.loc 1 1229 1 is_stmt 1 view -0
 300              		.cfi_startproc
 301              		@ args = 0, pretend = 0, frame = 0
 302              		@ frame_needed = 0, uses_anonymous_args = 0
 303              		@ link register save eliminated.
1230:Drivers/STM32F10x_StdPeriph_Driver/src/stm32f10x_flash.c ****   /* Return the Flash write protection Register value */
1231:Drivers/STM32F10x_StdPeriph_Driver/src/stm32f10x_flash.c ****   return (uint32_t)(FLASH->WRPR);
 304              		.loc 1 1231 3 view .LVU57
 305              		.loc 1 1231 10 is_stmt 0 view .LVU58
 306 0000 014B     		ldr	r3, .L26
 307 0002 186A     		ldr	r0, [r3, #32]
1232:Drivers/STM32F10x_StdPeriph_Driver/src/stm32f10x_flash.c **** }
 308              		.loc 1 1232 1 view .LVU59
 309 0004 7047     		bx	lr
 310              	.L27:
 311 0006 00BF     		.align	2
 312              	.L26:
 313 0008 00200240 		.word	1073881088
 314              		.cfi_endproc
 315              	.LFE83:
 317              		.section	.text.FLASH_GetReadOutProtectionStatus,"ax",%progbits
 318              		.align	1
 319              		.global	FLASH_GetReadOutProtectionStatus
 320              		.syntax unified
 321              		.thumb
 322              		.thumb_func
 324              	FLASH_GetReadOutProtectionStatus:
 325              	.LFB84:
1233:Drivers/STM32F10x_StdPeriph_Driver/src/stm32f10x_flash.c **** 
ARM GAS  /tmp/cc3Mf3YA.s 			page 28


1234:Drivers/STM32F10x_StdPeriph_Driver/src/stm32f10x_flash.c **** /**
1235:Drivers/STM32F10x_StdPeriph_Driver/src/stm32f10x_flash.c ****   * @brief  Checks whether the FLASH Read Out Protection Status is set or not.
1236:Drivers/STM32F10x_StdPeriph_Driver/src/stm32f10x_flash.c ****   * @note   This function can be used for all STM32F10x devices.
1237:Drivers/STM32F10x_StdPeriph_Driver/src/stm32f10x_flash.c ****   * @param  None
1238:Drivers/STM32F10x_StdPeriph_Driver/src/stm32f10x_flash.c ****   * @retval FLASH ReadOut Protection Status(SET or RESET)
1239:Drivers/STM32F10x_StdPeriph_Driver/src/stm32f10x_flash.c ****   */
1240:Drivers/STM32F10x_StdPeriph_Driver/src/stm32f10x_flash.c **** FlagStatus FLASH_GetReadOutProtectionStatus(void)
1241:Drivers/STM32F10x_StdPeriph_Driver/src/stm32f10x_flash.c **** {
 326              		.loc 1 1241 1 is_stmt 1 view -0
 327              		.cfi_startproc
 328              		@ args = 0, pretend = 0, frame = 0
 329              		@ frame_needed = 0, uses_anonymous_args = 0
 330              		@ link register save eliminated.
1242:Drivers/STM32F10x_StdPeriph_Driver/src/stm32f10x_flash.c ****   FlagStatus readoutstatus = RESET;
 331              		.loc 1 1242 3 view .LVU61
 332              	.LVL6:
1243:Drivers/STM32F10x_StdPeriph_Driver/src/stm32f10x_flash.c ****   if ((FLASH->OBR & RDPRT_Mask) != (uint32_t)RESET)
 333              		.loc 1 1243 3 view .LVU62
 334              		.loc 1 1243 13 is_stmt 0 view .LVU63
 335 0000 044B     		ldr	r3, .L31
 336 0002 DB69     		ldr	r3, [r3, #28]
 337              		.loc 1 1243 6 view .LVU64
 338 0004 13F0020F 		tst	r3, #2
 339 0008 01D0     		beq	.L30
1244:Drivers/STM32F10x_StdPeriph_Driver/src/stm32f10x_flash.c ****   {
1245:Drivers/STM32F10x_StdPeriph_Driver/src/stm32f10x_flash.c ****     readoutstatus = SET;
 340              		.loc 1 1245 19 view .LVU65
 341 000a 0120     		movs	r0, #1
 342 000c 7047     		bx	lr
 343              	.L30:
1246:Drivers/STM32F10x_StdPeriph_Driver/src/stm32f10x_flash.c ****   }
1247:Drivers/STM32F10x_StdPeriph_Driver/src/stm32f10x_flash.c ****   else
1248:Drivers/STM32F10x_StdPeriph_Driver/src/stm32f10x_flash.c ****   {
1249:Drivers/STM32F10x_StdPeriph_Driver/src/stm32f10x_flash.c ****     readoutstatus = RESET;
 344              		.loc 1 1249 19 view .LVU66
 345 000e 0020     		movs	r0, #0
 346              	.LVL7:
1250:Drivers/STM32F10x_StdPeriph_Driver/src/stm32f10x_flash.c ****   }
1251:Drivers/STM32F10x_StdPeriph_Driver/src/stm32f10x_flash.c ****   return readoutstatus;
 347              		.loc 1 1251 3 is_stmt 1 view .LVU67
1252:Drivers/STM32F10x_StdPeriph_Driver/src/stm32f10x_flash.c **** }
 348              		.loc 1 1252 1 is_stmt 0 view .LVU68
 349 0010 7047     		bx	lr
 350              	.L32:
 351 0012 00BF     		.align	2
 352              	.L31:
 353 0014 00200240 		.word	1073881088
 354              		.cfi_endproc
 355              	.LFE84:
 357              		.section	.text.FLASH_GetPrefetchBufferStatus,"ax",%progbits
 358              		.align	1
 359              		.global	FLASH_GetPrefetchBufferStatus
 360              		.syntax unified
 361              		.thumb
 362              		.thumb_func
 364              	FLASH_GetPrefetchBufferStatus:
 365              	.LFB85:
ARM GAS  /tmp/cc3Mf3YA.s 			page 29


1253:Drivers/STM32F10x_StdPeriph_Driver/src/stm32f10x_flash.c **** 
1254:Drivers/STM32F10x_StdPeriph_Driver/src/stm32f10x_flash.c **** /**
1255:Drivers/STM32F10x_StdPeriph_Driver/src/stm32f10x_flash.c ****   * @brief  Checks whether the FLASH Prefetch Buffer status is set or not.
1256:Drivers/STM32F10x_StdPeriph_Driver/src/stm32f10x_flash.c ****   * @note   This function can be used for all STM32F10x devices.
1257:Drivers/STM32F10x_StdPeriph_Driver/src/stm32f10x_flash.c ****   * @param  None
1258:Drivers/STM32F10x_StdPeriph_Driver/src/stm32f10x_flash.c ****   * @retval FLASH Prefetch Buffer Status (SET or RESET).
1259:Drivers/STM32F10x_StdPeriph_Driver/src/stm32f10x_flash.c ****   */
1260:Drivers/STM32F10x_StdPeriph_Driver/src/stm32f10x_flash.c **** FlagStatus FLASH_GetPrefetchBufferStatus(void)
1261:Drivers/STM32F10x_StdPeriph_Driver/src/stm32f10x_flash.c **** {
 366              		.loc 1 1261 1 is_stmt 1 view -0
 367              		.cfi_startproc
 368              		@ args = 0, pretend = 0, frame = 0
 369              		@ frame_needed = 0, uses_anonymous_args = 0
 370              		@ link register save eliminated.
1262:Drivers/STM32F10x_StdPeriph_Driver/src/stm32f10x_flash.c ****   FlagStatus bitstatus = RESET;
 371              		.loc 1 1262 3 view .LVU70
 372              	.LVL8:
1263:Drivers/STM32F10x_StdPeriph_Driver/src/stm32f10x_flash.c ****   
1264:Drivers/STM32F10x_StdPeriph_Driver/src/stm32f10x_flash.c ****   if ((FLASH->ACR & ACR_PRFTBS_Mask) != (uint32_t)RESET)
 373              		.loc 1 1264 3 view .LVU71
 374              		.loc 1 1264 13 is_stmt 0 view .LVU72
 375 0000 044B     		ldr	r3, .L36
 376 0002 1B68     		ldr	r3, [r3]
 377              		.loc 1 1264 6 view .LVU73
 378 0004 13F0200F 		tst	r3, #32
 379 0008 01D0     		beq	.L35
1265:Drivers/STM32F10x_StdPeriph_Driver/src/stm32f10x_flash.c ****   {
1266:Drivers/STM32F10x_StdPeriph_Driver/src/stm32f10x_flash.c ****     bitstatus = SET;
 380              		.loc 1 1266 15 view .LVU74
 381 000a 0120     		movs	r0, #1
 382 000c 7047     		bx	lr
 383              	.L35:
1267:Drivers/STM32F10x_StdPeriph_Driver/src/stm32f10x_flash.c ****   }
1268:Drivers/STM32F10x_StdPeriph_Driver/src/stm32f10x_flash.c ****   else
1269:Drivers/STM32F10x_StdPeriph_Driver/src/stm32f10x_flash.c ****   {
1270:Drivers/STM32F10x_StdPeriph_Driver/src/stm32f10x_flash.c ****     bitstatus = RESET;
 384              		.loc 1 1270 15 view .LVU75
 385 000e 0020     		movs	r0, #0
 386              	.LVL9:
1271:Drivers/STM32F10x_StdPeriph_Driver/src/stm32f10x_flash.c ****   }
1272:Drivers/STM32F10x_StdPeriph_Driver/src/stm32f10x_flash.c ****   /* Return the new state of FLASH Prefetch Buffer Status (SET or RESET) */
1273:Drivers/STM32F10x_StdPeriph_Driver/src/stm32f10x_flash.c ****   return bitstatus; 
 387              		.loc 1 1273 3 is_stmt 1 view .LVU76
1274:Drivers/STM32F10x_StdPeriph_Driver/src/stm32f10x_flash.c **** }
 388              		.loc 1 1274 1 is_stmt 0 view .LVU77
 389 0010 7047     		bx	lr
 390              	.L37:
 391 0012 00BF     		.align	2
 392              	.L36:
 393 0014 00200240 		.word	1073881088
 394              		.cfi_endproc
 395              	.LFE85:
 397              		.section	.text.FLASH_ITConfig,"ax",%progbits
 398              		.align	1
 399              		.global	FLASH_ITConfig
 400              		.syntax unified
 401              		.thumb
ARM GAS  /tmp/cc3Mf3YA.s 			page 30


 402              		.thumb_func
 404              	FLASH_ITConfig:
 405              	.LVL10:
 406              	.LFB86:
1275:Drivers/STM32F10x_StdPeriph_Driver/src/stm32f10x_flash.c **** 
1276:Drivers/STM32F10x_StdPeriph_Driver/src/stm32f10x_flash.c **** /**
1277:Drivers/STM32F10x_StdPeriph_Driver/src/stm32f10x_flash.c ****   * @brief  Enables or disables the specified FLASH interrupts.
1278:Drivers/STM32F10x_StdPeriph_Driver/src/stm32f10x_flash.c ****   * @note   This function can be used for all STM32F10x devices.
1279:Drivers/STM32F10x_StdPeriph_Driver/src/stm32f10x_flash.c ****   *         - For STM32F10X_XL devices, enables or disables the specified FLASH interrupts
1280:Drivers/STM32F10x_StdPeriph_Driver/src/stm32f10x_flash.c ****               for Bank1 and Bank2.
1281:Drivers/STM32F10x_StdPeriph_Driver/src/stm32f10x_flash.c ****   *         - For other devices it enables or disables the specified FLASH interrupts for Bank1.
1282:Drivers/STM32F10x_StdPeriph_Driver/src/stm32f10x_flash.c ****   * @param  FLASH_IT: specifies the FLASH interrupt sources to be enabled or disabled.
1283:Drivers/STM32F10x_StdPeriph_Driver/src/stm32f10x_flash.c ****   *   This parameter can be any combination of the following values:
1284:Drivers/STM32F10x_StdPeriph_Driver/src/stm32f10x_flash.c ****   *     @arg FLASH_IT_ERROR: FLASH Error Interrupt
1285:Drivers/STM32F10x_StdPeriph_Driver/src/stm32f10x_flash.c ****   *     @arg FLASH_IT_EOP: FLASH end of operation Interrupt
1286:Drivers/STM32F10x_StdPeriph_Driver/src/stm32f10x_flash.c ****   * @param  NewState: new state of the specified Flash interrupts.
1287:Drivers/STM32F10x_StdPeriph_Driver/src/stm32f10x_flash.c ****   *   This parameter can be: ENABLE or DISABLE.      
1288:Drivers/STM32F10x_StdPeriph_Driver/src/stm32f10x_flash.c ****   * @retval None 
1289:Drivers/STM32F10x_StdPeriph_Driver/src/stm32f10x_flash.c ****   */
1290:Drivers/STM32F10x_StdPeriph_Driver/src/stm32f10x_flash.c **** void FLASH_ITConfig(uint32_t FLASH_IT, FunctionalState NewState)
1291:Drivers/STM32F10x_StdPeriph_Driver/src/stm32f10x_flash.c **** {
 407              		.loc 1 1291 1 is_stmt 1 view -0
 408              		.cfi_startproc
 409              		@ args = 0, pretend = 0, frame = 0
 410              		@ frame_needed = 0, uses_anonymous_args = 0
 411              		@ link register save eliminated.
1292:Drivers/STM32F10x_StdPeriph_Driver/src/stm32f10x_flash.c **** #ifdef STM32F10X_XL
1293:Drivers/STM32F10x_StdPeriph_Driver/src/stm32f10x_flash.c ****   /* Check the parameters */
1294:Drivers/STM32F10x_StdPeriph_Driver/src/stm32f10x_flash.c ****   assert_param(IS_FLASH_IT(FLASH_IT)); 
1295:Drivers/STM32F10x_StdPeriph_Driver/src/stm32f10x_flash.c ****   assert_param(IS_FUNCTIONAL_STATE(NewState));
1296:Drivers/STM32F10x_StdPeriph_Driver/src/stm32f10x_flash.c **** 
1297:Drivers/STM32F10x_StdPeriph_Driver/src/stm32f10x_flash.c ****   if((FLASH_IT & 0x80000000) != 0x0)
1298:Drivers/STM32F10x_StdPeriph_Driver/src/stm32f10x_flash.c ****   {
1299:Drivers/STM32F10x_StdPeriph_Driver/src/stm32f10x_flash.c ****     if(NewState != DISABLE)
1300:Drivers/STM32F10x_StdPeriph_Driver/src/stm32f10x_flash.c ****     {
1301:Drivers/STM32F10x_StdPeriph_Driver/src/stm32f10x_flash.c ****       /* Enable the interrupt sources */
1302:Drivers/STM32F10x_StdPeriph_Driver/src/stm32f10x_flash.c ****       FLASH->CR2 |= (FLASH_IT & 0x7FFFFFFF);
1303:Drivers/STM32F10x_StdPeriph_Driver/src/stm32f10x_flash.c ****     }
1304:Drivers/STM32F10x_StdPeriph_Driver/src/stm32f10x_flash.c ****     else
1305:Drivers/STM32F10x_StdPeriph_Driver/src/stm32f10x_flash.c ****     {
1306:Drivers/STM32F10x_StdPeriph_Driver/src/stm32f10x_flash.c ****       /* Disable the interrupt sources */
1307:Drivers/STM32F10x_StdPeriph_Driver/src/stm32f10x_flash.c ****       FLASH->CR2 &= ~(uint32_t)(FLASH_IT & 0x7FFFFFFF);
1308:Drivers/STM32F10x_StdPeriph_Driver/src/stm32f10x_flash.c ****     }
1309:Drivers/STM32F10x_StdPeriph_Driver/src/stm32f10x_flash.c ****   }
1310:Drivers/STM32F10x_StdPeriph_Driver/src/stm32f10x_flash.c ****   else
1311:Drivers/STM32F10x_StdPeriph_Driver/src/stm32f10x_flash.c ****   {
1312:Drivers/STM32F10x_StdPeriph_Driver/src/stm32f10x_flash.c ****     if(NewState != DISABLE)
1313:Drivers/STM32F10x_StdPeriph_Driver/src/stm32f10x_flash.c ****     {
1314:Drivers/STM32F10x_StdPeriph_Driver/src/stm32f10x_flash.c ****       /* Enable the interrupt sources */
1315:Drivers/STM32F10x_StdPeriph_Driver/src/stm32f10x_flash.c ****       FLASH->CR |= FLASH_IT;
1316:Drivers/STM32F10x_StdPeriph_Driver/src/stm32f10x_flash.c ****     }
1317:Drivers/STM32F10x_StdPeriph_Driver/src/stm32f10x_flash.c ****     else
1318:Drivers/STM32F10x_StdPeriph_Driver/src/stm32f10x_flash.c ****     {
1319:Drivers/STM32F10x_StdPeriph_Driver/src/stm32f10x_flash.c ****       /* Disable the interrupt sources */
1320:Drivers/STM32F10x_StdPeriph_Driver/src/stm32f10x_flash.c ****       FLASH->CR &= ~(uint32_t)FLASH_IT;
1321:Drivers/STM32F10x_StdPeriph_Driver/src/stm32f10x_flash.c ****     }
1322:Drivers/STM32F10x_StdPeriph_Driver/src/stm32f10x_flash.c ****   }
ARM GAS  /tmp/cc3Mf3YA.s 			page 31


1323:Drivers/STM32F10x_StdPeriph_Driver/src/stm32f10x_flash.c **** #else
1324:Drivers/STM32F10x_StdPeriph_Driver/src/stm32f10x_flash.c ****   /* Check the parameters */
1325:Drivers/STM32F10x_StdPeriph_Driver/src/stm32f10x_flash.c ****   assert_param(IS_FLASH_IT(FLASH_IT)); 
 412              		.loc 1 1325 3 view .LVU79
1326:Drivers/STM32F10x_StdPeriph_Driver/src/stm32f10x_flash.c ****   assert_param(IS_FUNCTIONAL_STATE(NewState));
 413              		.loc 1 1326 3 view .LVU80
1327:Drivers/STM32F10x_StdPeriph_Driver/src/stm32f10x_flash.c **** 
1328:Drivers/STM32F10x_StdPeriph_Driver/src/stm32f10x_flash.c ****   if(NewState != DISABLE)
 414              		.loc 1 1328 3 view .LVU81
 415              		.loc 1 1328 5 is_stmt 0 view .LVU82
 416 0000 21B1     		cbz	r1, .L39
1329:Drivers/STM32F10x_StdPeriph_Driver/src/stm32f10x_flash.c ****   {
1330:Drivers/STM32F10x_StdPeriph_Driver/src/stm32f10x_flash.c ****     /* Enable the interrupt sources */
1331:Drivers/STM32F10x_StdPeriph_Driver/src/stm32f10x_flash.c ****     FLASH->CR |= FLASH_IT;
 417              		.loc 1 1331 5 is_stmt 1 view .LVU83
 418              		.loc 1 1331 10 is_stmt 0 view .LVU84
 419 0002 054A     		ldr	r2, .L41
 420 0004 1369     		ldr	r3, [r2, #16]
 421              		.loc 1 1331 15 view .LVU85
 422 0006 0343     		orrs	r3, r3, r0
 423 0008 1361     		str	r3, [r2, #16]
 424 000a 7047     		bx	lr
 425              	.L39:
1332:Drivers/STM32F10x_StdPeriph_Driver/src/stm32f10x_flash.c ****   }
1333:Drivers/STM32F10x_StdPeriph_Driver/src/stm32f10x_flash.c ****   else
1334:Drivers/STM32F10x_StdPeriph_Driver/src/stm32f10x_flash.c ****   {
1335:Drivers/STM32F10x_StdPeriph_Driver/src/stm32f10x_flash.c ****     /* Disable the interrupt sources */
1336:Drivers/STM32F10x_StdPeriph_Driver/src/stm32f10x_flash.c ****     FLASH->CR &= ~(uint32_t)FLASH_IT;
 426              		.loc 1 1336 5 is_stmt 1 view .LVU86
 427              		.loc 1 1336 10 is_stmt 0 view .LVU87
 428 000c 024A     		ldr	r2, .L41
 429 000e 1369     		ldr	r3, [r2, #16]
 430              		.loc 1 1336 15 view .LVU88
 431 0010 23EA0003 		bic	r3, r3, r0
 432 0014 1361     		str	r3, [r2, #16]
1337:Drivers/STM32F10x_StdPeriph_Driver/src/stm32f10x_flash.c ****   }
1338:Drivers/STM32F10x_StdPeriph_Driver/src/stm32f10x_flash.c **** #endif /* STM32F10X_XL */
1339:Drivers/STM32F10x_StdPeriph_Driver/src/stm32f10x_flash.c **** }
 433              		.loc 1 1339 1 view .LVU89
 434 0016 7047     		bx	lr
 435              	.L42:
 436              		.align	2
 437              	.L41:
 438 0018 00200240 		.word	1073881088
 439              		.cfi_endproc
 440              	.LFE86:
 442              		.section	.text.FLASH_GetFlagStatus,"ax",%progbits
 443              		.align	1
 444              		.global	FLASH_GetFlagStatus
 445              		.syntax unified
 446              		.thumb
 447              		.thumb_func
 449              	FLASH_GetFlagStatus:
 450              	.LVL11:
 451              	.LFB87:
1340:Drivers/STM32F10x_StdPeriph_Driver/src/stm32f10x_flash.c **** 
1341:Drivers/STM32F10x_StdPeriph_Driver/src/stm32f10x_flash.c **** /**
ARM GAS  /tmp/cc3Mf3YA.s 			page 32


1342:Drivers/STM32F10x_StdPeriph_Driver/src/stm32f10x_flash.c ****   * @brief  Checks whether the specified FLASH flag is set or not.
1343:Drivers/STM32F10x_StdPeriph_Driver/src/stm32f10x_flash.c ****   * @note   This function can be used for all STM32F10x devices.
1344:Drivers/STM32F10x_StdPeriph_Driver/src/stm32f10x_flash.c ****   *         - For STM32F10X_XL devices, this function checks whether the specified 
1345:Drivers/STM32F10x_StdPeriph_Driver/src/stm32f10x_flash.c ****   *           Bank1 or Bank2 flag is set or not.
1346:Drivers/STM32F10x_StdPeriph_Driver/src/stm32f10x_flash.c ****   *         - For other devices, it checks whether the specified Bank1 flag is 
1347:Drivers/STM32F10x_StdPeriph_Driver/src/stm32f10x_flash.c ****   *           set or not.
1348:Drivers/STM32F10x_StdPeriph_Driver/src/stm32f10x_flash.c ****   * @param  FLASH_FLAG: specifies the FLASH flag to check.
1349:Drivers/STM32F10x_StdPeriph_Driver/src/stm32f10x_flash.c ****   *   This parameter can be one of the following values:
1350:Drivers/STM32F10x_StdPeriph_Driver/src/stm32f10x_flash.c ****   *     @arg FLASH_FLAG_BSY: FLASH Busy flag           
1351:Drivers/STM32F10x_StdPeriph_Driver/src/stm32f10x_flash.c ****   *     @arg FLASH_FLAG_PGERR: FLASH Program error flag       
1352:Drivers/STM32F10x_StdPeriph_Driver/src/stm32f10x_flash.c ****   *     @arg FLASH_FLAG_WRPRTERR: FLASH Write protected error flag      
1353:Drivers/STM32F10x_StdPeriph_Driver/src/stm32f10x_flash.c ****   *     @arg FLASH_FLAG_EOP: FLASH End of Operation flag           
1354:Drivers/STM32F10x_StdPeriph_Driver/src/stm32f10x_flash.c ****   *     @arg FLASH_FLAG_OPTERR:  FLASH Option Byte error flag     
1355:Drivers/STM32F10x_StdPeriph_Driver/src/stm32f10x_flash.c ****   * @retval The new state of FLASH_FLAG (SET or RESET).
1356:Drivers/STM32F10x_StdPeriph_Driver/src/stm32f10x_flash.c ****   */
1357:Drivers/STM32F10x_StdPeriph_Driver/src/stm32f10x_flash.c **** FlagStatus FLASH_GetFlagStatus(uint32_t FLASH_FLAG)
1358:Drivers/STM32F10x_StdPeriph_Driver/src/stm32f10x_flash.c **** {
 452              		.loc 1 1358 1 is_stmt 1 view -0
 453              		.cfi_startproc
 454              		@ args = 0, pretend = 0, frame = 0
 455              		@ frame_needed = 0, uses_anonymous_args = 0
 456              		@ link register save eliminated.
1359:Drivers/STM32F10x_StdPeriph_Driver/src/stm32f10x_flash.c ****   FlagStatus bitstatus = RESET;
 457              		.loc 1 1359 3 view .LVU91
1360:Drivers/STM32F10x_StdPeriph_Driver/src/stm32f10x_flash.c **** 
1361:Drivers/STM32F10x_StdPeriph_Driver/src/stm32f10x_flash.c **** #ifdef STM32F10X_XL
1362:Drivers/STM32F10x_StdPeriph_Driver/src/stm32f10x_flash.c ****   /* Check the parameters */
1363:Drivers/STM32F10x_StdPeriph_Driver/src/stm32f10x_flash.c ****   assert_param(IS_FLASH_GET_FLAG(FLASH_FLAG)) ;
1364:Drivers/STM32F10x_StdPeriph_Driver/src/stm32f10x_flash.c ****   if(FLASH_FLAG == FLASH_FLAG_OPTERR) 
1365:Drivers/STM32F10x_StdPeriph_Driver/src/stm32f10x_flash.c ****   {
1366:Drivers/STM32F10x_StdPeriph_Driver/src/stm32f10x_flash.c ****     if((FLASH->OBR & FLASH_FLAG_OPTERR) != (uint32_t)RESET)
1367:Drivers/STM32F10x_StdPeriph_Driver/src/stm32f10x_flash.c ****     {
1368:Drivers/STM32F10x_StdPeriph_Driver/src/stm32f10x_flash.c ****       bitstatus = SET;
1369:Drivers/STM32F10x_StdPeriph_Driver/src/stm32f10x_flash.c ****     }
1370:Drivers/STM32F10x_StdPeriph_Driver/src/stm32f10x_flash.c ****     else
1371:Drivers/STM32F10x_StdPeriph_Driver/src/stm32f10x_flash.c ****     {
1372:Drivers/STM32F10x_StdPeriph_Driver/src/stm32f10x_flash.c ****       bitstatus = RESET;
1373:Drivers/STM32F10x_StdPeriph_Driver/src/stm32f10x_flash.c ****     }
1374:Drivers/STM32F10x_StdPeriph_Driver/src/stm32f10x_flash.c ****   }
1375:Drivers/STM32F10x_StdPeriph_Driver/src/stm32f10x_flash.c ****   else
1376:Drivers/STM32F10x_StdPeriph_Driver/src/stm32f10x_flash.c ****   {
1377:Drivers/STM32F10x_StdPeriph_Driver/src/stm32f10x_flash.c ****     if((FLASH_FLAG & 0x80000000) != 0x0)
1378:Drivers/STM32F10x_StdPeriph_Driver/src/stm32f10x_flash.c ****     {
1379:Drivers/STM32F10x_StdPeriph_Driver/src/stm32f10x_flash.c ****       if((FLASH->SR2 & FLASH_FLAG) != (uint32_t)RESET)
1380:Drivers/STM32F10x_StdPeriph_Driver/src/stm32f10x_flash.c ****       {
1381:Drivers/STM32F10x_StdPeriph_Driver/src/stm32f10x_flash.c ****         bitstatus = SET;
1382:Drivers/STM32F10x_StdPeriph_Driver/src/stm32f10x_flash.c ****       }
1383:Drivers/STM32F10x_StdPeriph_Driver/src/stm32f10x_flash.c ****       else
1384:Drivers/STM32F10x_StdPeriph_Driver/src/stm32f10x_flash.c ****       {
1385:Drivers/STM32F10x_StdPeriph_Driver/src/stm32f10x_flash.c ****         bitstatus = RESET;
1386:Drivers/STM32F10x_StdPeriph_Driver/src/stm32f10x_flash.c ****       }
1387:Drivers/STM32F10x_StdPeriph_Driver/src/stm32f10x_flash.c ****     }
1388:Drivers/STM32F10x_StdPeriph_Driver/src/stm32f10x_flash.c ****     else
1389:Drivers/STM32F10x_StdPeriph_Driver/src/stm32f10x_flash.c ****     {
1390:Drivers/STM32F10x_StdPeriph_Driver/src/stm32f10x_flash.c ****       if((FLASH->SR & FLASH_FLAG) != (uint32_t)RESET)
1391:Drivers/STM32F10x_StdPeriph_Driver/src/stm32f10x_flash.c ****       {
1392:Drivers/STM32F10x_StdPeriph_Driver/src/stm32f10x_flash.c ****         bitstatus = SET;
ARM GAS  /tmp/cc3Mf3YA.s 			page 33


1393:Drivers/STM32F10x_StdPeriph_Driver/src/stm32f10x_flash.c ****       }
1394:Drivers/STM32F10x_StdPeriph_Driver/src/stm32f10x_flash.c ****       else
1395:Drivers/STM32F10x_StdPeriph_Driver/src/stm32f10x_flash.c ****       {
1396:Drivers/STM32F10x_StdPeriph_Driver/src/stm32f10x_flash.c ****         bitstatus = RESET;
1397:Drivers/STM32F10x_StdPeriph_Driver/src/stm32f10x_flash.c ****       }
1398:Drivers/STM32F10x_StdPeriph_Driver/src/stm32f10x_flash.c ****     }
1399:Drivers/STM32F10x_StdPeriph_Driver/src/stm32f10x_flash.c ****   }
1400:Drivers/STM32F10x_StdPeriph_Driver/src/stm32f10x_flash.c **** #else
1401:Drivers/STM32F10x_StdPeriph_Driver/src/stm32f10x_flash.c ****   /* Check the parameters */
1402:Drivers/STM32F10x_StdPeriph_Driver/src/stm32f10x_flash.c ****   assert_param(IS_FLASH_GET_FLAG(FLASH_FLAG)) ;
 458              		.loc 1 1402 3 view .LVU92
1403:Drivers/STM32F10x_StdPeriph_Driver/src/stm32f10x_flash.c ****   if(FLASH_FLAG == FLASH_FLAG_OPTERR) 
 459              		.loc 1 1403 3 view .LVU93
 460              		.loc 1 1403 5 is_stmt 0 view .LVU94
 461 0000 0128     		cmp	r0, #1
 462 0002 05D0     		beq	.L48
1404:Drivers/STM32F10x_StdPeriph_Driver/src/stm32f10x_flash.c ****   {
1405:Drivers/STM32F10x_StdPeriph_Driver/src/stm32f10x_flash.c ****     if((FLASH->OBR & FLASH_FLAG_OPTERR) != (uint32_t)RESET)
1406:Drivers/STM32F10x_StdPeriph_Driver/src/stm32f10x_flash.c ****     {
1407:Drivers/STM32F10x_StdPeriph_Driver/src/stm32f10x_flash.c ****       bitstatus = SET;
1408:Drivers/STM32F10x_StdPeriph_Driver/src/stm32f10x_flash.c ****     }
1409:Drivers/STM32F10x_StdPeriph_Driver/src/stm32f10x_flash.c ****     else
1410:Drivers/STM32F10x_StdPeriph_Driver/src/stm32f10x_flash.c ****     {
1411:Drivers/STM32F10x_StdPeriph_Driver/src/stm32f10x_flash.c ****       bitstatus = RESET;
1412:Drivers/STM32F10x_StdPeriph_Driver/src/stm32f10x_flash.c ****     }
1413:Drivers/STM32F10x_StdPeriph_Driver/src/stm32f10x_flash.c ****   }
1414:Drivers/STM32F10x_StdPeriph_Driver/src/stm32f10x_flash.c ****   else
1415:Drivers/STM32F10x_StdPeriph_Driver/src/stm32f10x_flash.c ****   {
1416:Drivers/STM32F10x_StdPeriph_Driver/src/stm32f10x_flash.c ****    if((FLASH->SR & FLASH_FLAG) != (uint32_t)RESET)
 463              		.loc 1 1416 4 is_stmt 1 view .LVU95
 464              		.loc 1 1416 13 is_stmt 0 view .LVU96
 465 0004 074B     		ldr	r3, .L49
 466 0006 DB68     		ldr	r3, [r3, #12]
 467              		.loc 1 1416 6 view .LVU97
 468 0008 0342     		tst	r3, r0
 469 000a 09D0     		beq	.L47
1417:Drivers/STM32F10x_StdPeriph_Driver/src/stm32f10x_flash.c ****     {
1418:Drivers/STM32F10x_StdPeriph_Driver/src/stm32f10x_flash.c ****       bitstatus = SET;
 470              		.loc 1 1418 17 view .LVU98
 471 000c 0120     		movs	r0, #1
 472              	.LVL12:
 473              		.loc 1 1418 17 view .LVU99
 474 000e 7047     		bx	lr
 475              	.LVL13:
 476              	.L48:
1405:Drivers/STM32F10x_StdPeriph_Driver/src/stm32f10x_flash.c ****     {
 477              		.loc 1 1405 5 is_stmt 1 view .LVU100
1405:Drivers/STM32F10x_StdPeriph_Driver/src/stm32f10x_flash.c ****     {
 478              		.loc 1 1405 14 is_stmt 0 view .LVU101
 479 0010 044B     		ldr	r3, .L49
 480 0012 DB69     		ldr	r3, [r3, #28]
1405:Drivers/STM32F10x_StdPeriph_Driver/src/stm32f10x_flash.c ****     {
 481              		.loc 1 1405 7 view .LVU102
 482 0014 13F0010F 		tst	r3, #1
 483 0018 00D0     		beq	.L46
 484 001a 7047     		bx	lr
 485              	.L46:
ARM GAS  /tmp/cc3Mf3YA.s 			page 34


1411:Drivers/STM32F10x_StdPeriph_Driver/src/stm32f10x_flash.c ****     }
 486              		.loc 1 1411 17 view .LVU103
 487 001c 0020     		movs	r0, #0
 488              	.LVL14:
1411:Drivers/STM32F10x_StdPeriph_Driver/src/stm32f10x_flash.c ****     }
 489              		.loc 1 1411 17 view .LVU104
 490 001e 7047     		bx	lr
 491              	.LVL15:
 492              	.L47:
1419:Drivers/STM32F10x_StdPeriph_Driver/src/stm32f10x_flash.c ****     }
1420:Drivers/STM32F10x_StdPeriph_Driver/src/stm32f10x_flash.c ****     else
1421:Drivers/STM32F10x_StdPeriph_Driver/src/stm32f10x_flash.c ****     {
1422:Drivers/STM32F10x_StdPeriph_Driver/src/stm32f10x_flash.c ****       bitstatus = RESET;
 493              		.loc 1 1422 17 view .LVU105
 494 0020 0020     		movs	r0, #0
 495              	.LVL16:
1423:Drivers/STM32F10x_StdPeriph_Driver/src/stm32f10x_flash.c ****     }
1424:Drivers/STM32F10x_StdPeriph_Driver/src/stm32f10x_flash.c ****   }
1425:Drivers/STM32F10x_StdPeriph_Driver/src/stm32f10x_flash.c **** #endif /* STM32F10X_XL */
1426:Drivers/STM32F10x_StdPeriph_Driver/src/stm32f10x_flash.c **** 
1427:Drivers/STM32F10x_StdPeriph_Driver/src/stm32f10x_flash.c ****   /* Return the new state of FLASH_FLAG (SET or RESET) */
1428:Drivers/STM32F10x_StdPeriph_Driver/src/stm32f10x_flash.c ****   return bitstatus;
 496              		.loc 1 1428 3 is_stmt 1 view .LVU106
1429:Drivers/STM32F10x_StdPeriph_Driver/src/stm32f10x_flash.c **** }
 497              		.loc 1 1429 1 is_stmt 0 view .LVU107
 498 0022 7047     		bx	lr
 499              	.L50:
 500              		.align	2
 501              	.L49:
 502 0024 00200240 		.word	1073881088
 503              		.cfi_endproc
 504              	.LFE87:
 506              		.section	.text.FLASH_ClearFlag,"ax",%progbits
 507              		.align	1
 508              		.global	FLASH_ClearFlag
 509              		.syntax unified
 510              		.thumb
 511              		.thumb_func
 513              	FLASH_ClearFlag:
 514              	.LVL17:
 515              	.LFB88:
1430:Drivers/STM32F10x_StdPeriph_Driver/src/stm32f10x_flash.c **** 
1431:Drivers/STM32F10x_StdPeriph_Driver/src/stm32f10x_flash.c **** /**
1432:Drivers/STM32F10x_StdPeriph_Driver/src/stm32f10x_flash.c ****   * @brief  Clears the FLASH's pending flags.
1433:Drivers/STM32F10x_StdPeriph_Driver/src/stm32f10x_flash.c ****   * @note   This function can be used for all STM32F10x devices.
1434:Drivers/STM32F10x_StdPeriph_Driver/src/stm32f10x_flash.c ****   *         - For STM32F10X_XL devices, this function clears Bank1 or Bank2’s pending flags
1435:Drivers/STM32F10x_StdPeriph_Driver/src/stm32f10x_flash.c ****   *         - For other devices, it clears Bank1’s pending flags.
1436:Drivers/STM32F10x_StdPeriph_Driver/src/stm32f10x_flash.c ****   * @param  FLASH_FLAG: specifies the FLASH flags to clear.
1437:Drivers/STM32F10x_StdPeriph_Driver/src/stm32f10x_flash.c ****   *   This parameter can be any combination of the following values:         
1438:Drivers/STM32F10x_StdPeriph_Driver/src/stm32f10x_flash.c ****   *     @arg FLASH_FLAG_PGERR: FLASH Program error flag       
1439:Drivers/STM32F10x_StdPeriph_Driver/src/stm32f10x_flash.c ****   *     @arg FLASH_FLAG_WRPRTERR: FLASH Write protected error flag      
1440:Drivers/STM32F10x_StdPeriph_Driver/src/stm32f10x_flash.c ****   *     @arg FLASH_FLAG_EOP: FLASH End of Operation flag           
1441:Drivers/STM32F10x_StdPeriph_Driver/src/stm32f10x_flash.c ****   * @retval None
1442:Drivers/STM32F10x_StdPeriph_Driver/src/stm32f10x_flash.c ****   */
1443:Drivers/STM32F10x_StdPeriph_Driver/src/stm32f10x_flash.c **** void FLASH_ClearFlag(uint32_t FLASH_FLAG)
1444:Drivers/STM32F10x_StdPeriph_Driver/src/stm32f10x_flash.c **** {
 516              		.loc 1 1444 1 is_stmt 1 view -0
ARM GAS  /tmp/cc3Mf3YA.s 			page 35


 517              		.cfi_startproc
 518              		@ args = 0, pretend = 0, frame = 0
 519              		@ frame_needed = 0, uses_anonymous_args = 0
 520              		@ link register save eliminated.
1445:Drivers/STM32F10x_StdPeriph_Driver/src/stm32f10x_flash.c **** #ifdef STM32F10X_XL
1446:Drivers/STM32F10x_StdPeriph_Driver/src/stm32f10x_flash.c ****   /* Check the parameters */
1447:Drivers/STM32F10x_StdPeriph_Driver/src/stm32f10x_flash.c ****   assert_param(IS_FLASH_CLEAR_FLAG(FLASH_FLAG)) ;
1448:Drivers/STM32F10x_StdPeriph_Driver/src/stm32f10x_flash.c **** 
1449:Drivers/STM32F10x_StdPeriph_Driver/src/stm32f10x_flash.c ****   if((FLASH_FLAG & 0x80000000) != 0x0)
1450:Drivers/STM32F10x_StdPeriph_Driver/src/stm32f10x_flash.c ****   {
1451:Drivers/STM32F10x_StdPeriph_Driver/src/stm32f10x_flash.c ****     /* Clear the flags */
1452:Drivers/STM32F10x_StdPeriph_Driver/src/stm32f10x_flash.c ****     FLASH->SR2 = FLASH_FLAG;
1453:Drivers/STM32F10x_StdPeriph_Driver/src/stm32f10x_flash.c ****   }
1454:Drivers/STM32F10x_StdPeriph_Driver/src/stm32f10x_flash.c ****   else
1455:Drivers/STM32F10x_StdPeriph_Driver/src/stm32f10x_flash.c ****   {
1456:Drivers/STM32F10x_StdPeriph_Driver/src/stm32f10x_flash.c ****     /* Clear the flags */
1457:Drivers/STM32F10x_StdPeriph_Driver/src/stm32f10x_flash.c ****     FLASH->SR = FLASH_FLAG;
1458:Drivers/STM32F10x_StdPeriph_Driver/src/stm32f10x_flash.c ****   }  
1459:Drivers/STM32F10x_StdPeriph_Driver/src/stm32f10x_flash.c **** 
1460:Drivers/STM32F10x_StdPeriph_Driver/src/stm32f10x_flash.c **** #else
1461:Drivers/STM32F10x_StdPeriph_Driver/src/stm32f10x_flash.c ****   /* Check the parameters */
1462:Drivers/STM32F10x_StdPeriph_Driver/src/stm32f10x_flash.c ****   assert_param(IS_FLASH_CLEAR_FLAG(FLASH_FLAG)) ;
 521              		.loc 1 1462 3 view .LVU109
1463:Drivers/STM32F10x_StdPeriph_Driver/src/stm32f10x_flash.c ****   
1464:Drivers/STM32F10x_StdPeriph_Driver/src/stm32f10x_flash.c ****   /* Clear the flags */
1465:Drivers/STM32F10x_StdPeriph_Driver/src/stm32f10x_flash.c ****   FLASH->SR = FLASH_FLAG;
 522              		.loc 1 1465 3 view .LVU110
 523              		.loc 1 1465 13 is_stmt 0 view .LVU111
 524 0000 014B     		ldr	r3, .L52
 525 0002 D860     		str	r0, [r3, #12]
1466:Drivers/STM32F10x_StdPeriph_Driver/src/stm32f10x_flash.c **** #endif /* STM32F10X_XL */
1467:Drivers/STM32F10x_StdPeriph_Driver/src/stm32f10x_flash.c **** }
 526              		.loc 1 1467 1 view .LVU112
 527 0004 7047     		bx	lr
 528              	.L53:
 529 0006 00BF     		.align	2
 530              	.L52:
 531 0008 00200240 		.word	1073881088
 532              		.cfi_endproc
 533              	.LFE88:
 535              		.section	.text.FLASH_GetStatus,"ax",%progbits
 536              		.align	1
 537              		.global	FLASH_GetStatus
 538              		.syntax unified
 539              		.thumb
 540              		.thumb_func
 542              	FLASH_GetStatus:
 543              	.LFB89:
1468:Drivers/STM32F10x_StdPeriph_Driver/src/stm32f10x_flash.c **** 
1469:Drivers/STM32F10x_StdPeriph_Driver/src/stm32f10x_flash.c **** /**
1470:Drivers/STM32F10x_StdPeriph_Driver/src/stm32f10x_flash.c ****   * @brief  Returns the FLASH Status.
1471:Drivers/STM32F10x_StdPeriph_Driver/src/stm32f10x_flash.c ****   * @note   This function can be used for all STM32F10x devices, it is equivalent
1472:Drivers/STM32F10x_StdPeriph_Driver/src/stm32f10x_flash.c ****   *         to FLASH_GetBank1Status function.
1473:Drivers/STM32F10x_StdPeriph_Driver/src/stm32f10x_flash.c ****   * @param  None
1474:Drivers/STM32F10x_StdPeriph_Driver/src/stm32f10x_flash.c ****   * @retval FLASH Status: The returned value can be: FLASH_BUSY, FLASH_ERROR_PG,
1475:Drivers/STM32F10x_StdPeriph_Driver/src/stm32f10x_flash.c ****   *         FLASH_ERROR_WRP or FLASH_COMPLETE
1476:Drivers/STM32F10x_StdPeriph_Driver/src/stm32f10x_flash.c ****   */
ARM GAS  /tmp/cc3Mf3YA.s 			page 36


1477:Drivers/STM32F10x_StdPeriph_Driver/src/stm32f10x_flash.c **** FLASH_Status FLASH_GetStatus(void)
1478:Drivers/STM32F10x_StdPeriph_Driver/src/stm32f10x_flash.c **** {
 544              		.loc 1 1478 1 is_stmt 1 view -0
 545              		.cfi_startproc
 546              		@ args = 0, pretend = 0, frame = 0
 547              		@ frame_needed = 0, uses_anonymous_args = 0
 548              		@ link register save eliminated.
1479:Drivers/STM32F10x_StdPeriph_Driver/src/stm32f10x_flash.c ****   FLASH_Status flashstatus = FLASH_COMPLETE;
 549              		.loc 1 1479 3 view .LVU114
 550              	.LVL18:
1480:Drivers/STM32F10x_StdPeriph_Driver/src/stm32f10x_flash.c ****   
1481:Drivers/STM32F10x_StdPeriph_Driver/src/stm32f10x_flash.c ****   if((FLASH->SR & FLASH_FLAG_BSY) == FLASH_FLAG_BSY) 
 551              		.loc 1 1481 3 view .LVU115
 552              		.loc 1 1481 12 is_stmt 0 view .LVU116
 553 0000 0B4B     		ldr	r3, .L59
 554 0002 DB68     		ldr	r3, [r3, #12]
 555              		.loc 1 1481 5 view .LVU117
 556 0004 13F0010F 		tst	r3, #1
 557 0008 0BD1     		bne	.L56
1482:Drivers/STM32F10x_StdPeriph_Driver/src/stm32f10x_flash.c ****   {
1483:Drivers/STM32F10x_StdPeriph_Driver/src/stm32f10x_flash.c ****     flashstatus = FLASH_BUSY;
1484:Drivers/STM32F10x_StdPeriph_Driver/src/stm32f10x_flash.c ****   }
1485:Drivers/STM32F10x_StdPeriph_Driver/src/stm32f10x_flash.c ****   else 
1486:Drivers/STM32F10x_StdPeriph_Driver/src/stm32f10x_flash.c ****   {  
1487:Drivers/STM32F10x_StdPeriph_Driver/src/stm32f10x_flash.c ****     if((FLASH->SR & FLASH_FLAG_PGERR) != 0)
 558              		.loc 1 1487 5 is_stmt 1 view .LVU118
 559              		.loc 1 1487 14 is_stmt 0 view .LVU119
 560 000a 094B     		ldr	r3, .L59
 561 000c DB68     		ldr	r3, [r3, #12]
 562              		.loc 1 1487 7 view .LVU120
 563 000e 13F0040F 		tst	r3, #4
 564 0012 08D1     		bne	.L57
1488:Drivers/STM32F10x_StdPeriph_Driver/src/stm32f10x_flash.c ****     { 
1489:Drivers/STM32F10x_StdPeriph_Driver/src/stm32f10x_flash.c ****       flashstatus = FLASH_ERROR_PG;
1490:Drivers/STM32F10x_StdPeriph_Driver/src/stm32f10x_flash.c ****     }
1491:Drivers/STM32F10x_StdPeriph_Driver/src/stm32f10x_flash.c ****     else 
1492:Drivers/STM32F10x_StdPeriph_Driver/src/stm32f10x_flash.c ****     {
1493:Drivers/STM32F10x_StdPeriph_Driver/src/stm32f10x_flash.c ****       if((FLASH->SR & FLASH_FLAG_WRPRTERR) != 0 )
 565              		.loc 1 1493 7 is_stmt 1 view .LVU121
 566              		.loc 1 1493 16 is_stmt 0 view .LVU122
 567 0014 064B     		ldr	r3, .L59
 568 0016 DB68     		ldr	r3, [r3, #12]
 569              		.loc 1 1493 9 view .LVU123
 570 0018 13F0100F 		tst	r3, #16
 571 001c 05D0     		beq	.L58
1494:Drivers/STM32F10x_StdPeriph_Driver/src/stm32f10x_flash.c ****       {
1495:Drivers/STM32F10x_StdPeriph_Driver/src/stm32f10x_flash.c ****         flashstatus = FLASH_ERROR_WRP;
 572              		.loc 1 1495 21 view .LVU124
 573 001e 0320     		movs	r0, #3
 574 0020 7047     		bx	lr
 575              	.L56:
1483:Drivers/STM32F10x_StdPeriph_Driver/src/stm32f10x_flash.c ****   }
 576              		.loc 1 1483 17 view .LVU125
 577 0022 0120     		movs	r0, #1
 578 0024 7047     		bx	lr
 579              	.L57:
1489:Drivers/STM32F10x_StdPeriph_Driver/src/stm32f10x_flash.c ****     }
ARM GAS  /tmp/cc3Mf3YA.s 			page 37


 580              		.loc 1 1489 19 view .LVU126
 581 0026 0220     		movs	r0, #2
 582 0028 7047     		bx	lr
 583              	.L58:
1496:Drivers/STM32F10x_StdPeriph_Driver/src/stm32f10x_flash.c ****       }
1497:Drivers/STM32F10x_StdPeriph_Driver/src/stm32f10x_flash.c ****       else
1498:Drivers/STM32F10x_StdPeriph_Driver/src/stm32f10x_flash.c ****       {
1499:Drivers/STM32F10x_StdPeriph_Driver/src/stm32f10x_flash.c ****         flashstatus = FLASH_COMPLETE;
 584              		.loc 1 1499 21 view .LVU127
 585 002a 0420     		movs	r0, #4
 586              	.LVL19:
1500:Drivers/STM32F10x_StdPeriph_Driver/src/stm32f10x_flash.c ****       }
1501:Drivers/STM32F10x_StdPeriph_Driver/src/stm32f10x_flash.c ****     }
1502:Drivers/STM32F10x_StdPeriph_Driver/src/stm32f10x_flash.c ****   }
1503:Drivers/STM32F10x_StdPeriph_Driver/src/stm32f10x_flash.c ****   /* Return the Flash Status */
1504:Drivers/STM32F10x_StdPeriph_Driver/src/stm32f10x_flash.c ****   return flashstatus;
 587              		.loc 1 1504 3 is_stmt 1 view .LVU128
1505:Drivers/STM32F10x_StdPeriph_Driver/src/stm32f10x_flash.c **** }
 588              		.loc 1 1505 1 is_stmt 0 view .LVU129
 589 002c 7047     		bx	lr
 590              	.L60:
 591 002e 00BF     		.align	2
 592              	.L59:
 593 0030 00200240 		.word	1073881088
 594              		.cfi_endproc
 595              	.LFE89:
 597              		.section	.text.FLASH_GetBank1Status,"ax",%progbits
 598              		.align	1
 599              		.global	FLASH_GetBank1Status
 600              		.syntax unified
 601              		.thumb
 602              		.thumb_func
 604              	FLASH_GetBank1Status:
 605              	.LFB90:
1506:Drivers/STM32F10x_StdPeriph_Driver/src/stm32f10x_flash.c **** 
1507:Drivers/STM32F10x_StdPeriph_Driver/src/stm32f10x_flash.c **** /**
1508:Drivers/STM32F10x_StdPeriph_Driver/src/stm32f10x_flash.c ****   * @brief  Returns the FLASH Bank1 Status.
1509:Drivers/STM32F10x_StdPeriph_Driver/src/stm32f10x_flash.c ****   * @note   This function can be used for all STM32F10x devices, it is equivalent
1510:Drivers/STM32F10x_StdPeriph_Driver/src/stm32f10x_flash.c ****   *         to FLASH_GetStatus function.
1511:Drivers/STM32F10x_StdPeriph_Driver/src/stm32f10x_flash.c ****   * @param  None
1512:Drivers/STM32F10x_StdPeriph_Driver/src/stm32f10x_flash.c ****   * @retval FLASH Status: The returned value can be: FLASH_BUSY, FLASH_ERROR_PG,
1513:Drivers/STM32F10x_StdPeriph_Driver/src/stm32f10x_flash.c ****   *         FLASH_ERROR_WRP or FLASH_COMPLETE
1514:Drivers/STM32F10x_StdPeriph_Driver/src/stm32f10x_flash.c ****   */
1515:Drivers/STM32F10x_StdPeriph_Driver/src/stm32f10x_flash.c **** FLASH_Status FLASH_GetBank1Status(void)
1516:Drivers/STM32F10x_StdPeriph_Driver/src/stm32f10x_flash.c **** {
 606              		.loc 1 1516 1 is_stmt 1 view -0
 607              		.cfi_startproc
 608              		@ args = 0, pretend = 0, frame = 0
 609              		@ frame_needed = 0, uses_anonymous_args = 0
 610              		@ link register save eliminated.
1517:Drivers/STM32F10x_StdPeriph_Driver/src/stm32f10x_flash.c ****   FLASH_Status flashstatus = FLASH_COMPLETE;
 611              		.loc 1 1517 3 view .LVU131
 612              	.LVL20:
1518:Drivers/STM32F10x_StdPeriph_Driver/src/stm32f10x_flash.c ****   
1519:Drivers/STM32F10x_StdPeriph_Driver/src/stm32f10x_flash.c ****   if((FLASH->SR & FLASH_FLAG_BANK1_BSY) == FLASH_FLAG_BSY) 
 613              		.loc 1 1519 3 view .LVU132
 614              		.loc 1 1519 12 is_stmt 0 view .LVU133
ARM GAS  /tmp/cc3Mf3YA.s 			page 38


 615 0000 0B4B     		ldr	r3, .L66
 616 0002 DB68     		ldr	r3, [r3, #12]
 617              		.loc 1 1519 5 view .LVU134
 618 0004 13F0010F 		tst	r3, #1
 619 0008 0BD1     		bne	.L63
1520:Drivers/STM32F10x_StdPeriph_Driver/src/stm32f10x_flash.c ****   {
1521:Drivers/STM32F10x_StdPeriph_Driver/src/stm32f10x_flash.c ****     flashstatus = FLASH_BUSY;
1522:Drivers/STM32F10x_StdPeriph_Driver/src/stm32f10x_flash.c ****   }
1523:Drivers/STM32F10x_StdPeriph_Driver/src/stm32f10x_flash.c ****   else 
1524:Drivers/STM32F10x_StdPeriph_Driver/src/stm32f10x_flash.c ****   {  
1525:Drivers/STM32F10x_StdPeriph_Driver/src/stm32f10x_flash.c ****     if((FLASH->SR & FLASH_FLAG_BANK1_PGERR) != 0)
 620              		.loc 1 1525 5 is_stmt 1 view .LVU135
 621              		.loc 1 1525 14 is_stmt 0 view .LVU136
 622 000a 094B     		ldr	r3, .L66
 623 000c DB68     		ldr	r3, [r3, #12]
 624              		.loc 1 1525 7 view .LVU137
 625 000e 13F0040F 		tst	r3, #4
 626 0012 08D1     		bne	.L64
1526:Drivers/STM32F10x_StdPeriph_Driver/src/stm32f10x_flash.c ****     { 
1527:Drivers/STM32F10x_StdPeriph_Driver/src/stm32f10x_flash.c ****       flashstatus = FLASH_ERROR_PG;
1528:Drivers/STM32F10x_StdPeriph_Driver/src/stm32f10x_flash.c ****     }
1529:Drivers/STM32F10x_StdPeriph_Driver/src/stm32f10x_flash.c ****     else 
1530:Drivers/STM32F10x_StdPeriph_Driver/src/stm32f10x_flash.c ****     {
1531:Drivers/STM32F10x_StdPeriph_Driver/src/stm32f10x_flash.c ****       if((FLASH->SR & FLASH_FLAG_BANK1_WRPRTERR) != 0 )
 627              		.loc 1 1531 7 is_stmt 1 view .LVU138
 628              		.loc 1 1531 16 is_stmt 0 view .LVU139
 629 0014 064B     		ldr	r3, .L66
 630 0016 DB68     		ldr	r3, [r3, #12]
 631              		.loc 1 1531 9 view .LVU140
 632 0018 13F0100F 		tst	r3, #16
 633 001c 05D0     		beq	.L65
1532:Drivers/STM32F10x_StdPeriph_Driver/src/stm32f10x_flash.c ****       {
1533:Drivers/STM32F10x_StdPeriph_Driver/src/stm32f10x_flash.c ****         flashstatus = FLASH_ERROR_WRP;
 634              		.loc 1 1533 21 view .LVU141
 635 001e 0320     		movs	r0, #3
 636 0020 7047     		bx	lr
 637              	.L63:
1521:Drivers/STM32F10x_StdPeriph_Driver/src/stm32f10x_flash.c ****   }
 638              		.loc 1 1521 17 view .LVU142
 639 0022 0120     		movs	r0, #1
 640 0024 7047     		bx	lr
 641              	.L64:
1527:Drivers/STM32F10x_StdPeriph_Driver/src/stm32f10x_flash.c ****     }
 642              		.loc 1 1527 19 view .LVU143
 643 0026 0220     		movs	r0, #2
 644 0028 7047     		bx	lr
 645              	.L65:
1534:Drivers/STM32F10x_StdPeriph_Driver/src/stm32f10x_flash.c ****       }
1535:Drivers/STM32F10x_StdPeriph_Driver/src/stm32f10x_flash.c ****       else
1536:Drivers/STM32F10x_StdPeriph_Driver/src/stm32f10x_flash.c ****       {
1537:Drivers/STM32F10x_StdPeriph_Driver/src/stm32f10x_flash.c ****         flashstatus = FLASH_COMPLETE;
 646              		.loc 1 1537 21 view .LVU144
 647 002a 0420     		movs	r0, #4
 648              	.LVL21:
1538:Drivers/STM32F10x_StdPeriph_Driver/src/stm32f10x_flash.c ****       }
1539:Drivers/STM32F10x_StdPeriph_Driver/src/stm32f10x_flash.c ****     }
1540:Drivers/STM32F10x_StdPeriph_Driver/src/stm32f10x_flash.c ****   }
ARM GAS  /tmp/cc3Mf3YA.s 			page 39


1541:Drivers/STM32F10x_StdPeriph_Driver/src/stm32f10x_flash.c ****   /* Return the Flash Status */
1542:Drivers/STM32F10x_StdPeriph_Driver/src/stm32f10x_flash.c ****   return flashstatus;
 649              		.loc 1 1542 3 is_stmt 1 view .LVU145
1543:Drivers/STM32F10x_StdPeriph_Driver/src/stm32f10x_flash.c **** }
 650              		.loc 1 1543 1 is_stmt 0 view .LVU146
 651 002c 7047     		bx	lr
 652              	.L67:
 653 002e 00BF     		.align	2
 654              	.L66:
 655 0030 00200240 		.word	1073881088
 656              		.cfi_endproc
 657              	.LFE90:
 659              		.section	.text.FLASH_WaitForLastOperation,"ax",%progbits
 660              		.align	1
 661              		.global	FLASH_WaitForLastOperation
 662              		.syntax unified
 663              		.thumb
 664              		.thumb_func
 666              	FLASH_WaitForLastOperation:
 667              	.LVL22:
 668              	.LFB91:
1544:Drivers/STM32F10x_StdPeriph_Driver/src/stm32f10x_flash.c **** 
1545:Drivers/STM32F10x_StdPeriph_Driver/src/stm32f10x_flash.c **** #ifdef STM32F10X_XL
1546:Drivers/STM32F10x_StdPeriph_Driver/src/stm32f10x_flash.c **** /**
1547:Drivers/STM32F10x_StdPeriph_Driver/src/stm32f10x_flash.c ****   * @brief  Returns the FLASH Bank2 Status.
1548:Drivers/STM32F10x_StdPeriph_Driver/src/stm32f10x_flash.c ****   * @note   This function can be used for STM32F10x_XL density devices.
1549:Drivers/STM32F10x_StdPeriph_Driver/src/stm32f10x_flash.c ****   * @param  None
1550:Drivers/STM32F10x_StdPeriph_Driver/src/stm32f10x_flash.c ****   * @retval FLASH Status: The returned value can be: FLASH_BUSY, FLASH_ERROR_PG,
1551:Drivers/STM32F10x_StdPeriph_Driver/src/stm32f10x_flash.c ****   *        FLASH_ERROR_WRP or FLASH_COMPLETE
1552:Drivers/STM32F10x_StdPeriph_Driver/src/stm32f10x_flash.c ****   */
1553:Drivers/STM32F10x_StdPeriph_Driver/src/stm32f10x_flash.c **** FLASH_Status FLASH_GetBank2Status(void)
1554:Drivers/STM32F10x_StdPeriph_Driver/src/stm32f10x_flash.c **** {
1555:Drivers/STM32F10x_StdPeriph_Driver/src/stm32f10x_flash.c ****   FLASH_Status flashstatus = FLASH_COMPLETE;
1556:Drivers/STM32F10x_StdPeriph_Driver/src/stm32f10x_flash.c ****   
1557:Drivers/STM32F10x_StdPeriph_Driver/src/stm32f10x_flash.c ****   if((FLASH->SR2 & (FLASH_FLAG_BANK2_BSY & 0x7FFFFFFF)) == (FLASH_FLAG_BANK2_BSY & 0x7FFFFFFF)) 
1558:Drivers/STM32F10x_StdPeriph_Driver/src/stm32f10x_flash.c ****   {
1559:Drivers/STM32F10x_StdPeriph_Driver/src/stm32f10x_flash.c ****     flashstatus = FLASH_BUSY;
1560:Drivers/STM32F10x_StdPeriph_Driver/src/stm32f10x_flash.c ****   }
1561:Drivers/STM32F10x_StdPeriph_Driver/src/stm32f10x_flash.c ****   else 
1562:Drivers/STM32F10x_StdPeriph_Driver/src/stm32f10x_flash.c ****   {  
1563:Drivers/STM32F10x_StdPeriph_Driver/src/stm32f10x_flash.c ****     if((FLASH->SR2 & (FLASH_FLAG_BANK2_PGERR & 0x7FFFFFFF)) != 0)
1564:Drivers/STM32F10x_StdPeriph_Driver/src/stm32f10x_flash.c ****     { 
1565:Drivers/STM32F10x_StdPeriph_Driver/src/stm32f10x_flash.c ****       flashstatus = FLASH_ERROR_PG;
1566:Drivers/STM32F10x_StdPeriph_Driver/src/stm32f10x_flash.c ****     }
1567:Drivers/STM32F10x_StdPeriph_Driver/src/stm32f10x_flash.c ****     else 
1568:Drivers/STM32F10x_StdPeriph_Driver/src/stm32f10x_flash.c ****     {
1569:Drivers/STM32F10x_StdPeriph_Driver/src/stm32f10x_flash.c ****       if((FLASH->SR2 & (FLASH_FLAG_BANK2_WRPRTERR & 0x7FFFFFFF)) != 0 )
1570:Drivers/STM32F10x_StdPeriph_Driver/src/stm32f10x_flash.c ****       {
1571:Drivers/STM32F10x_StdPeriph_Driver/src/stm32f10x_flash.c ****         flashstatus = FLASH_ERROR_WRP;
1572:Drivers/STM32F10x_StdPeriph_Driver/src/stm32f10x_flash.c ****       }
1573:Drivers/STM32F10x_StdPeriph_Driver/src/stm32f10x_flash.c ****       else
1574:Drivers/STM32F10x_StdPeriph_Driver/src/stm32f10x_flash.c ****       {
1575:Drivers/STM32F10x_StdPeriph_Driver/src/stm32f10x_flash.c ****         flashstatus = FLASH_COMPLETE;
1576:Drivers/STM32F10x_StdPeriph_Driver/src/stm32f10x_flash.c ****       }
1577:Drivers/STM32F10x_StdPeriph_Driver/src/stm32f10x_flash.c ****     }
1578:Drivers/STM32F10x_StdPeriph_Driver/src/stm32f10x_flash.c ****   }
1579:Drivers/STM32F10x_StdPeriph_Driver/src/stm32f10x_flash.c ****   /* Return the Flash Status */
ARM GAS  /tmp/cc3Mf3YA.s 			page 40


1580:Drivers/STM32F10x_StdPeriph_Driver/src/stm32f10x_flash.c ****   return flashstatus;
1581:Drivers/STM32F10x_StdPeriph_Driver/src/stm32f10x_flash.c **** }
1582:Drivers/STM32F10x_StdPeriph_Driver/src/stm32f10x_flash.c **** #endif /* STM32F10X_XL */
1583:Drivers/STM32F10x_StdPeriph_Driver/src/stm32f10x_flash.c **** /**
1584:Drivers/STM32F10x_StdPeriph_Driver/src/stm32f10x_flash.c ****   * @brief  Waits for a Flash operation to complete or a TIMEOUT to occur.
1585:Drivers/STM32F10x_StdPeriph_Driver/src/stm32f10x_flash.c ****   * @note   This function can be used for all STM32F10x devices, 
1586:Drivers/STM32F10x_StdPeriph_Driver/src/stm32f10x_flash.c ****   *         it is equivalent to FLASH_WaitForLastBank1Operation.
1587:Drivers/STM32F10x_StdPeriph_Driver/src/stm32f10x_flash.c ****   *         - For STM32F10X_XL devices this function waits for a Bank1 Flash operation
1588:Drivers/STM32F10x_StdPeriph_Driver/src/stm32f10x_flash.c ****   *           to complete or a TIMEOUT to occur.
1589:Drivers/STM32F10x_StdPeriph_Driver/src/stm32f10x_flash.c ****   *         - For all other devices it waits for a Flash operation to complete 
1590:Drivers/STM32F10x_StdPeriph_Driver/src/stm32f10x_flash.c ****   *           or a TIMEOUT to occur.
1591:Drivers/STM32F10x_StdPeriph_Driver/src/stm32f10x_flash.c ****   * @param  Timeout: FLASH programming Timeout
1592:Drivers/STM32F10x_StdPeriph_Driver/src/stm32f10x_flash.c ****   * @retval FLASH Status: The returned value can be: FLASH_ERROR_PG,
1593:Drivers/STM32F10x_StdPeriph_Driver/src/stm32f10x_flash.c ****   *         FLASH_ERROR_WRP, FLASH_COMPLETE or FLASH_TIMEOUT.
1594:Drivers/STM32F10x_StdPeriph_Driver/src/stm32f10x_flash.c ****   */
1595:Drivers/STM32F10x_StdPeriph_Driver/src/stm32f10x_flash.c **** FLASH_Status FLASH_WaitForLastOperation(uint32_t Timeout)
1596:Drivers/STM32F10x_StdPeriph_Driver/src/stm32f10x_flash.c **** { 
 669              		.loc 1 1596 1 is_stmt 1 view -0
 670              		.cfi_startproc
 671              		@ args = 0, pretend = 0, frame = 0
 672              		@ frame_needed = 0, uses_anonymous_args = 0
 673              		.loc 1 1596 1 is_stmt 0 view .LVU148
 674 0000 10B5     		push	{r4, lr}
 675              	.LCFI0:
 676              		.cfi_def_cfa_offset 8
 677              		.cfi_offset 4, -8
 678              		.cfi_offset 14, -4
 679 0002 0446     		mov	r4, r0
1597:Drivers/STM32F10x_StdPeriph_Driver/src/stm32f10x_flash.c ****   FLASH_Status status = FLASH_COMPLETE;
 680              		.loc 1 1597 3 is_stmt 1 view .LVU149
 681              	.LVL23:
1598:Drivers/STM32F10x_StdPeriph_Driver/src/stm32f10x_flash.c ****    
1599:Drivers/STM32F10x_StdPeriph_Driver/src/stm32f10x_flash.c ****   /* Check for the Flash Status */
1600:Drivers/STM32F10x_StdPeriph_Driver/src/stm32f10x_flash.c ****   status = FLASH_GetBank1Status();
 682              		.loc 1 1600 3 view .LVU150
 683              		.loc 1 1600 12 is_stmt 0 view .LVU151
 684 0004 FFF7FEFF 		bl	FLASH_GetBank1Status
 685              	.LVL24:
1601:Drivers/STM32F10x_StdPeriph_Driver/src/stm32f10x_flash.c ****   /* Wait for a Flash operation to complete or a TIMEOUT to occur */
1602:Drivers/STM32F10x_StdPeriph_Driver/src/stm32f10x_flash.c ****   while((status == FLASH_BUSY) && (Timeout != 0x00))
 686              		.loc 1 1602 3 is_stmt 1 view .LVU152
 687              		.loc 1 1602 8 is_stmt 0 view .LVU153
 688 0008 02E0     		b	.L69
 689              	.L71:
1603:Drivers/STM32F10x_StdPeriph_Driver/src/stm32f10x_flash.c ****   {
1604:Drivers/STM32F10x_StdPeriph_Driver/src/stm32f10x_flash.c ****     status = FLASH_GetBank1Status();
 690              		.loc 1 1604 5 is_stmt 1 view .LVU154
 691              		.loc 1 1604 14 is_stmt 0 view .LVU155
 692 000a FFF7FEFF 		bl	FLASH_GetBank1Status
 693              	.LVL25:
1605:Drivers/STM32F10x_StdPeriph_Driver/src/stm32f10x_flash.c ****     Timeout--;
 694              		.loc 1 1605 5 is_stmt 1 view .LVU156
 695              		.loc 1 1605 12 is_stmt 0 view .LVU157
 696 000e 013C     		subs	r4, r4, #1
 697              	.LVL26:
 698              	.L69:
1602:Drivers/STM32F10x_StdPeriph_Driver/src/stm32f10x_flash.c ****   {
ARM GAS  /tmp/cc3Mf3YA.s 			page 41


 699              		.loc 1 1602 32 is_stmt 1 view .LVU158
 700 0010 0128     		cmp	r0, #1
 701 0012 01D1     		bne	.L70
1602:Drivers/STM32F10x_StdPeriph_Driver/src/stm32f10x_flash.c ****   {
 702              		.loc 1 1602 32 is_stmt 0 discriminator 1 view .LVU159
 703 0014 002C     		cmp	r4, #0
 704 0016 F8D1     		bne	.L71
 705              	.L70:
1606:Drivers/STM32F10x_StdPeriph_Driver/src/stm32f10x_flash.c ****   }
1607:Drivers/STM32F10x_StdPeriph_Driver/src/stm32f10x_flash.c ****   if(Timeout == 0x00 )
 706              		.loc 1 1607 3 is_stmt 1 view .LVU160
 707              		.loc 1 1607 5 is_stmt 0 view .LVU161
 708 0018 04B1     		cbz	r4, .L75
 709              	.LVL27:
 710              	.L72:
1608:Drivers/STM32F10x_StdPeriph_Driver/src/stm32f10x_flash.c ****   {
1609:Drivers/STM32F10x_StdPeriph_Driver/src/stm32f10x_flash.c ****     status = FLASH_TIMEOUT;
1610:Drivers/STM32F10x_StdPeriph_Driver/src/stm32f10x_flash.c ****   }
1611:Drivers/STM32F10x_StdPeriph_Driver/src/stm32f10x_flash.c ****   /* Return the operation status */
1612:Drivers/STM32F10x_StdPeriph_Driver/src/stm32f10x_flash.c ****   return status;
 711              		.loc 1 1612 3 is_stmt 1 view .LVU162
1613:Drivers/STM32F10x_StdPeriph_Driver/src/stm32f10x_flash.c **** }
 712              		.loc 1 1613 1 is_stmt 0 view .LVU163
 713 001a 10BD     		pop	{r4, pc}
 714              	.LVL28:
 715              	.L75:
1609:Drivers/STM32F10x_StdPeriph_Driver/src/stm32f10x_flash.c ****   }
 716              		.loc 1 1609 12 view .LVU164
 717 001c 0520     		movs	r0, #5
 718              	.LVL29:
1609:Drivers/STM32F10x_StdPeriph_Driver/src/stm32f10x_flash.c ****   }
 719              		.loc 1 1609 12 view .LVU165
 720 001e FCE7     		b	.L72
 721              		.cfi_endproc
 722              	.LFE91:
 724              		.section	.text.FLASH_ErasePage,"ax",%progbits
 725              		.align	1
 726              		.global	FLASH_ErasePage
 727              		.syntax unified
 728              		.thumb
 729              		.thumb_func
 731              	FLASH_ErasePage:
 732              	.LVL30:
 733              	.LFB72:
 420:Drivers/STM32F10x_StdPeriph_Driver/src/stm32f10x_flash.c ****   FLASH_Status status = FLASH_COMPLETE;
 734              		.loc 1 420 1 is_stmt 1 view -0
 735              		.cfi_startproc
 736              		@ args = 0, pretend = 0, frame = 0
 737              		@ frame_needed = 0, uses_anonymous_args = 0
 420:Drivers/STM32F10x_StdPeriph_Driver/src/stm32f10x_flash.c ****   FLASH_Status status = FLASH_COMPLETE;
 738              		.loc 1 420 1 is_stmt 0 view .LVU167
 739 0000 38B5     		push	{r3, r4, r5, lr}
 740              	.LCFI1:
 741              		.cfi_def_cfa_offset 16
 742              		.cfi_offset 3, -16
 743              		.cfi_offset 4, -12
 744              		.cfi_offset 5, -8
ARM GAS  /tmp/cc3Mf3YA.s 			page 42


 745              		.cfi_offset 14, -4
 746 0002 0546     		mov	r5, r0
 421:Drivers/STM32F10x_StdPeriph_Driver/src/stm32f10x_flash.c ****   /* Check the parameters */
 747              		.loc 1 421 3 is_stmt 1 view .LVU168
 748              	.LVL31:
 423:Drivers/STM32F10x_StdPeriph_Driver/src/stm32f10x_flash.c **** 
 749              		.loc 1 423 3 view .LVU169
 464:Drivers/STM32F10x_StdPeriph_Driver/src/stm32f10x_flash.c ****   
 750              		.loc 1 464 3 view .LVU170
 464:Drivers/STM32F10x_StdPeriph_Driver/src/stm32f10x_flash.c ****   
 751              		.loc 1 464 12 is_stmt 0 view .LVU171
 752 0004 4FF43020 		mov	r0, #720896
 753              	.LVL32:
 464:Drivers/STM32F10x_StdPeriph_Driver/src/stm32f10x_flash.c ****   
 754              		.loc 1 464 12 view .LVU172
 755 0008 FFF7FEFF 		bl	FLASH_WaitForLastOperation
 756              	.LVL33:
 466:Drivers/STM32F10x_StdPeriph_Driver/src/stm32f10x_flash.c ****   { 
 757              		.loc 1 466 3 is_stmt 1 view .LVU173
 466:Drivers/STM32F10x_StdPeriph_Driver/src/stm32f10x_flash.c ****   { 
 758              		.loc 1 466 5 is_stmt 0 view .LVU174
 759 000c 0428     		cmp	r0, #4
 760 000e 00D0     		beq	.L79
 761              	.L77:
 482:Drivers/STM32F10x_StdPeriph_Driver/src/stm32f10x_flash.c **** }
 762              		.loc 1 482 3 is_stmt 1 view .LVU175
 483:Drivers/STM32F10x_StdPeriph_Driver/src/stm32f10x_flash.c **** 
 763              		.loc 1 483 1 is_stmt 0 view .LVU176
 764 0010 38BD     		pop	{r3, r4, r5, pc}
 765              	.LVL34:
 766              	.L79:
 469:Drivers/STM32F10x_StdPeriph_Driver/src/stm32f10x_flash.c ****     FLASH->AR = Page_Address; 
 767              		.loc 1 469 5 is_stmt 1 view .LVU177
 469:Drivers/STM32F10x_StdPeriph_Driver/src/stm32f10x_flash.c ****     FLASH->AR = Page_Address; 
 768              		.loc 1 469 10 is_stmt 0 view .LVU178
 769 0012 0A4C     		ldr	r4, .L80
 770 0014 2369     		ldr	r3, [r4, #16]
 469:Drivers/STM32F10x_StdPeriph_Driver/src/stm32f10x_flash.c ****     FLASH->AR = Page_Address; 
 771              		.loc 1 469 14 view .LVU179
 772 0016 43F00203 		orr	r3, r3, #2
 773 001a 2361     		str	r3, [r4, #16]
 470:Drivers/STM32F10x_StdPeriph_Driver/src/stm32f10x_flash.c ****     FLASH->CR|= CR_STRT_Set;
 774              		.loc 1 470 5 is_stmt 1 view .LVU180
 470:Drivers/STM32F10x_StdPeriph_Driver/src/stm32f10x_flash.c ****     FLASH->CR|= CR_STRT_Set;
 775              		.loc 1 470 15 is_stmt 0 view .LVU181
 776 001c 6561     		str	r5, [r4, #20]
 471:Drivers/STM32F10x_StdPeriph_Driver/src/stm32f10x_flash.c ****     
 777              		.loc 1 471 5 is_stmt 1 view .LVU182
 471:Drivers/STM32F10x_StdPeriph_Driver/src/stm32f10x_flash.c ****     
 778              		.loc 1 471 10 is_stmt 0 view .LVU183
 779 001e 2369     		ldr	r3, [r4, #16]
 471:Drivers/STM32F10x_StdPeriph_Driver/src/stm32f10x_flash.c ****     
 780              		.loc 1 471 14 view .LVU184
 781 0020 43F04003 		orr	r3, r3, #64
 782 0024 2361     		str	r3, [r4, #16]
 474:Drivers/STM32F10x_StdPeriph_Driver/src/stm32f10x_flash.c ****     
 783              		.loc 1 474 5 is_stmt 1 view .LVU185
ARM GAS  /tmp/cc3Mf3YA.s 			page 43


 474:Drivers/STM32F10x_StdPeriph_Driver/src/stm32f10x_flash.c ****     
 784              		.loc 1 474 14 is_stmt 0 view .LVU186
 785 0026 4FF43020 		mov	r0, #720896
 786              	.LVL35:
 474:Drivers/STM32F10x_StdPeriph_Driver/src/stm32f10x_flash.c ****     
 787              		.loc 1 474 14 view .LVU187
 788 002a FFF7FEFF 		bl	FLASH_WaitForLastOperation
 789              	.LVL36:
 477:Drivers/STM32F10x_StdPeriph_Driver/src/stm32f10x_flash.c ****   }
 790              		.loc 1 477 5 is_stmt 1 view .LVU188
 477:Drivers/STM32F10x_StdPeriph_Driver/src/stm32f10x_flash.c ****   }
 791              		.loc 1 477 10 is_stmt 0 view .LVU189
 792 002e 2369     		ldr	r3, [r4, #16]
 477:Drivers/STM32F10x_StdPeriph_Driver/src/stm32f10x_flash.c ****   }
 793              		.loc 1 477 15 view .LVU190
 794 0030 23F00203 		bic	r3, r3, #2
 795 0034 DB04     		lsls	r3, r3, #19
 796 0036 DB0C     		lsrs	r3, r3, #19
 797 0038 2361     		str	r3, [r4, #16]
 798 003a E9E7     		b	.L77
 799              	.L81:
 800              		.align	2
 801              	.L80:
 802 003c 00200240 		.word	1073881088
 803              		.cfi_endproc
 804              	.LFE72:
 806              		.section	.text.FLASH_EraseAllPages,"ax",%progbits
 807              		.align	1
 808              		.global	FLASH_EraseAllPages
 809              		.syntax unified
 810              		.thumb
 811              		.thumb_func
 813              	FLASH_EraseAllPages:
 814              	.LFB73:
 493:Drivers/STM32F10x_StdPeriph_Driver/src/stm32f10x_flash.c ****   FLASH_Status status = FLASH_COMPLETE;
 815              		.loc 1 493 1 is_stmt 1 view -0
 816              		.cfi_startproc
 817              		@ args = 0, pretend = 0, frame = 0
 818              		@ frame_needed = 0, uses_anonymous_args = 0
 819 0000 10B5     		push	{r4, lr}
 820              	.LCFI2:
 821              		.cfi_def_cfa_offset 8
 822              		.cfi_offset 4, -8
 823              		.cfi_offset 14, -4
 494:Drivers/STM32F10x_StdPeriph_Driver/src/stm32f10x_flash.c **** 
 824              		.loc 1 494 3 view .LVU192
 825              	.LVL37:
 526:Drivers/STM32F10x_StdPeriph_Driver/src/stm32f10x_flash.c ****   if(status == FLASH_COMPLETE)
 826              		.loc 1 526 3 view .LVU193
 526:Drivers/STM32F10x_StdPeriph_Driver/src/stm32f10x_flash.c ****   if(status == FLASH_COMPLETE)
 827              		.loc 1 526 12 is_stmt 0 view .LVU194
 828 0002 4FF43020 		mov	r0, #720896
 829 0006 FFF7FEFF 		bl	FLASH_WaitForLastOperation
 830              	.LVL38:
 527:Drivers/STM32F10x_StdPeriph_Driver/src/stm32f10x_flash.c ****   {
 831              		.loc 1 527 3 is_stmt 1 view .LVU195
 527:Drivers/STM32F10x_StdPeriph_Driver/src/stm32f10x_flash.c ****   {
ARM GAS  /tmp/cc3Mf3YA.s 			page 44


 832              		.loc 1 527 5 is_stmt 0 view .LVU196
 833 000a 0428     		cmp	r0, #4
 834 000c 00D0     		beq	.L85
 835              	.L83:
 542:Drivers/STM32F10x_StdPeriph_Driver/src/stm32f10x_flash.c **** }
 836              		.loc 1 542 3 is_stmt 1 view .LVU197
 543:Drivers/STM32F10x_StdPeriph_Driver/src/stm32f10x_flash.c **** 
 837              		.loc 1 543 1 is_stmt 0 view .LVU198
 838 000e 10BD     		pop	{r4, pc}
 839              	.L85:
 530:Drivers/STM32F10x_StdPeriph_Driver/src/stm32f10x_flash.c ****      FLASH->CR |= CR_STRT_Set;
 840              		.loc 1 530 6 is_stmt 1 view .LVU199
 530:Drivers/STM32F10x_StdPeriph_Driver/src/stm32f10x_flash.c ****      FLASH->CR |= CR_STRT_Set;
 841              		.loc 1 530 11 is_stmt 0 view .LVU200
 842 0010 094C     		ldr	r4, .L86
 843 0012 2369     		ldr	r3, [r4, #16]
 530:Drivers/STM32F10x_StdPeriph_Driver/src/stm32f10x_flash.c ****      FLASH->CR |= CR_STRT_Set;
 844              		.loc 1 530 16 view .LVU201
 845 0014 43F00403 		orr	r3, r3, #4
 846 0018 2361     		str	r3, [r4, #16]
 531:Drivers/STM32F10x_StdPeriph_Driver/src/stm32f10x_flash.c ****     
 847              		.loc 1 531 6 is_stmt 1 view .LVU202
 531:Drivers/STM32F10x_StdPeriph_Driver/src/stm32f10x_flash.c ****     
 848              		.loc 1 531 11 is_stmt 0 view .LVU203
 849 001a 2369     		ldr	r3, [r4, #16]
 531:Drivers/STM32F10x_StdPeriph_Driver/src/stm32f10x_flash.c ****     
 850              		.loc 1 531 16 view .LVU204
 851 001c 43F04003 		orr	r3, r3, #64
 852 0020 2361     		str	r3, [r4, #16]
 534:Drivers/STM32F10x_StdPeriph_Driver/src/stm32f10x_flash.c **** 
 853              		.loc 1 534 5 is_stmt 1 view .LVU205
 534:Drivers/STM32F10x_StdPeriph_Driver/src/stm32f10x_flash.c **** 
 854              		.loc 1 534 14 is_stmt 0 view .LVU206
 855 0022 4FF43020 		mov	r0, #720896
 856              	.LVL39:
 534:Drivers/STM32F10x_StdPeriph_Driver/src/stm32f10x_flash.c **** 
 857              		.loc 1 534 14 view .LVU207
 858 0026 FFF7FEFF 		bl	FLASH_WaitForLastOperation
 859              	.LVL40:
 537:Drivers/STM32F10x_StdPeriph_Driver/src/stm32f10x_flash.c ****   }
 860              		.loc 1 537 5 is_stmt 1 view .LVU208
 537:Drivers/STM32F10x_StdPeriph_Driver/src/stm32f10x_flash.c ****   }
 861              		.loc 1 537 10 is_stmt 0 view .LVU209
 862 002a 2369     		ldr	r3, [r4, #16]
 537:Drivers/STM32F10x_StdPeriph_Driver/src/stm32f10x_flash.c ****   }
 863              		.loc 1 537 15 view .LVU210
 864 002c 23F00403 		bic	r3, r3, #4
 865 0030 DB04     		lsls	r3, r3, #19
 866 0032 DB0C     		lsrs	r3, r3, #19
 867 0034 2361     		str	r3, [r4, #16]
 868 0036 EAE7     		b	.L83
 869              	.L87:
 870              		.align	2
 871              	.L86:
 872 0038 00200240 		.word	1073881088
 873              		.cfi_endproc
 874              	.LFE73:
ARM GAS  /tmp/cc3Mf3YA.s 			page 45


 876              		.section	.text.FLASH_EraseOptionBytes,"ax",%progbits
 877              		.align	1
 878              		.global	FLASH_EraseOptionBytes
 879              		.syntax unified
 880              		.thumb
 881              		.thumb_func
 883              	FLASH_EraseOptionBytes:
 884              	.LFB75:
 617:Drivers/STM32F10x_StdPeriph_Driver/src/stm32f10x_flash.c ****   uint16_t rdptmp = RDP_Key;
 885              		.loc 1 617 1 is_stmt 1 view -0
 886              		.cfi_startproc
 887              		@ args = 0, pretend = 0, frame = 0
 888              		@ frame_needed = 0, uses_anonymous_args = 0
 889 0000 10B5     		push	{r4, lr}
 890              	.LCFI3:
 891              		.cfi_def_cfa_offset 8
 892              		.cfi_offset 4, -8
 893              		.cfi_offset 14, -4
 618:Drivers/STM32F10x_StdPeriph_Driver/src/stm32f10x_flash.c **** 
 894              		.loc 1 618 3 view .LVU212
 895              	.LVL41:
 620:Drivers/STM32F10x_StdPeriph_Driver/src/stm32f10x_flash.c **** 
 896              		.loc 1 620 3 view .LVU213
 623:Drivers/STM32F10x_StdPeriph_Driver/src/stm32f10x_flash.c ****   {
 897              		.loc 1 623 3 view .LVU214
 623:Drivers/STM32F10x_StdPeriph_Driver/src/stm32f10x_flash.c ****   {
 898              		.loc 1 623 6 is_stmt 0 view .LVU215
 899 0002 FFF7FEFF 		bl	FLASH_GetReadOutProtectionStatus
 900              	.LVL42:
 623:Drivers/STM32F10x_StdPeriph_Driver/src/stm32f10x_flash.c ****   {
 901              		.loc 1 623 5 discriminator 1 view .LVU216
 902 0006 40B9     		cbnz	r0, .L92
 618:Drivers/STM32F10x_StdPeriph_Driver/src/stm32f10x_flash.c **** 
 903              		.loc 1 618 12 view .LVU217
 904 0008 A523     		movs	r3, #165
 905 000a 1C46     		mov	r4, r3
 906              	.L89:
 907              	.LVL43:
 629:Drivers/STM32F10x_StdPeriph_Driver/src/stm32f10x_flash.c ****   if(status == FLASH_COMPLETE)
 908              		.loc 1 629 3 is_stmt 1 view .LVU218
 629:Drivers/STM32F10x_StdPeriph_Driver/src/stm32f10x_flash.c ****   if(status == FLASH_COMPLETE)
 909              		.loc 1 629 12 is_stmt 0 view .LVU219
 910 000c 4FF43020 		mov	r0, #720896
 911 0010 FFF7FEFF 		bl	FLASH_WaitForLastOperation
 912              	.LVL44:
 630:Drivers/STM32F10x_StdPeriph_Driver/src/stm32f10x_flash.c ****   {
 913              		.loc 1 630 3 is_stmt 1 view .LVU220
 630:Drivers/STM32F10x_StdPeriph_Driver/src/stm32f10x_flash.c ****   {
 914              		.loc 1 630 5 is_stmt 0 view .LVU221
 915 0014 0428     		cmp	r0, #4
 916 0016 03D0     		beq	.L94
 917              	.L90:
 670:Drivers/STM32F10x_StdPeriph_Driver/src/stm32f10x_flash.c **** }
 918              		.loc 1 670 3 is_stmt 1 view .LVU222
 671:Drivers/STM32F10x_StdPeriph_Driver/src/stm32f10x_flash.c **** 
 919              		.loc 1 671 1 is_stmt 0 view .LVU223
 920 0018 10BD     		pop	{r4, pc}
ARM GAS  /tmp/cc3Mf3YA.s 			page 46


 921              	.LVL45:
 922              	.L92:
 625:Drivers/STM32F10x_StdPeriph_Driver/src/stm32f10x_flash.c ****   }
 923              		.loc 1 625 12 view .LVU224
 924 001a 0023     		movs	r3, #0
 925 001c 1C46     		mov	r4, r3
 926 001e F5E7     		b	.L89
 927              	.LVL46:
 928              	.L94:
 633:Drivers/STM32F10x_StdPeriph_Driver/src/stm32f10x_flash.c ****     FLASH->OPTKEYR = FLASH_KEY2;
 929              		.loc 1 633 5 is_stmt 1 view .LVU225
 633:Drivers/STM32F10x_StdPeriph_Driver/src/stm32f10x_flash.c ****     FLASH->OPTKEYR = FLASH_KEY2;
 930              		.loc 1 633 20 is_stmt 0 view .LVU226
 931 0020 1C4B     		ldr	r3, .L96
 932 0022 1D4A     		ldr	r2, .L96+4
 933 0024 9A60     		str	r2, [r3, #8]
 634:Drivers/STM32F10x_StdPeriph_Driver/src/stm32f10x_flash.c ****     
 934              		.loc 1 634 5 is_stmt 1 view .LVU227
 634:Drivers/STM32F10x_StdPeriph_Driver/src/stm32f10x_flash.c ****     
 935              		.loc 1 634 20 is_stmt 0 view .LVU228
 936 0026 02F18832 		add	r2, r2, #-2004318072
 937 002a 9A60     		str	r2, [r3, #8]
 637:Drivers/STM32F10x_StdPeriph_Driver/src/stm32f10x_flash.c ****     FLASH->CR |= CR_STRT_Set;
 938              		.loc 1 637 5 is_stmt 1 view .LVU229
 637:Drivers/STM32F10x_StdPeriph_Driver/src/stm32f10x_flash.c ****     FLASH->CR |= CR_STRT_Set;
 939              		.loc 1 637 10 is_stmt 0 view .LVU230
 940 002c 1A69     		ldr	r2, [r3, #16]
 637:Drivers/STM32F10x_StdPeriph_Driver/src/stm32f10x_flash.c ****     FLASH->CR |= CR_STRT_Set;
 941              		.loc 1 637 15 view .LVU231
 942 002e 42F02002 		orr	r2, r2, #32
 943 0032 1A61     		str	r2, [r3, #16]
 638:Drivers/STM32F10x_StdPeriph_Driver/src/stm32f10x_flash.c ****     /* Wait for last operation to be completed */
 944              		.loc 1 638 5 is_stmt 1 view .LVU232
 638:Drivers/STM32F10x_StdPeriph_Driver/src/stm32f10x_flash.c ****     /* Wait for last operation to be completed */
 945              		.loc 1 638 10 is_stmt 0 view .LVU233
 946 0034 1A69     		ldr	r2, [r3, #16]
 638:Drivers/STM32F10x_StdPeriph_Driver/src/stm32f10x_flash.c ****     /* Wait for last operation to be completed */
 947              		.loc 1 638 15 view .LVU234
 948 0036 42F04002 		orr	r2, r2, #64
 949 003a 1A61     		str	r2, [r3, #16]
 640:Drivers/STM32F10x_StdPeriph_Driver/src/stm32f10x_flash.c ****     
 950              		.loc 1 640 5 is_stmt 1 view .LVU235
 640:Drivers/STM32F10x_StdPeriph_Driver/src/stm32f10x_flash.c ****     
 951              		.loc 1 640 14 is_stmt 0 view .LVU236
 952 003c 4FF43020 		mov	r0, #720896
 953              	.LVL47:
 640:Drivers/STM32F10x_StdPeriph_Driver/src/stm32f10x_flash.c ****     
 954              		.loc 1 640 14 view .LVU237
 955 0040 FFF7FEFF 		bl	FLASH_WaitForLastOperation
 956              	.LVL48:
 642:Drivers/STM32F10x_StdPeriph_Driver/src/stm32f10x_flash.c ****     {
 957              		.loc 1 642 5 is_stmt 1 view .LVU238
 642:Drivers/STM32F10x_StdPeriph_Driver/src/stm32f10x_flash.c ****     {
 958              		.loc 1 642 7 is_stmt 0 view .LVU239
 959 0044 0428     		cmp	r0, #4
 960 0046 09D0     		beq	.L95
 662:Drivers/STM32F10x_StdPeriph_Driver/src/stm32f10x_flash.c ****       {
ARM GAS  /tmp/cc3Mf3YA.s 			page 47


 961              		.loc 1 662 7 is_stmt 1 view .LVU240
 662:Drivers/STM32F10x_StdPeriph_Driver/src/stm32f10x_flash.c ****       {
 962              		.loc 1 662 10 is_stmt 0 view .LVU241
 963 0048 0528     		cmp	r0, #5
 964 004a E5D0     		beq	.L90
 665:Drivers/STM32F10x_StdPeriph_Driver/src/stm32f10x_flash.c ****       }
 965              		.loc 1 665 9 is_stmt 1 view .LVU242
 665:Drivers/STM32F10x_StdPeriph_Driver/src/stm32f10x_flash.c ****       }
 966              		.loc 1 665 14 is_stmt 0 view .LVU243
 967 004c 114A     		ldr	r2, .L96
 968 004e 1369     		ldr	r3, [r2, #16]
 665:Drivers/STM32F10x_StdPeriph_Driver/src/stm32f10x_flash.c ****       }
 969              		.loc 1 665 19 view .LVU244
 970 0050 23F01003 		bic	r3, r3, #16
 971 0054 DB04     		lsls	r3, r3, #19
 972 0056 DB0C     		lsrs	r3, r3, #19
 973 0058 1361     		str	r3, [r2, #16]
 974 005a DDE7     		b	.L90
 975              	.L95:
 645:Drivers/STM32F10x_StdPeriph_Driver/src/stm32f10x_flash.c ****        
 976              		.loc 1 645 7 is_stmt 1 view .LVU245
 645:Drivers/STM32F10x_StdPeriph_Driver/src/stm32f10x_flash.c ****        
 977              		.loc 1 645 12 is_stmt 0 view .LVU246
 978 005c 0D4B     		ldr	r3, .L96
 979 005e 1A69     		ldr	r2, [r3, #16]
 645:Drivers/STM32F10x_StdPeriph_Driver/src/stm32f10x_flash.c ****        
 980              		.loc 1 645 17 view .LVU247
 981 0060 22F02002 		bic	r2, r2, #32
 982 0064 D204     		lsls	r2, r2, #19
 983 0066 D20C     		lsrs	r2, r2, #19
 984 0068 1A61     		str	r2, [r3, #16]
 648:Drivers/STM32F10x_StdPeriph_Driver/src/stm32f10x_flash.c ****       /* Restore the last read protection Option Byte value */
 985              		.loc 1 648 7 is_stmt 1 view .LVU248
 648:Drivers/STM32F10x_StdPeriph_Driver/src/stm32f10x_flash.c ****       /* Restore the last read protection Option Byte value */
 986              		.loc 1 648 12 is_stmt 0 view .LVU249
 987 006a 1A69     		ldr	r2, [r3, #16]
 648:Drivers/STM32F10x_StdPeriph_Driver/src/stm32f10x_flash.c ****       /* Restore the last read protection Option Byte value */
 988              		.loc 1 648 17 view .LVU250
 989 006c 42F01002 		orr	r2, r2, #16
 990 0070 1A61     		str	r2, [r3, #16]
 650:Drivers/STM32F10x_StdPeriph_Driver/src/stm32f10x_flash.c ****       /* Wait for last operation to be completed */
 991              		.loc 1 650 7 is_stmt 1 view .LVU251
 650:Drivers/STM32F10x_StdPeriph_Driver/src/stm32f10x_flash.c ****       /* Wait for last operation to be completed */
 992              		.loc 1 650 15 is_stmt 0 view .LVU252
 993 0072 0A4B     		ldr	r3, .L96+8
 994 0074 1C80     		strh	r4, [r3]	@ movhi
 652:Drivers/STM32F10x_StdPeriph_Driver/src/stm32f10x_flash.c ****  
 995              		.loc 1 652 7 is_stmt 1 view .LVU253
 652:Drivers/STM32F10x_StdPeriph_Driver/src/stm32f10x_flash.c ****  
 996              		.loc 1 652 16 is_stmt 0 view .LVU254
 997 0076 4FF40050 		mov	r0, #8192
 998              	.LVL49:
 652:Drivers/STM32F10x_StdPeriph_Driver/src/stm32f10x_flash.c ****  
 999              		.loc 1 652 16 view .LVU255
 1000 007a FFF7FEFF 		bl	FLASH_WaitForLastOperation
 1001              	.LVL50:
 654:Drivers/STM32F10x_StdPeriph_Driver/src/stm32f10x_flash.c ****       {
ARM GAS  /tmp/cc3Mf3YA.s 			page 48


 1002              		.loc 1 654 7 is_stmt 1 view .LVU256
 654:Drivers/STM32F10x_StdPeriph_Driver/src/stm32f10x_flash.c ****       {
 1003              		.loc 1 654 9 is_stmt 0 view .LVU257
 1004 007e 0528     		cmp	r0, #5
 1005 0080 CAD0     		beq	.L90
 657:Drivers/STM32F10x_StdPeriph_Driver/src/stm32f10x_flash.c ****       }
 1006              		.loc 1 657 9 is_stmt 1 view .LVU258
 657:Drivers/STM32F10x_StdPeriph_Driver/src/stm32f10x_flash.c ****       }
 1007              		.loc 1 657 14 is_stmt 0 view .LVU259
 1008 0082 044A     		ldr	r2, .L96
 1009 0084 1369     		ldr	r3, [r2, #16]
 657:Drivers/STM32F10x_StdPeriph_Driver/src/stm32f10x_flash.c ****       }
 1010              		.loc 1 657 19 view .LVU260
 1011 0086 23F01003 		bic	r3, r3, #16
 1012 008a DB04     		lsls	r3, r3, #19
 1013 008c DB0C     		lsrs	r3, r3, #19
 1014 008e 1361     		str	r3, [r2, #16]
 1015 0090 C2E7     		b	.L90
 1016              	.L97:
 1017 0092 00BF     		.align	2
 1018              	.L96:
 1019 0094 00200240 		.word	1073881088
 1020 0098 23016745 		.word	1164378403
 1021 009c 00F8FF1F 		.word	536868864
 1022              		.cfi_endproc
 1023              	.LFE75:
 1025              		.section	.text.FLASH_ProgramWord,"ax",%progbits
 1026              		.align	1
 1027              		.global	FLASH_ProgramWord
 1028              		.syntax unified
 1029              		.thumb
 1030              		.thumb_func
 1032              	FLASH_ProgramWord:
 1033              	.LVL51:
 1034              	.LFB76:
 682:Drivers/STM32F10x_StdPeriph_Driver/src/stm32f10x_flash.c ****   FLASH_Status status = FLASH_COMPLETE;
 1035              		.loc 1 682 1 is_stmt 1 view -0
 1036              		.cfi_startproc
 1037              		@ args = 0, pretend = 0, frame = 8
 1038              		@ frame_needed = 0, uses_anonymous_args = 0
 682:Drivers/STM32F10x_StdPeriph_Driver/src/stm32f10x_flash.c ****   FLASH_Status status = FLASH_COMPLETE;
 1039              		.loc 1 682 1 is_stmt 0 view .LVU262
 1040 0000 30B5     		push	{r4, r5, lr}
 1041              	.LCFI4:
 1042              		.cfi_def_cfa_offset 12
 1043              		.cfi_offset 4, -12
 1044              		.cfi_offset 5, -8
 1045              		.cfi_offset 14, -4
 1046 0002 83B0     		sub	sp, sp, #12
 1047              	.LCFI5:
 1048              		.cfi_def_cfa_offset 24
 1049 0004 0446     		mov	r4, r0
 1050 0006 0D46     		mov	r5, r1
 683:Drivers/STM32F10x_StdPeriph_Driver/src/stm32f10x_flash.c ****   __IO uint32_t tmp = 0;
 1051              		.loc 1 683 3 is_stmt 1 view .LVU263
 1052              	.LVL52:
 684:Drivers/STM32F10x_StdPeriph_Driver/src/stm32f10x_flash.c **** 
ARM GAS  /tmp/cc3Mf3YA.s 			page 49


 1053              		.loc 1 684 3 view .LVU264
 684:Drivers/STM32F10x_StdPeriph_Driver/src/stm32f10x_flash.c **** 
 1054              		.loc 1 684 17 is_stmt 0 view .LVU265
 1055 0008 0023     		movs	r3, #0
 1056 000a 0193     		str	r3, [sp, #4]
 687:Drivers/STM32F10x_StdPeriph_Driver/src/stm32f10x_flash.c **** 
 1057              		.loc 1 687 3 is_stmt 1 view .LVU266
 812:Drivers/STM32F10x_StdPeriph_Driver/src/stm32f10x_flash.c ****   
 1058              		.loc 1 812 3 view .LVU267
 812:Drivers/STM32F10x_StdPeriph_Driver/src/stm32f10x_flash.c ****   
 1059              		.loc 1 812 12 is_stmt 0 view .LVU268
 1060 000c 4FF40050 		mov	r0, #8192
 1061              	.LVL53:
 812:Drivers/STM32F10x_StdPeriph_Driver/src/stm32f10x_flash.c ****   
 1062              		.loc 1 812 12 view .LVU269
 1063 0010 FFF7FEFF 		bl	FLASH_WaitForLastOperation
 1064              	.LVL54:
 814:Drivers/STM32F10x_StdPeriph_Driver/src/stm32f10x_flash.c ****   {
 1065              		.loc 1 814 3 is_stmt 1 view .LVU270
 814:Drivers/STM32F10x_StdPeriph_Driver/src/stm32f10x_flash.c ****   {
 1066              		.loc 1 814 5 is_stmt 0 view .LVU271
 1067 0014 0428     		cmp	r0, #4
 1068 0016 01D0     		beq	.L102
 1069              	.L99:
 847:Drivers/STM32F10x_StdPeriph_Driver/src/stm32f10x_flash.c **** }
 1070              		.loc 1 847 3 is_stmt 1 view .LVU272
 848:Drivers/STM32F10x_StdPeriph_Driver/src/stm32f10x_flash.c **** 
 1071              		.loc 1 848 1 is_stmt 0 view .LVU273
 1072 0018 03B0     		add	sp, sp, #12
 1073              	.LCFI6:
 1074              		.cfi_remember_state
 1075              		.cfi_def_cfa_offset 12
 1076              		@ sp needed
 1077 001a 30BD     		pop	{r4, r5, pc}
 1078              	.LVL55:
 1079              	.L102:
 1080              	.LCFI7:
 1081              		.cfi_restore_state
 818:Drivers/STM32F10x_StdPeriph_Driver/src/stm32f10x_flash.c ****   
 1082              		.loc 1 818 5 is_stmt 1 view .LVU274
 818:Drivers/STM32F10x_StdPeriph_Driver/src/stm32f10x_flash.c ****   
 1083              		.loc 1 818 10 is_stmt 0 view .LVU275
 1084 001c 134A     		ldr	r2, .L104
 1085 001e 1369     		ldr	r3, [r2, #16]
 818:Drivers/STM32F10x_StdPeriph_Driver/src/stm32f10x_flash.c ****   
 1086              		.loc 1 818 15 view .LVU276
 1087 0020 43F00103 		orr	r3, r3, #1
 1088 0024 1361     		str	r3, [r2, #16]
 820:Drivers/STM32F10x_StdPeriph_Driver/src/stm32f10x_flash.c ****     /* Wait for last operation to be completed */
 1089              		.loc 1 820 5 is_stmt 1 view .LVU277
 820:Drivers/STM32F10x_StdPeriph_Driver/src/stm32f10x_flash.c ****     /* Wait for last operation to be completed */
 1090              		.loc 1 820 32 is_stmt 0 view .LVU278
 1091 0026 ABB2     		uxth	r3, r5
 820:Drivers/STM32F10x_StdPeriph_Driver/src/stm32f10x_flash.c ****     /* Wait for last operation to be completed */
 1092              		.loc 1 820 30 view .LVU279
 1093 0028 2380     		strh	r3, [r4]	@ movhi
 822:Drivers/STM32F10x_StdPeriph_Driver/src/stm32f10x_flash.c ****  
ARM GAS  /tmp/cc3Mf3YA.s 			page 50


 1094              		.loc 1 822 5 is_stmt 1 view .LVU280
 822:Drivers/STM32F10x_StdPeriph_Driver/src/stm32f10x_flash.c ****  
 1095              		.loc 1 822 14 is_stmt 0 view .LVU281
 1096 002a 4FF40050 		mov	r0, #8192
 1097              	.LVL56:
 822:Drivers/STM32F10x_StdPeriph_Driver/src/stm32f10x_flash.c ****  
 1098              		.loc 1 822 14 view .LVU282
 1099 002e FFF7FEFF 		bl	FLASH_WaitForLastOperation
 1100              	.LVL57:
 824:Drivers/STM32F10x_StdPeriph_Driver/src/stm32f10x_flash.c ****     {
 1101              		.loc 1 824 5 is_stmt 1 view .LVU283
 824:Drivers/STM32F10x_StdPeriph_Driver/src/stm32f10x_flash.c ****     {
 1102              		.loc 1 824 7 is_stmt 0 view .LVU284
 1103 0032 0428     		cmp	r0, #4
 1104 0034 07D0     		beq	.L103
 841:Drivers/STM32F10x_StdPeriph_Driver/src/stm32f10x_flash.c ****     }
 1105              		.loc 1 841 7 is_stmt 1 view .LVU285
 841:Drivers/STM32F10x_StdPeriph_Driver/src/stm32f10x_flash.c ****     }
 1106              		.loc 1 841 12 is_stmt 0 view .LVU286
 1107 0036 0D4A     		ldr	r2, .L104
 1108 0038 1369     		ldr	r3, [r2, #16]
 841:Drivers/STM32F10x_StdPeriph_Driver/src/stm32f10x_flash.c ****     }
 1109              		.loc 1 841 17 view .LVU287
 1110 003a 23F00103 		bic	r3, r3, #1
 1111 003e DB04     		lsls	r3, r3, #19
 1112 0040 DB0C     		lsrs	r3, r3, #19
 1113 0042 1361     		str	r3, [r2, #16]
 1114 0044 E8E7     		b	.L99
 1115              	.L103:
 828:Drivers/STM32F10x_StdPeriph_Driver/src/stm32f10x_flash.c **** 
 1116              		.loc 1 828 7 is_stmt 1 view .LVU288
 828:Drivers/STM32F10x_StdPeriph_Driver/src/stm32f10x_flash.c **** 
 1117              		.loc 1 828 21 is_stmt 0 view .LVU289
 1118 0046 2046     		mov	r0, r4
 1119              	.LVL58:
 828:Drivers/STM32F10x_StdPeriph_Driver/src/stm32f10x_flash.c **** 
 1120              		.loc 1 828 21 view .LVU290
 1121 0048 0230     		adds	r0, r0, #2
 828:Drivers/STM32F10x_StdPeriph_Driver/src/stm32f10x_flash.c **** 
 1122              		.loc 1 828 11 view .LVU291
 1123 004a 0190     		str	r0, [sp, #4]
 830:Drivers/STM32F10x_StdPeriph_Driver/src/stm32f10x_flash.c ****     
 1124              		.loc 1 830 7 is_stmt 1 view .LVU292
 830:Drivers/STM32F10x_StdPeriph_Driver/src/stm32f10x_flash.c ****     
 1125              		.loc 1 830 8 is_stmt 0 view .LVU293
 1126 004c 019B     		ldr	r3, [sp, #4]
 830:Drivers/STM32F10x_StdPeriph_Driver/src/stm32f10x_flash.c ****     
 1127              		.loc 1 830 29 view .LVU294
 1128 004e 290C     		lsrs	r1, r5, #16
 1129 0050 1980     		strh	r1, [r3]	@ movhi
 833:Drivers/STM32F10x_StdPeriph_Driver/src/stm32f10x_flash.c ****         
 1130              		.loc 1 833 7 is_stmt 1 view .LVU295
 833:Drivers/STM32F10x_StdPeriph_Driver/src/stm32f10x_flash.c ****         
 1131              		.loc 1 833 16 is_stmt 0 view .LVU296
 1132 0052 4FF40050 		mov	r0, #8192
 1133 0056 FFF7FEFF 		bl	FLASH_WaitForLastOperation
 1134              	.LVL59:
ARM GAS  /tmp/cc3Mf3YA.s 			page 51


 836:Drivers/STM32F10x_StdPeriph_Driver/src/stm32f10x_flash.c ****     }
 1135              		.loc 1 836 7 is_stmt 1 view .LVU297
 836:Drivers/STM32F10x_StdPeriph_Driver/src/stm32f10x_flash.c ****     }
 1136              		.loc 1 836 12 is_stmt 0 view .LVU298
 1137 005a 044A     		ldr	r2, .L104
 1138 005c 1369     		ldr	r3, [r2, #16]
 836:Drivers/STM32F10x_StdPeriph_Driver/src/stm32f10x_flash.c ****     }
 1139              		.loc 1 836 17 view .LVU299
 1140 005e 23F00103 		bic	r3, r3, #1
 1141 0062 DB04     		lsls	r3, r3, #19
 1142 0064 DB0C     		lsrs	r3, r3, #19
 1143 0066 1361     		str	r3, [r2, #16]
 1144 0068 D6E7     		b	.L99
 1145              	.L105:
 1146 006a 00BF     		.align	2
 1147              	.L104:
 1148 006c 00200240 		.word	1073881088
 1149              		.cfi_endproc
 1150              	.LFE76:
 1152              		.section	.text.FLASH_ProgramHalfWord,"ax",%progbits
 1153              		.align	1
 1154              		.global	FLASH_ProgramHalfWord
 1155              		.syntax unified
 1156              		.thumb
 1157              		.thumb_func
 1159              	FLASH_ProgramHalfWord:
 1160              	.LVL60:
 1161              	.LFB77:
 859:Drivers/STM32F10x_StdPeriph_Driver/src/stm32f10x_flash.c ****   FLASH_Status status = FLASH_COMPLETE;
 1162              		.loc 1 859 1 is_stmt 1 view -0
 1163              		.cfi_startproc
 1164              		@ args = 0, pretend = 0, frame = 0
 1165              		@ frame_needed = 0, uses_anonymous_args = 0
 859:Drivers/STM32F10x_StdPeriph_Driver/src/stm32f10x_flash.c ****   FLASH_Status status = FLASH_COMPLETE;
 1166              		.loc 1 859 1 is_stmt 0 view .LVU301
 1167 0000 70B5     		push	{r4, r5, r6, lr}
 1168              	.LCFI8:
 1169              		.cfi_def_cfa_offset 16
 1170              		.cfi_offset 4, -16
 1171              		.cfi_offset 5, -12
 1172              		.cfi_offset 6, -8
 1173              		.cfi_offset 14, -4
 1174 0002 0546     		mov	r5, r0
 1175 0004 0E46     		mov	r6, r1
 860:Drivers/STM32F10x_StdPeriph_Driver/src/stm32f10x_flash.c ****   /* Check the parameters */
 1176              		.loc 1 860 3 is_stmt 1 view .LVU302
 1177              	.LVL61:
 862:Drivers/STM32F10x_StdPeriph_Driver/src/stm32f10x_flash.c **** 
 1178              		.loc 1 862 3 view .LVU303
 900:Drivers/STM32F10x_StdPeriph_Driver/src/stm32f10x_flash.c ****   
 1179              		.loc 1 900 3 view .LVU304
 900:Drivers/STM32F10x_StdPeriph_Driver/src/stm32f10x_flash.c ****   
 1180              		.loc 1 900 12 is_stmt 0 view .LVU305
 1181 0006 4FF40050 		mov	r0, #8192
 1182              	.LVL62:
 900:Drivers/STM32F10x_StdPeriph_Driver/src/stm32f10x_flash.c ****   
 1183              		.loc 1 900 12 view .LVU306
ARM GAS  /tmp/cc3Mf3YA.s 			page 52


 1184 000a FFF7FEFF 		bl	FLASH_WaitForLastOperation
 1185              	.LVL63:
 902:Drivers/STM32F10x_StdPeriph_Driver/src/stm32f10x_flash.c ****   {
 1186              		.loc 1 902 3 is_stmt 1 view .LVU307
 902:Drivers/STM32F10x_StdPeriph_Driver/src/stm32f10x_flash.c ****   {
 1187              		.loc 1 902 5 is_stmt 0 view .LVU308
 1188 000e 0428     		cmp	r0, #4
 1189 0010 00D0     		beq	.L109
 1190              	.L107:
 917:Drivers/STM32F10x_StdPeriph_Driver/src/stm32f10x_flash.c **** }
 1191              		.loc 1 917 3 is_stmt 1 view .LVU309
 918:Drivers/STM32F10x_StdPeriph_Driver/src/stm32f10x_flash.c **** 
 1192              		.loc 1 918 1 is_stmt 0 view .LVU310
 1193 0012 70BD     		pop	{r4, r5, r6, pc}
 1194              	.LVL64:
 1195              	.L109:
 905:Drivers/STM32F10x_StdPeriph_Driver/src/stm32f10x_flash.c ****   
 1196              		.loc 1 905 5 is_stmt 1 view .LVU311
 905:Drivers/STM32F10x_StdPeriph_Driver/src/stm32f10x_flash.c ****   
 1197              		.loc 1 905 10 is_stmt 0 view .LVU312
 1198 0014 084C     		ldr	r4, .L110
 1199 0016 2369     		ldr	r3, [r4, #16]
 905:Drivers/STM32F10x_StdPeriph_Driver/src/stm32f10x_flash.c ****   
 1200              		.loc 1 905 15 view .LVU313
 1201 0018 43F00103 		orr	r3, r3, #1
 1202 001c 2361     		str	r3, [r4, #16]
 907:Drivers/STM32F10x_StdPeriph_Driver/src/stm32f10x_flash.c ****     /* Wait for last operation to be completed */
 1203              		.loc 1 907 5 is_stmt 1 view .LVU314
 907:Drivers/STM32F10x_StdPeriph_Driver/src/stm32f10x_flash.c ****     /* Wait for last operation to be completed */
 1204              		.loc 1 907 30 is_stmt 0 view .LVU315
 1205 001e 2E80     		strh	r6, [r5]	@ movhi
 909:Drivers/STM32F10x_StdPeriph_Driver/src/stm32f10x_flash.c ****     
 1206              		.loc 1 909 5 is_stmt 1 view .LVU316
 909:Drivers/STM32F10x_StdPeriph_Driver/src/stm32f10x_flash.c ****     
 1207              		.loc 1 909 14 is_stmt 0 view .LVU317
 1208 0020 4FF40050 		mov	r0, #8192
 1209              	.LVL65:
 909:Drivers/STM32F10x_StdPeriph_Driver/src/stm32f10x_flash.c ****     
 1210              		.loc 1 909 14 view .LVU318
 1211 0024 FFF7FEFF 		bl	FLASH_WaitForLastOperation
 1212              	.LVL66:
 912:Drivers/STM32F10x_StdPeriph_Driver/src/stm32f10x_flash.c ****   } 
 1213              		.loc 1 912 5 is_stmt 1 view .LVU319
 912:Drivers/STM32F10x_StdPeriph_Driver/src/stm32f10x_flash.c ****   } 
 1214              		.loc 1 912 10 is_stmt 0 view .LVU320
 1215 0028 2369     		ldr	r3, [r4, #16]
 912:Drivers/STM32F10x_StdPeriph_Driver/src/stm32f10x_flash.c ****   } 
 1216              		.loc 1 912 15 view .LVU321
 1217 002a 23F00103 		bic	r3, r3, #1
 1218 002e DB04     		lsls	r3, r3, #19
 1219 0030 DB0C     		lsrs	r3, r3, #19
 1220 0032 2361     		str	r3, [r4, #16]
 1221 0034 EDE7     		b	.L107
 1222              	.L111:
 1223 0036 00BF     		.align	2
 1224              	.L110:
 1225 0038 00200240 		.word	1073881088
ARM GAS  /tmp/cc3Mf3YA.s 			page 53


 1226              		.cfi_endproc
 1227              	.LFE77:
 1229              		.section	.text.FLASH_ProgramOptionByteData,"ax",%progbits
 1230              		.align	1
 1231              		.global	FLASH_ProgramOptionByteData
 1232              		.syntax unified
 1233              		.thumb
 1234              		.thumb_func
 1236              	FLASH_ProgramOptionByteData:
 1237              	.LVL67:
 1238              	.LFB78:
 930:Drivers/STM32F10x_StdPeriph_Driver/src/stm32f10x_flash.c ****   FLASH_Status status = FLASH_COMPLETE;
 1239              		.loc 1 930 1 is_stmt 1 view -0
 1240              		.cfi_startproc
 1241              		@ args = 0, pretend = 0, frame = 0
 1242              		@ frame_needed = 0, uses_anonymous_args = 0
 930:Drivers/STM32F10x_StdPeriph_Driver/src/stm32f10x_flash.c ****   FLASH_Status status = FLASH_COMPLETE;
 1243              		.loc 1 930 1 is_stmt 0 view .LVU323
 1244 0000 38B5     		push	{r3, r4, r5, lr}
 1245              	.LCFI9:
 1246              		.cfi_def_cfa_offset 16
 1247              		.cfi_offset 3, -16
 1248              		.cfi_offset 4, -12
 1249              		.cfi_offset 5, -8
 1250              		.cfi_offset 14, -4
 1251 0002 0446     		mov	r4, r0
 1252 0004 0D46     		mov	r5, r1
 931:Drivers/STM32F10x_StdPeriph_Driver/src/stm32f10x_flash.c ****   /* Check the parameters */
 1253              		.loc 1 931 3 is_stmt 1 view .LVU324
 1254              	.LVL68:
 933:Drivers/STM32F10x_StdPeriph_Driver/src/stm32f10x_flash.c ****   status = FLASH_WaitForLastOperation(ProgramTimeout);
 1255              		.loc 1 933 3 view .LVU325
 934:Drivers/STM32F10x_StdPeriph_Driver/src/stm32f10x_flash.c **** 
 1256              		.loc 1 934 3 view .LVU326
 934:Drivers/STM32F10x_StdPeriph_Driver/src/stm32f10x_flash.c **** 
 1257              		.loc 1 934 12 is_stmt 0 view .LVU327
 1258 0006 4FF40050 		mov	r0, #8192
 1259              	.LVL69:
 934:Drivers/STM32F10x_StdPeriph_Driver/src/stm32f10x_flash.c **** 
 1260              		.loc 1 934 12 view .LVU328
 1261 000a FFF7FEFF 		bl	FLASH_WaitForLastOperation
 1262              	.LVL70:
 936:Drivers/STM32F10x_StdPeriph_Driver/src/stm32f10x_flash.c ****   {
 1263              		.loc 1 936 3 is_stmt 1 view .LVU329
 936:Drivers/STM32F10x_StdPeriph_Driver/src/stm32f10x_flash.c ****   {
 1264              		.loc 1 936 5 is_stmt 0 view .LVU330
 1265 000e 0428     		cmp	r0, #4
 1266 0010 00D0     		beq	.L115
 1267              	.L113:
 954:Drivers/STM32F10x_StdPeriph_Driver/src/stm32f10x_flash.c **** }
 1268              		.loc 1 954 3 is_stmt 1 view .LVU331
 955:Drivers/STM32F10x_StdPeriph_Driver/src/stm32f10x_flash.c **** 
 1269              		.loc 1 955 1 is_stmt 0 view .LVU332
 1270 0012 38BD     		pop	{r3, r4, r5, pc}
 1271              	.LVL71:
 1272              	.L115:
 939:Drivers/STM32F10x_StdPeriph_Driver/src/stm32f10x_flash.c ****     FLASH->OPTKEYR = FLASH_KEY2;
ARM GAS  /tmp/cc3Mf3YA.s 			page 54


 1273              		.loc 1 939 5 is_stmt 1 view .LVU333
 939:Drivers/STM32F10x_StdPeriph_Driver/src/stm32f10x_flash.c ****     FLASH->OPTKEYR = FLASH_KEY2;
 1274              		.loc 1 939 20 is_stmt 0 view .LVU334
 1275 0014 0C4B     		ldr	r3, .L116
 1276 0016 0D4A     		ldr	r2, .L116+4
 1277 0018 9A60     		str	r2, [r3, #8]
 940:Drivers/STM32F10x_StdPeriph_Driver/src/stm32f10x_flash.c ****     /* Enables the Option Bytes Programming operation */
 1278              		.loc 1 940 5 is_stmt 1 view .LVU335
 940:Drivers/STM32F10x_StdPeriph_Driver/src/stm32f10x_flash.c ****     /* Enables the Option Bytes Programming operation */
 1279              		.loc 1 940 20 is_stmt 0 view .LVU336
 1280 001a 02F18832 		add	r2, r2, #-2004318072
 1281 001e 9A60     		str	r2, [r3, #8]
 942:Drivers/STM32F10x_StdPeriph_Driver/src/stm32f10x_flash.c ****     *(__IO uint16_t*)Address = Data;
 1282              		.loc 1 942 5 is_stmt 1 view .LVU337
 942:Drivers/STM32F10x_StdPeriph_Driver/src/stm32f10x_flash.c ****     *(__IO uint16_t*)Address = Data;
 1283              		.loc 1 942 10 is_stmt 0 view .LVU338
 1284 0020 1A69     		ldr	r2, [r3, #16]
 942:Drivers/STM32F10x_StdPeriph_Driver/src/stm32f10x_flash.c ****     *(__IO uint16_t*)Address = Data;
 1285              		.loc 1 942 15 view .LVU339
 1286 0022 42F01002 		orr	r2, r2, #16
 1287 0026 1A61     		str	r2, [r3, #16]
 943:Drivers/STM32F10x_StdPeriph_Driver/src/stm32f10x_flash.c ****     
 1288              		.loc 1 943 5 is_stmt 1 view .LVU340
 943:Drivers/STM32F10x_StdPeriph_Driver/src/stm32f10x_flash.c ****     
 1289              		.loc 1 943 30 is_stmt 0 view .LVU341
 1290 0028 2580     		strh	r5, [r4]	@ movhi
 946:Drivers/STM32F10x_StdPeriph_Driver/src/stm32f10x_flash.c ****     if(status != FLASH_TIMEOUT)
 1291              		.loc 1 946 5 is_stmt 1 view .LVU342
 946:Drivers/STM32F10x_StdPeriph_Driver/src/stm32f10x_flash.c ****     if(status != FLASH_TIMEOUT)
 1292              		.loc 1 946 14 is_stmt 0 view .LVU343
 1293 002a 4FF40050 		mov	r0, #8192
 1294              	.LVL72:
 946:Drivers/STM32F10x_StdPeriph_Driver/src/stm32f10x_flash.c ****     if(status != FLASH_TIMEOUT)
 1295              		.loc 1 946 14 view .LVU344
 1296 002e FFF7FEFF 		bl	FLASH_WaitForLastOperation
 1297              	.LVL73:
 947:Drivers/STM32F10x_StdPeriph_Driver/src/stm32f10x_flash.c ****     {
 1298              		.loc 1 947 5 is_stmt 1 view .LVU345
 947:Drivers/STM32F10x_StdPeriph_Driver/src/stm32f10x_flash.c ****     {
 1299              		.loc 1 947 7 is_stmt 0 view .LVU346
 1300 0032 0528     		cmp	r0, #5
 1301 0034 EDD0     		beq	.L113
 950:Drivers/STM32F10x_StdPeriph_Driver/src/stm32f10x_flash.c ****     }
 1302              		.loc 1 950 7 is_stmt 1 view .LVU347
 950:Drivers/STM32F10x_StdPeriph_Driver/src/stm32f10x_flash.c ****     }
 1303              		.loc 1 950 12 is_stmt 0 view .LVU348
 1304 0036 044A     		ldr	r2, .L116
 1305 0038 1369     		ldr	r3, [r2, #16]
 950:Drivers/STM32F10x_StdPeriph_Driver/src/stm32f10x_flash.c ****     }
 1306              		.loc 1 950 17 view .LVU349
 1307 003a 23F01003 		bic	r3, r3, #16
 1308 003e DB04     		lsls	r3, r3, #19
 1309 0040 DB0C     		lsrs	r3, r3, #19
 1310 0042 1361     		str	r3, [r2, #16]
 1311 0044 E5E7     		b	.L113
 1312              	.L117:
 1313 0046 00BF     		.align	2
ARM GAS  /tmp/cc3Mf3YA.s 			page 55


 1314              	.L116:
 1315 0048 00200240 		.word	1073881088
 1316 004c 23016745 		.word	1164378403
 1317              		.cfi_endproc
 1318              	.LFE78:
 1320              		.section	.text.FLASH_EnableWriteProtection,"ax",%progbits
 1321              		.align	1
 1322              		.global	FLASH_EnableWriteProtection
 1323              		.syntax unified
 1324              		.thumb
 1325              		.thumb_func
 1327              	FLASH_EnableWriteProtection:
 1328              	.LVL74:
 1329              	.LFB79:
 976:Drivers/STM32F10x_StdPeriph_Driver/src/stm32f10x_flash.c ****   uint16_t WRP0_Data = 0xFFFF, WRP1_Data = 0xFFFF, WRP2_Data = 0xFFFF, WRP3_Data = 0xFFFF;
 1330              		.loc 1 976 1 is_stmt 1 view -0
 1331              		.cfi_startproc
 1332              		@ args = 0, pretend = 0, frame = 0
 1333              		@ frame_needed = 0, uses_anonymous_args = 0
 976:Drivers/STM32F10x_StdPeriph_Driver/src/stm32f10x_flash.c ****   uint16_t WRP0_Data = 0xFFFF, WRP1_Data = 0xFFFF, WRP2_Data = 0xFFFF, WRP3_Data = 0xFFFF;
 1334              		.loc 1 976 1 is_stmt 0 view .LVU351
 1335 0000 F8B5     		push	{r3, r4, r5, r6, r7, lr}
 1336              	.LCFI10:
 1337              		.cfi_def_cfa_offset 24
 1338              		.cfi_offset 3, -24
 1339              		.cfi_offset 4, -20
 1340              		.cfi_offset 5, -16
 1341              		.cfi_offset 6, -12
 1342              		.cfi_offset 7, -8
 1343              		.cfi_offset 14, -4
 977:Drivers/STM32F10x_StdPeriph_Driver/src/stm32f10x_flash.c ****   
 1344              		.loc 1 977 3 is_stmt 1 view .LVU352
 1345              	.LVL75:
 979:Drivers/STM32F10x_StdPeriph_Driver/src/stm32f10x_flash.c ****   
 1346              		.loc 1 979 3 view .LVU353
 982:Drivers/STM32F10x_StdPeriph_Driver/src/stm32f10x_flash.c ****   
 1347              		.loc 1 982 3 view .LVU354
 984:Drivers/STM32F10x_StdPeriph_Driver/src/stm32f10x_flash.c ****   WRP0_Data = (uint16_t)(FLASH_Pages & WRP0_Mask);
 1348              		.loc 1 984 3 view .LVU355
 984:Drivers/STM32F10x_StdPeriph_Driver/src/stm32f10x_flash.c ****   WRP0_Data = (uint16_t)(FLASH_Pages & WRP0_Mask);
 1349              		.loc 1 984 15 is_stmt 0 view .LVU356
 1350 0002 C043     		mvns	r0, r0
 1351              	.LVL76:
 985:Drivers/STM32F10x_StdPeriph_Driver/src/stm32f10x_flash.c ****   WRP1_Data = (uint16_t)((FLASH_Pages & WRP1_Mask) >> 8);
 1352              		.loc 1 985 3 is_stmt 1 view .LVU357
 985:Drivers/STM32F10x_StdPeriph_Driver/src/stm32f10x_flash.c ****   WRP1_Data = (uint16_t)((FLASH_Pages & WRP1_Mask) >> 8);
 1353              		.loc 1 985 13 is_stmt 0 view .LVU358
 1354 0004 C3B2     		uxtb	r3, r0
 1355 0006 1C46     		mov	r4, r3
 1356              	.LVL77:
 986:Drivers/STM32F10x_StdPeriph_Driver/src/stm32f10x_flash.c ****   WRP2_Data = (uint16_t)((FLASH_Pages & WRP2_Mask) >> 16);
 1357              		.loc 1 986 3 is_stmt 1 view .LVU359
 986:Drivers/STM32F10x_StdPeriph_Driver/src/stm32f10x_flash.c ****   WRP2_Data = (uint16_t)((FLASH_Pages & WRP2_Mask) >> 16);
 1358              		.loc 1 986 13 is_stmt 0 view .LVU360
 1359 0008 C0F30723 		ubfx	r3, r0, #8, #8
 1360 000c 1D46     		mov	r5, r3
 1361              	.LVL78:
ARM GAS  /tmp/cc3Mf3YA.s 			page 56


 987:Drivers/STM32F10x_StdPeriph_Driver/src/stm32f10x_flash.c ****   WRP3_Data = (uint16_t)((FLASH_Pages & WRP3_Mask) >> 24);
 1362              		.loc 1 987 3 is_stmt 1 view .LVU361
 987:Drivers/STM32F10x_StdPeriph_Driver/src/stm32f10x_flash.c ****   WRP3_Data = (uint16_t)((FLASH_Pages & WRP3_Mask) >> 24);
 1363              		.loc 1 987 13 is_stmt 0 view .LVU362
 1364 000e C0F30743 		ubfx	r3, r0, #16, #8
 1365 0012 1F46     		mov	r7, r3
 1366              	.LVL79:
 988:Drivers/STM32F10x_StdPeriph_Driver/src/stm32f10x_flash.c ****   
 1367              		.loc 1 988 3 is_stmt 1 view .LVU363
 988:Drivers/STM32F10x_StdPeriph_Driver/src/stm32f10x_flash.c ****   
 1368              		.loc 1 988 13 is_stmt 0 view .LVU364
 1369 0014 030E     		lsrs	r3, r0, #24
 1370 0016 1E46     		mov	r6, r3
 1371              	.LVL80:
 991:Drivers/STM32F10x_StdPeriph_Driver/src/stm32f10x_flash.c ****   
 1372              		.loc 1 991 3 is_stmt 1 view .LVU365
 991:Drivers/STM32F10x_StdPeriph_Driver/src/stm32f10x_flash.c ****   
 1373              		.loc 1 991 12 is_stmt 0 view .LVU366
 1374 0018 4FF40050 		mov	r0, #8192
 1375              	.LVL81:
 991:Drivers/STM32F10x_StdPeriph_Driver/src/stm32f10x_flash.c ****   
 1376              		.loc 1 991 12 view .LVU367
 1377 001c FFF7FEFF 		bl	FLASH_WaitForLastOperation
 1378              	.LVL82:
 993:Drivers/STM32F10x_StdPeriph_Driver/src/stm32f10x_flash.c ****   {
 1379              		.loc 1 993 3 is_stmt 1 view .LVU368
 993:Drivers/STM32F10x_StdPeriph_Driver/src/stm32f10x_flash.c ****   {
 1380              		.loc 1 993 5 is_stmt 0 view .LVU369
 1381 0020 0428     		cmp	r0, #4
 1382 0022 00D0     		beq	.L125
 1383              	.L119:
1036:Drivers/STM32F10x_StdPeriph_Driver/src/stm32f10x_flash.c **** }
 1384              		.loc 1 1036 3 is_stmt 1 view .LVU370
1037:Drivers/STM32F10x_StdPeriph_Driver/src/stm32f10x_flash.c **** 
 1385              		.loc 1 1037 1 is_stmt 0 view .LVU371
 1386 0024 F8BD     		pop	{r3, r4, r5, r6, r7, pc}
 1387              	.LVL83:
 1388              	.L125:
 996:Drivers/STM32F10x_StdPeriph_Driver/src/stm32f10x_flash.c ****     FLASH->OPTKEYR = FLASH_KEY2;
 1389              		.loc 1 996 5 is_stmt 1 view .LVU372
 996:Drivers/STM32F10x_StdPeriph_Driver/src/stm32f10x_flash.c ****     FLASH->OPTKEYR = FLASH_KEY2;
 1390              		.loc 1 996 20 is_stmt 0 view .LVU373
 1391 0026 1F4B     		ldr	r3, .L130
 1392 0028 1F4A     		ldr	r2, .L130+4
 1393 002a 9A60     		str	r2, [r3, #8]
 997:Drivers/STM32F10x_StdPeriph_Driver/src/stm32f10x_flash.c ****     FLASH->CR |= CR_OPTPG_Set;
 1394              		.loc 1 997 5 is_stmt 1 view .LVU374
 997:Drivers/STM32F10x_StdPeriph_Driver/src/stm32f10x_flash.c ****     FLASH->CR |= CR_OPTPG_Set;
 1395              		.loc 1 997 20 is_stmt 0 view .LVU375
 1396 002c 02F18832 		add	r2, r2, #-2004318072
 1397 0030 9A60     		str	r2, [r3, #8]
 998:Drivers/STM32F10x_StdPeriph_Driver/src/stm32f10x_flash.c ****     if(WRP0_Data != 0xFF)
 1398              		.loc 1 998 5 is_stmt 1 view .LVU376
 998:Drivers/STM32F10x_StdPeriph_Driver/src/stm32f10x_flash.c ****     if(WRP0_Data != 0xFF)
 1399              		.loc 1 998 10 is_stmt 0 view .LVU377
 1400 0032 1A69     		ldr	r2, [r3, #16]
 998:Drivers/STM32F10x_StdPeriph_Driver/src/stm32f10x_flash.c ****     if(WRP0_Data != 0xFF)
ARM GAS  /tmp/cc3Mf3YA.s 			page 57


 1401              		.loc 1 998 15 view .LVU378
 1402 0034 42F01002 		orr	r2, r2, #16
 1403 0038 1A61     		str	r2, [r3, #16]
 999:Drivers/STM32F10x_StdPeriph_Driver/src/stm32f10x_flash.c ****     {
 1404              		.loc 1 999 5 is_stmt 1 view .LVU379
 999:Drivers/STM32F10x_StdPeriph_Driver/src/stm32f10x_flash.c ****     {
 1405              		.loc 1 999 7 is_stmt 0 view .LVU380
 1406 003a FF2C     		cmp	r4, #255
 1407 003c 0DD1     		bne	.L126
 1408              	.LVL84:
 1409              	.L120:
1006:Drivers/STM32F10x_StdPeriph_Driver/src/stm32f10x_flash.c ****     {
 1410              		.loc 1 1006 5 is_stmt 1 view .LVU381
1006:Drivers/STM32F10x_StdPeriph_Driver/src/stm32f10x_flash.c ****     {
 1411              		.loc 1 1006 7 is_stmt 0 view .LVU382
 1412 003e 0428     		cmp	r0, #4
 1413 0040 12D0     		beq	.L127
 1414              	.LVL85:
 1415              	.L121:
1021:Drivers/STM32F10x_StdPeriph_Driver/src/stm32f10x_flash.c ****     {
 1416              		.loc 1 1021 5 is_stmt 1 view .LVU383
1021:Drivers/STM32F10x_StdPeriph_Driver/src/stm32f10x_flash.c ****     {
 1417              		.loc 1 1021 7 is_stmt 0 view .LVU384
 1418 0042 0428     		cmp	r0, #4
 1419 0044 24D0     		beq	.L128
 1420              	.LVL86:
 1421              	.L123:
1029:Drivers/STM32F10x_StdPeriph_Driver/src/stm32f10x_flash.c ****     {
 1422              		.loc 1 1029 5 is_stmt 1 view .LVU385
1029:Drivers/STM32F10x_StdPeriph_Driver/src/stm32f10x_flash.c ****     {
 1423              		.loc 1 1029 7 is_stmt 0 view .LVU386
 1424 0046 0528     		cmp	r0, #5
 1425 0048 ECD0     		beq	.L119
1032:Drivers/STM32F10x_StdPeriph_Driver/src/stm32f10x_flash.c ****     }
 1426              		.loc 1 1032 7 is_stmt 1 view .LVU387
1032:Drivers/STM32F10x_StdPeriph_Driver/src/stm32f10x_flash.c ****     }
 1427              		.loc 1 1032 12 is_stmt 0 view .LVU388
 1428 004a 164A     		ldr	r2, .L130
 1429 004c 1369     		ldr	r3, [r2, #16]
1032:Drivers/STM32F10x_StdPeriph_Driver/src/stm32f10x_flash.c ****     }
 1430              		.loc 1 1032 17 view .LVU389
 1431 004e 23F01003 		bic	r3, r3, #16
 1432 0052 DB04     		lsls	r3, r3, #19
 1433 0054 DB0C     		lsrs	r3, r3, #19
 1434 0056 1361     		str	r3, [r2, #16]
 1435 0058 E4E7     		b	.L119
 1436              	.L126:
1001:Drivers/STM32F10x_StdPeriph_Driver/src/stm32f10x_flash.c ****       
 1437              		.loc 1 1001 7 is_stmt 1 view .LVU390
1001:Drivers/STM32F10x_StdPeriph_Driver/src/stm32f10x_flash.c ****       
 1438              		.loc 1 1001 16 is_stmt 0 view .LVU391
 1439 005a 144B     		ldr	r3, .L130+8
 1440 005c 1C81     		strh	r4, [r3, #8]	@ movhi
1004:Drivers/STM32F10x_StdPeriph_Driver/src/stm32f10x_flash.c ****     }
 1441              		.loc 1 1004 7 is_stmt 1 view .LVU392
1004:Drivers/STM32F10x_StdPeriph_Driver/src/stm32f10x_flash.c ****     }
 1442              		.loc 1 1004 16 is_stmt 0 view .LVU393
ARM GAS  /tmp/cc3Mf3YA.s 			page 58


 1443 005e 4FF40050 		mov	r0, #8192
 1444              	.LVL87:
1004:Drivers/STM32F10x_StdPeriph_Driver/src/stm32f10x_flash.c ****     }
 1445              		.loc 1 1004 16 view .LVU394
 1446 0062 FFF7FEFF 		bl	FLASH_WaitForLastOperation
 1447              	.LVL88:
 1448 0066 EAE7     		b	.L120
 1449              	.LVL89:
 1450              	.L127:
1006:Drivers/STM32F10x_StdPeriph_Driver/src/stm32f10x_flash.c ****     {
 1451              		.loc 1 1006 35 discriminator 1 view .LVU395
 1452 0068 FF2D     		cmp	r5, #255
 1453 006a 0AD1     		bne	.L129
 1454              	.LVL90:
 1455              	.L122:
1013:Drivers/STM32F10x_StdPeriph_Driver/src/stm32f10x_flash.c ****     {
 1456              		.loc 1 1013 5 is_stmt 1 view .LVU396
1013:Drivers/STM32F10x_StdPeriph_Driver/src/stm32f10x_flash.c ****     {
 1457              		.loc 1 1013 7 is_stmt 0 view .LVU397
 1458 006c 0428     		cmp	r0, #4
 1459 006e EAD1     		bne	.L123
1013:Drivers/STM32F10x_StdPeriph_Driver/src/stm32f10x_flash.c ****     {
 1460              		.loc 1 1013 35 discriminator 1 view .LVU398
 1461 0070 FF2F     		cmp	r7, #255
 1462 0072 E6D0     		beq	.L121
1015:Drivers/STM32F10x_StdPeriph_Driver/src/stm32f10x_flash.c ****       
 1463              		.loc 1 1015 7 is_stmt 1 view .LVU399
1015:Drivers/STM32F10x_StdPeriph_Driver/src/stm32f10x_flash.c ****       
 1464              		.loc 1 1015 16 is_stmt 0 view .LVU400
 1465 0074 0D4B     		ldr	r3, .L130+8
 1466 0076 9F81     		strh	r7, [r3, #12]	@ movhi
1018:Drivers/STM32F10x_StdPeriph_Driver/src/stm32f10x_flash.c ****     }
 1467              		.loc 1 1018 7 is_stmt 1 view .LVU401
1018:Drivers/STM32F10x_StdPeriph_Driver/src/stm32f10x_flash.c ****     }
 1468              		.loc 1 1018 16 is_stmt 0 view .LVU402
 1469 0078 4FF40050 		mov	r0, #8192
 1470              	.LVL91:
1018:Drivers/STM32F10x_StdPeriph_Driver/src/stm32f10x_flash.c ****     }
 1471              		.loc 1 1018 16 view .LVU403
 1472 007c FFF7FEFF 		bl	FLASH_WaitForLastOperation
 1473              	.LVL92:
 1474 0080 DFE7     		b	.L121
 1475              	.LVL93:
 1476              	.L129:
1008:Drivers/STM32F10x_StdPeriph_Driver/src/stm32f10x_flash.c ****       
 1477              		.loc 1 1008 7 is_stmt 1 view .LVU404
1008:Drivers/STM32F10x_StdPeriph_Driver/src/stm32f10x_flash.c ****       
 1478              		.loc 1 1008 16 is_stmt 0 view .LVU405
 1479 0082 0A4B     		ldr	r3, .L130+8
 1480 0084 5D81     		strh	r5, [r3, #10]	@ movhi
1011:Drivers/STM32F10x_StdPeriph_Driver/src/stm32f10x_flash.c ****     }
 1481              		.loc 1 1011 7 is_stmt 1 view .LVU406
1011:Drivers/STM32F10x_StdPeriph_Driver/src/stm32f10x_flash.c ****     }
 1482              		.loc 1 1011 16 is_stmt 0 view .LVU407
 1483 0086 4FF40050 		mov	r0, #8192
 1484              	.LVL94:
1011:Drivers/STM32F10x_StdPeriph_Driver/src/stm32f10x_flash.c ****     }
ARM GAS  /tmp/cc3Mf3YA.s 			page 59


 1485              		.loc 1 1011 16 view .LVU408
 1486 008a FFF7FEFF 		bl	FLASH_WaitForLastOperation
 1487              	.LVL95:
 1488 008e EDE7     		b	.L122
 1489              	.LVL96:
 1490              	.L128:
1021:Drivers/STM32F10x_StdPeriph_Driver/src/stm32f10x_flash.c ****     {
 1491              		.loc 1 1021 34 discriminator 1 view .LVU409
 1492 0090 FF2E     		cmp	r6, #255
 1493 0092 D8D0     		beq	.L123
1023:Drivers/STM32F10x_StdPeriph_Driver/src/stm32f10x_flash.c ****      
 1494              		.loc 1 1023 7 is_stmt 1 view .LVU410
1023:Drivers/STM32F10x_StdPeriph_Driver/src/stm32f10x_flash.c ****      
 1495              		.loc 1 1023 16 is_stmt 0 view .LVU411
 1496 0094 054B     		ldr	r3, .L130+8
 1497 0096 DE81     		strh	r6, [r3, #14]	@ movhi
1026:Drivers/STM32F10x_StdPeriph_Driver/src/stm32f10x_flash.c ****     }
 1498              		.loc 1 1026 7 is_stmt 1 view .LVU412
1026:Drivers/STM32F10x_StdPeriph_Driver/src/stm32f10x_flash.c ****     }
 1499              		.loc 1 1026 16 is_stmt 0 view .LVU413
 1500 0098 4FF40050 		mov	r0, #8192
 1501              	.LVL97:
1026:Drivers/STM32F10x_StdPeriph_Driver/src/stm32f10x_flash.c ****     }
 1502              		.loc 1 1026 16 view .LVU414
 1503 009c FFF7FEFF 		bl	FLASH_WaitForLastOperation
 1504              	.LVL98:
 1505 00a0 D1E7     		b	.L123
 1506              	.L131:
 1507 00a2 00BF     		.align	2
 1508              	.L130:
 1509 00a4 00200240 		.word	1073881088
 1510 00a8 23016745 		.word	1164378403
 1511 00ac 00F8FF1F 		.word	536868864
 1512              		.cfi_endproc
 1513              	.LFE79:
 1515              		.section	.text.FLASH_ReadOutProtection,"ax",%progbits
 1516              		.align	1
 1517              		.global	FLASH_ReadOutProtection
 1518              		.syntax unified
 1519              		.thumb
 1520              		.thumb_func
 1522              	FLASH_ReadOutProtection:
 1523              	.LVL99:
 1524              	.LFB80:
1050:Drivers/STM32F10x_StdPeriph_Driver/src/stm32f10x_flash.c ****   FLASH_Status status = FLASH_COMPLETE;
 1525              		.loc 1 1050 1 is_stmt 1 view -0
 1526              		.cfi_startproc
 1527              		@ args = 0, pretend = 0, frame = 0
 1528              		@ frame_needed = 0, uses_anonymous_args = 0
1050:Drivers/STM32F10x_StdPeriph_Driver/src/stm32f10x_flash.c ****   FLASH_Status status = FLASH_COMPLETE;
 1529              		.loc 1 1050 1 is_stmt 0 view .LVU416
 1530 0000 10B5     		push	{r4, lr}
 1531              	.LCFI11:
 1532              		.cfi_def_cfa_offset 8
 1533              		.cfi_offset 4, -8
 1534              		.cfi_offset 14, -4
 1535 0002 0446     		mov	r4, r0
ARM GAS  /tmp/cc3Mf3YA.s 			page 60


1051:Drivers/STM32F10x_StdPeriph_Driver/src/stm32f10x_flash.c ****   /* Check the parameters */
 1536              		.loc 1 1051 3 is_stmt 1 view .LVU417
 1537              	.LVL100:
1053:Drivers/STM32F10x_StdPeriph_Driver/src/stm32f10x_flash.c ****   status = FLASH_WaitForLastOperation(EraseTimeout);
 1538              		.loc 1 1053 3 view .LVU418
1054:Drivers/STM32F10x_StdPeriph_Driver/src/stm32f10x_flash.c ****   if(status == FLASH_COMPLETE)
 1539              		.loc 1 1054 3 view .LVU419
1054:Drivers/STM32F10x_StdPeriph_Driver/src/stm32f10x_flash.c ****   if(status == FLASH_COMPLETE)
 1540              		.loc 1 1054 12 is_stmt 0 view .LVU420
 1541 0004 4FF43020 		mov	r0, #720896
 1542              	.LVL101:
1054:Drivers/STM32F10x_StdPeriph_Driver/src/stm32f10x_flash.c ****   if(status == FLASH_COMPLETE)
 1543              		.loc 1 1054 12 view .LVU421
 1544 0008 FFF7FEFF 		bl	FLASH_WaitForLastOperation
 1545              	.LVL102:
1055:Drivers/STM32F10x_StdPeriph_Driver/src/stm32f10x_flash.c ****   {
 1546              		.loc 1 1055 3 is_stmt 1 view .LVU422
1055:Drivers/STM32F10x_StdPeriph_Driver/src/stm32f10x_flash.c ****   {
 1547              		.loc 1 1055 5 is_stmt 0 view .LVU423
 1548 000c 0428     		cmp	r0, #4
 1549 000e 00D0     		beq	.L138
 1550              	.L133:
1097:Drivers/STM32F10x_StdPeriph_Driver/src/stm32f10x_flash.c **** }
 1551              		.loc 1 1097 3 is_stmt 1 view .LVU424
