ARM GAS  /tmp/ccJ7FcFp.s 			page 1


   1              		.cpu cortex-m3
   2              		.arch armv7-m
   3              		.fpu softvfp
   4              		.eabi_attribute 20, 1
   5              		.eabi_attribute 21, 1
   6              		.eabi_attribute 23, 3
   7              		.eabi_attribute 24, 1
   8              		.eabi_attribute 25, 1
   9              		.eabi_attribute 26, 1
  10              		.eabi_attribute 30, 1
  11              		.eabi_attribute 34, 1
  12              		.eabi_attribute 18, 4
  13              		.file	"stm32f10x_adc.c"
  14              		.text
  15              	.Ltext0:
  16              		.cfi_sections	.debug_frame
  17              		.file 1 "Drivers/STM32F10x_StdPeriph_Driver/src/stm32f10x_adc.c"
  18              		.section	.text.ADC_DeInit,"ax",%progbits
  19              		.align	1
  20              		.global	ADC_DeInit
  21              		.syntax unified
  22              		.thumb
  23              		.thumb_func
  25              	ADC_DeInit:
  26              	.LVL0:
  27              	.LFB65:
   1:Drivers/STM32F10x_StdPeriph_Driver/src/stm32f10x_adc.c **** /**
   2:Drivers/STM32F10x_StdPeriph_Driver/src/stm32f10x_adc.c ****   ******************************************************************************
   3:Drivers/STM32F10x_StdPeriph_Driver/src/stm32f10x_adc.c ****   * @file    stm32f10x_adc.c
   4:Drivers/STM32F10x_StdPeriph_Driver/src/stm32f10x_adc.c ****   * @author  MCD Application Team
   5:Drivers/STM32F10x_StdPeriph_Driver/src/stm32f10x_adc.c ****   * @version V3.5.0
   6:Drivers/STM32F10x_StdPeriph_Driver/src/stm32f10x_adc.c ****   * @date    11-March-2011
   7:Drivers/STM32F10x_StdPeriph_Driver/src/stm32f10x_adc.c ****   * @brief   This file provides all the ADC firmware functions.
   8:Drivers/STM32F10x_StdPeriph_Driver/src/stm32f10x_adc.c ****   ******************************************************************************
   9:Drivers/STM32F10x_StdPeriph_Driver/src/stm32f10x_adc.c ****   * @attention
  10:Drivers/STM32F10x_StdPeriph_Driver/src/stm32f10x_adc.c ****   *
  11:Drivers/STM32F10x_StdPeriph_Driver/src/stm32f10x_adc.c ****   * THE PRESENT FIRMWARE WHICH IS FOR GUIDANCE ONLY AIMS AT PROVIDING CUSTOMERS
  12:Drivers/STM32F10x_StdPeriph_Driver/src/stm32f10x_adc.c ****   * WITH CODING INFORMATION REGARDING THEIR PRODUCTS IN ORDER FOR THEM TO SAVE
  13:Drivers/STM32F10x_StdPeriph_Driver/src/stm32f10x_adc.c ****   * TIME. AS A RESULT, STMICROELECTRONICS SHALL NOT BE HELD LIABLE FOR ANY
  14:Drivers/STM32F10x_StdPeriph_Driver/src/stm32f10x_adc.c ****   * DIRECT, INDIRECT OR CONSEQUENTIAL DAMAGES WITH RESPECT TO ANY CLAIMS ARISING
  15:Drivers/STM32F10x_StdPeriph_Driver/src/stm32f10x_adc.c ****   * FROM THE CONTENT OF SUCH FIRMWARE AND/OR THE USE MADE BY CUSTOMERS OF THE
  16:Drivers/STM32F10x_StdPeriph_Driver/src/stm32f10x_adc.c ****   * CODING INFORMATION CONTAINED HEREIN IN CONNECTION WITH THEIR PRODUCTS.
  17:Drivers/STM32F10x_StdPeriph_Driver/src/stm32f10x_adc.c ****   *
  18:Drivers/STM32F10x_StdPeriph_Driver/src/stm32f10x_adc.c ****   * <h2><center>&copy; COPYRIGHT 2011 STMicroelectronics</center></h2>
  19:Drivers/STM32F10x_StdPeriph_Driver/src/stm32f10x_adc.c ****   ******************************************************************************
  20:Drivers/STM32F10x_StdPeriph_Driver/src/stm32f10x_adc.c ****   */
  21:Drivers/STM32F10x_StdPeriph_Driver/src/stm32f10x_adc.c **** 
  22:Drivers/STM32F10x_StdPeriph_Driver/src/stm32f10x_adc.c **** /* Includes ------------------------------------------------------------------*/
  23:Drivers/STM32F10x_StdPeriph_Driver/src/stm32f10x_adc.c **** #include "stm32f10x_adc.h"
  24:Drivers/STM32F10x_StdPeriph_Driver/src/stm32f10x_adc.c **** #include "stm32f10x_rcc.h"
  25:Drivers/STM32F10x_StdPeriph_Driver/src/stm32f10x_adc.c **** 
  26:Drivers/STM32F10x_StdPeriph_Driver/src/stm32f10x_adc.c **** /** @addtogroup STM32F10x_StdPeriph_Driver
  27:Drivers/STM32F10x_StdPeriph_Driver/src/stm32f10x_adc.c ****   * @{
  28:Drivers/STM32F10x_StdPeriph_Driver/src/stm32f10x_adc.c ****   */
  29:Drivers/STM32F10x_StdPeriph_Driver/src/stm32f10x_adc.c **** 
  30:Drivers/STM32F10x_StdPeriph_Driver/src/stm32f10x_adc.c **** /** @defgroup ADC 
  31:Drivers/STM32F10x_StdPeriph_Driver/src/stm32f10x_adc.c ****   * @brief ADC driver modules
ARM GAS  /tmp/ccJ7FcFp.s 			page 2


  32:Drivers/STM32F10x_StdPeriph_Driver/src/stm32f10x_adc.c ****   * @{
  33:Drivers/STM32F10x_StdPeriph_Driver/src/stm32f10x_adc.c ****   */
  34:Drivers/STM32F10x_StdPeriph_Driver/src/stm32f10x_adc.c **** 
  35:Drivers/STM32F10x_StdPeriph_Driver/src/stm32f10x_adc.c **** /** @defgroup ADC_Private_TypesDefinitions
  36:Drivers/STM32F10x_StdPeriph_Driver/src/stm32f10x_adc.c ****   * @{
  37:Drivers/STM32F10x_StdPeriph_Driver/src/stm32f10x_adc.c ****   */
  38:Drivers/STM32F10x_StdPeriph_Driver/src/stm32f10x_adc.c **** 
  39:Drivers/STM32F10x_StdPeriph_Driver/src/stm32f10x_adc.c **** /**
  40:Drivers/STM32F10x_StdPeriph_Driver/src/stm32f10x_adc.c ****   * @}
  41:Drivers/STM32F10x_StdPeriph_Driver/src/stm32f10x_adc.c ****   */
  42:Drivers/STM32F10x_StdPeriph_Driver/src/stm32f10x_adc.c **** 
  43:Drivers/STM32F10x_StdPeriph_Driver/src/stm32f10x_adc.c **** /** @defgroup ADC_Private_Defines
  44:Drivers/STM32F10x_StdPeriph_Driver/src/stm32f10x_adc.c ****   * @{
  45:Drivers/STM32F10x_StdPeriph_Driver/src/stm32f10x_adc.c ****   */
  46:Drivers/STM32F10x_StdPeriph_Driver/src/stm32f10x_adc.c **** 
  47:Drivers/STM32F10x_StdPeriph_Driver/src/stm32f10x_adc.c **** /* ADC DISCNUM mask */
  48:Drivers/STM32F10x_StdPeriph_Driver/src/stm32f10x_adc.c **** #define CR1_DISCNUM_Reset           ((uint32_t)0xFFFF1FFF)
  49:Drivers/STM32F10x_StdPeriph_Driver/src/stm32f10x_adc.c **** 
  50:Drivers/STM32F10x_StdPeriph_Driver/src/stm32f10x_adc.c **** /* ADC DISCEN mask */
  51:Drivers/STM32F10x_StdPeriph_Driver/src/stm32f10x_adc.c **** #define CR1_DISCEN_Set              ((uint32_t)0x00000800)
  52:Drivers/STM32F10x_StdPeriph_Driver/src/stm32f10x_adc.c **** #define CR1_DISCEN_Reset            ((uint32_t)0xFFFFF7FF)
  53:Drivers/STM32F10x_StdPeriph_Driver/src/stm32f10x_adc.c **** 
  54:Drivers/STM32F10x_StdPeriph_Driver/src/stm32f10x_adc.c **** /* ADC JAUTO mask */
  55:Drivers/STM32F10x_StdPeriph_Driver/src/stm32f10x_adc.c **** #define CR1_JAUTO_Set               ((uint32_t)0x00000400)
  56:Drivers/STM32F10x_StdPeriph_Driver/src/stm32f10x_adc.c **** #define CR1_JAUTO_Reset             ((uint32_t)0xFFFFFBFF)
  57:Drivers/STM32F10x_StdPeriph_Driver/src/stm32f10x_adc.c **** 
  58:Drivers/STM32F10x_StdPeriph_Driver/src/stm32f10x_adc.c **** /* ADC JDISCEN mask */
  59:Drivers/STM32F10x_StdPeriph_Driver/src/stm32f10x_adc.c **** #define CR1_JDISCEN_Set             ((uint32_t)0x00001000)
  60:Drivers/STM32F10x_StdPeriph_Driver/src/stm32f10x_adc.c **** #define CR1_JDISCEN_Reset           ((uint32_t)0xFFFFEFFF)
  61:Drivers/STM32F10x_StdPeriph_Driver/src/stm32f10x_adc.c **** 
  62:Drivers/STM32F10x_StdPeriph_Driver/src/stm32f10x_adc.c **** /* ADC AWDCH mask */
  63:Drivers/STM32F10x_StdPeriph_Driver/src/stm32f10x_adc.c **** #define CR1_AWDCH_Reset             ((uint32_t)0xFFFFFFE0)
  64:Drivers/STM32F10x_StdPeriph_Driver/src/stm32f10x_adc.c **** 
  65:Drivers/STM32F10x_StdPeriph_Driver/src/stm32f10x_adc.c **** /* ADC Analog watchdog enable mode mask */
  66:Drivers/STM32F10x_StdPeriph_Driver/src/stm32f10x_adc.c **** #define CR1_AWDMode_Reset           ((uint32_t)0xFF3FFDFF)
  67:Drivers/STM32F10x_StdPeriph_Driver/src/stm32f10x_adc.c **** 
  68:Drivers/STM32F10x_StdPeriph_Driver/src/stm32f10x_adc.c **** /* CR1 register Mask */
  69:Drivers/STM32F10x_StdPeriph_Driver/src/stm32f10x_adc.c **** #define CR1_CLEAR_Mask              ((uint32_t)0xFFF0FEFF)
  70:Drivers/STM32F10x_StdPeriph_Driver/src/stm32f10x_adc.c **** 
  71:Drivers/STM32F10x_StdPeriph_Driver/src/stm32f10x_adc.c **** /* ADC ADON mask */
  72:Drivers/STM32F10x_StdPeriph_Driver/src/stm32f10x_adc.c **** #define CR2_ADON_Set                ((uint32_t)0x00000001)
  73:Drivers/STM32F10x_StdPeriph_Driver/src/stm32f10x_adc.c **** #define CR2_ADON_Reset              ((uint32_t)0xFFFFFFFE)
  74:Drivers/STM32F10x_StdPeriph_Driver/src/stm32f10x_adc.c **** 
  75:Drivers/STM32F10x_StdPeriph_Driver/src/stm32f10x_adc.c **** /* ADC DMA mask */
  76:Drivers/STM32F10x_StdPeriph_Driver/src/stm32f10x_adc.c **** #define CR2_DMA_Set                 ((uint32_t)0x00000100)
  77:Drivers/STM32F10x_StdPeriph_Driver/src/stm32f10x_adc.c **** #define CR2_DMA_Reset               ((uint32_t)0xFFFFFEFF)
  78:Drivers/STM32F10x_StdPeriph_Driver/src/stm32f10x_adc.c **** 
  79:Drivers/STM32F10x_StdPeriph_Driver/src/stm32f10x_adc.c **** /* ADC RSTCAL mask */
  80:Drivers/STM32F10x_StdPeriph_Driver/src/stm32f10x_adc.c **** #define CR2_RSTCAL_Set              ((uint32_t)0x00000008)
  81:Drivers/STM32F10x_StdPeriph_Driver/src/stm32f10x_adc.c **** 
  82:Drivers/STM32F10x_StdPeriph_Driver/src/stm32f10x_adc.c **** /* ADC CAL mask */
  83:Drivers/STM32F10x_StdPeriph_Driver/src/stm32f10x_adc.c **** #define CR2_CAL_Set                 ((uint32_t)0x00000004)
  84:Drivers/STM32F10x_StdPeriph_Driver/src/stm32f10x_adc.c **** 
  85:Drivers/STM32F10x_StdPeriph_Driver/src/stm32f10x_adc.c **** /* ADC SWSTART mask */
  86:Drivers/STM32F10x_StdPeriph_Driver/src/stm32f10x_adc.c **** #define CR2_SWSTART_Set             ((uint32_t)0x00400000)
  87:Drivers/STM32F10x_StdPeriph_Driver/src/stm32f10x_adc.c **** 
  88:Drivers/STM32F10x_StdPeriph_Driver/src/stm32f10x_adc.c **** /* ADC EXTTRIG mask */
ARM GAS  /tmp/ccJ7FcFp.s 			page 3


  89:Drivers/STM32F10x_StdPeriph_Driver/src/stm32f10x_adc.c **** #define CR2_EXTTRIG_Set             ((uint32_t)0x00100000)
  90:Drivers/STM32F10x_StdPeriph_Driver/src/stm32f10x_adc.c **** #define CR2_EXTTRIG_Reset           ((uint32_t)0xFFEFFFFF)
  91:Drivers/STM32F10x_StdPeriph_Driver/src/stm32f10x_adc.c **** 
  92:Drivers/STM32F10x_StdPeriph_Driver/src/stm32f10x_adc.c **** /* ADC Software start mask */
  93:Drivers/STM32F10x_StdPeriph_Driver/src/stm32f10x_adc.c **** #define CR2_EXTTRIG_SWSTART_Set     ((uint32_t)0x00500000)
  94:Drivers/STM32F10x_StdPeriph_Driver/src/stm32f10x_adc.c **** #define CR2_EXTTRIG_SWSTART_Reset   ((uint32_t)0xFFAFFFFF)
  95:Drivers/STM32F10x_StdPeriph_Driver/src/stm32f10x_adc.c **** 
  96:Drivers/STM32F10x_StdPeriph_Driver/src/stm32f10x_adc.c **** /* ADC JEXTSEL mask */
  97:Drivers/STM32F10x_StdPeriph_Driver/src/stm32f10x_adc.c **** #define CR2_JEXTSEL_Reset           ((uint32_t)0xFFFF8FFF)
  98:Drivers/STM32F10x_StdPeriph_Driver/src/stm32f10x_adc.c **** 
  99:Drivers/STM32F10x_StdPeriph_Driver/src/stm32f10x_adc.c **** /* ADC JEXTTRIG mask */
 100:Drivers/STM32F10x_StdPeriph_Driver/src/stm32f10x_adc.c **** #define CR2_JEXTTRIG_Set            ((uint32_t)0x00008000)
 101:Drivers/STM32F10x_StdPeriph_Driver/src/stm32f10x_adc.c **** #define CR2_JEXTTRIG_Reset          ((uint32_t)0xFFFF7FFF)
 102:Drivers/STM32F10x_StdPeriph_Driver/src/stm32f10x_adc.c **** 
 103:Drivers/STM32F10x_StdPeriph_Driver/src/stm32f10x_adc.c **** /* ADC JSWSTART mask */
 104:Drivers/STM32F10x_StdPeriph_Driver/src/stm32f10x_adc.c **** #define CR2_JSWSTART_Set            ((uint32_t)0x00200000)
 105:Drivers/STM32F10x_StdPeriph_Driver/src/stm32f10x_adc.c **** 
 106:Drivers/STM32F10x_StdPeriph_Driver/src/stm32f10x_adc.c **** /* ADC injected software start mask */
 107:Drivers/STM32F10x_StdPeriph_Driver/src/stm32f10x_adc.c **** #define CR2_JEXTTRIG_JSWSTART_Set   ((uint32_t)0x00208000)
 108:Drivers/STM32F10x_StdPeriph_Driver/src/stm32f10x_adc.c **** #define CR2_JEXTTRIG_JSWSTART_Reset ((uint32_t)0xFFDF7FFF)
 109:Drivers/STM32F10x_StdPeriph_Driver/src/stm32f10x_adc.c **** 
 110:Drivers/STM32F10x_StdPeriph_Driver/src/stm32f10x_adc.c **** /* ADC TSPD mask */
 111:Drivers/STM32F10x_StdPeriph_Driver/src/stm32f10x_adc.c **** #define CR2_TSVREFE_Set             ((uint32_t)0x00800000)
 112:Drivers/STM32F10x_StdPeriph_Driver/src/stm32f10x_adc.c **** #define CR2_TSVREFE_Reset           ((uint32_t)0xFF7FFFFF)
 113:Drivers/STM32F10x_StdPeriph_Driver/src/stm32f10x_adc.c **** 
 114:Drivers/STM32F10x_StdPeriph_Driver/src/stm32f10x_adc.c **** /* CR2 register Mask */
 115:Drivers/STM32F10x_StdPeriph_Driver/src/stm32f10x_adc.c **** #define CR2_CLEAR_Mask              ((uint32_t)0xFFF1F7FD)
 116:Drivers/STM32F10x_StdPeriph_Driver/src/stm32f10x_adc.c **** 
 117:Drivers/STM32F10x_StdPeriph_Driver/src/stm32f10x_adc.c **** /* ADC SQx mask */
 118:Drivers/STM32F10x_StdPeriph_Driver/src/stm32f10x_adc.c **** #define SQR3_SQ_Set                 ((uint32_t)0x0000001F)
 119:Drivers/STM32F10x_StdPeriph_Driver/src/stm32f10x_adc.c **** #define SQR2_SQ_Set                 ((uint32_t)0x0000001F)
 120:Drivers/STM32F10x_StdPeriph_Driver/src/stm32f10x_adc.c **** #define SQR1_SQ_Set                 ((uint32_t)0x0000001F)
 121:Drivers/STM32F10x_StdPeriph_Driver/src/stm32f10x_adc.c **** 
 122:Drivers/STM32F10x_StdPeriph_Driver/src/stm32f10x_adc.c **** /* SQR1 register Mask */
 123:Drivers/STM32F10x_StdPeriph_Driver/src/stm32f10x_adc.c **** #define SQR1_CLEAR_Mask             ((uint32_t)0xFF0FFFFF)
 124:Drivers/STM32F10x_StdPeriph_Driver/src/stm32f10x_adc.c **** 
 125:Drivers/STM32F10x_StdPeriph_Driver/src/stm32f10x_adc.c **** /* ADC JSQx mask */
 126:Drivers/STM32F10x_StdPeriph_Driver/src/stm32f10x_adc.c **** #define JSQR_JSQ_Set                ((uint32_t)0x0000001F)
 127:Drivers/STM32F10x_StdPeriph_Driver/src/stm32f10x_adc.c **** 
 128:Drivers/STM32F10x_StdPeriph_Driver/src/stm32f10x_adc.c **** /* ADC JL mask */
 129:Drivers/STM32F10x_StdPeriph_Driver/src/stm32f10x_adc.c **** #define JSQR_JL_Set                 ((uint32_t)0x00300000)
 130:Drivers/STM32F10x_StdPeriph_Driver/src/stm32f10x_adc.c **** #define JSQR_JL_Reset               ((uint32_t)0xFFCFFFFF)
 131:Drivers/STM32F10x_StdPeriph_Driver/src/stm32f10x_adc.c **** 
 132:Drivers/STM32F10x_StdPeriph_Driver/src/stm32f10x_adc.c **** /* ADC SMPx mask */
 133:Drivers/STM32F10x_StdPeriph_Driver/src/stm32f10x_adc.c **** #define SMPR1_SMP_Set               ((uint32_t)0x00000007)
 134:Drivers/STM32F10x_StdPeriph_Driver/src/stm32f10x_adc.c **** #define SMPR2_SMP_Set               ((uint32_t)0x00000007)
 135:Drivers/STM32F10x_StdPeriph_Driver/src/stm32f10x_adc.c **** 
 136:Drivers/STM32F10x_StdPeriph_Driver/src/stm32f10x_adc.c **** /* ADC JDRx registers offset */
 137:Drivers/STM32F10x_StdPeriph_Driver/src/stm32f10x_adc.c **** #define JDR_Offset                  ((uint8_t)0x28)
 138:Drivers/STM32F10x_StdPeriph_Driver/src/stm32f10x_adc.c **** 
 139:Drivers/STM32F10x_StdPeriph_Driver/src/stm32f10x_adc.c **** /* ADC1 DR register base address */
 140:Drivers/STM32F10x_StdPeriph_Driver/src/stm32f10x_adc.c **** #define DR_ADDRESS                  ((uint32_t)0x4001244C)
 141:Drivers/STM32F10x_StdPeriph_Driver/src/stm32f10x_adc.c **** 
 142:Drivers/STM32F10x_StdPeriph_Driver/src/stm32f10x_adc.c **** /**
 143:Drivers/STM32F10x_StdPeriph_Driver/src/stm32f10x_adc.c ****   * @}
 144:Drivers/STM32F10x_StdPeriph_Driver/src/stm32f10x_adc.c ****   */
 145:Drivers/STM32F10x_StdPeriph_Driver/src/stm32f10x_adc.c **** 
ARM GAS  /tmp/ccJ7FcFp.s 			page 4


 146:Drivers/STM32F10x_StdPeriph_Driver/src/stm32f10x_adc.c **** /** @defgroup ADC_Private_Macros
 147:Drivers/STM32F10x_StdPeriph_Driver/src/stm32f10x_adc.c ****   * @{
 148:Drivers/STM32F10x_StdPeriph_Driver/src/stm32f10x_adc.c ****   */
 149:Drivers/STM32F10x_StdPeriph_Driver/src/stm32f10x_adc.c **** 
 150:Drivers/STM32F10x_StdPeriph_Driver/src/stm32f10x_adc.c **** /**
 151:Drivers/STM32F10x_StdPeriph_Driver/src/stm32f10x_adc.c ****   * @}
 152:Drivers/STM32F10x_StdPeriph_Driver/src/stm32f10x_adc.c ****   */
 153:Drivers/STM32F10x_StdPeriph_Driver/src/stm32f10x_adc.c **** 
 154:Drivers/STM32F10x_StdPeriph_Driver/src/stm32f10x_adc.c **** /** @defgroup ADC_Private_Variables
 155:Drivers/STM32F10x_StdPeriph_Driver/src/stm32f10x_adc.c ****   * @{
 156:Drivers/STM32F10x_StdPeriph_Driver/src/stm32f10x_adc.c ****   */
 157:Drivers/STM32F10x_StdPeriph_Driver/src/stm32f10x_adc.c **** 
 158:Drivers/STM32F10x_StdPeriph_Driver/src/stm32f10x_adc.c **** /**
 159:Drivers/STM32F10x_StdPeriph_Driver/src/stm32f10x_adc.c ****   * @}
 160:Drivers/STM32F10x_StdPeriph_Driver/src/stm32f10x_adc.c ****   */
 161:Drivers/STM32F10x_StdPeriph_Driver/src/stm32f10x_adc.c **** 
 162:Drivers/STM32F10x_StdPeriph_Driver/src/stm32f10x_adc.c **** /** @defgroup ADC_Private_FunctionPrototypes
 163:Drivers/STM32F10x_StdPeriph_Driver/src/stm32f10x_adc.c ****   * @{
 164:Drivers/STM32F10x_StdPeriph_Driver/src/stm32f10x_adc.c ****   */
 165:Drivers/STM32F10x_StdPeriph_Driver/src/stm32f10x_adc.c **** 
 166:Drivers/STM32F10x_StdPeriph_Driver/src/stm32f10x_adc.c **** /**
 167:Drivers/STM32F10x_StdPeriph_Driver/src/stm32f10x_adc.c ****   * @}
 168:Drivers/STM32F10x_StdPeriph_Driver/src/stm32f10x_adc.c ****   */
 169:Drivers/STM32F10x_StdPeriph_Driver/src/stm32f10x_adc.c **** 
 170:Drivers/STM32F10x_StdPeriph_Driver/src/stm32f10x_adc.c **** /** @defgroup ADC_Private_Functions
 171:Drivers/STM32F10x_StdPeriph_Driver/src/stm32f10x_adc.c ****   * @{
 172:Drivers/STM32F10x_StdPeriph_Driver/src/stm32f10x_adc.c ****   */
 173:Drivers/STM32F10x_StdPeriph_Driver/src/stm32f10x_adc.c **** 
 174:Drivers/STM32F10x_StdPeriph_Driver/src/stm32f10x_adc.c **** /**
 175:Drivers/STM32F10x_StdPeriph_Driver/src/stm32f10x_adc.c ****   * @brief  Deinitializes the ADCx peripheral registers to their default reset values.
 176:Drivers/STM32F10x_StdPeriph_Driver/src/stm32f10x_adc.c ****   * @param  ADCx: where x can be 1, 2 or 3 to select the ADC peripheral.
 177:Drivers/STM32F10x_StdPeriph_Driver/src/stm32f10x_adc.c ****   * @retval None
 178:Drivers/STM32F10x_StdPeriph_Driver/src/stm32f10x_adc.c ****   */
 179:Drivers/STM32F10x_StdPeriph_Driver/src/stm32f10x_adc.c **** void ADC_DeInit(ADC_TypeDef* ADCx)
 180:Drivers/STM32F10x_StdPeriph_Driver/src/stm32f10x_adc.c **** {
  28              		.loc 1 180 1 view -0
  29              		.cfi_startproc
  30              		@ args = 0, pretend = 0, frame = 0
  31              		@ frame_needed = 0, uses_anonymous_args = 0
  32              		.loc 1 180 1 is_stmt 0 view .LVU1
  33 0000 08B5     		push	{r3, lr}
  34              	.LCFI0:
  35              		.cfi_def_cfa_offset 8
  36              		.cfi_offset 3, -8
  37              		.cfi_offset 14, -4
 181:Drivers/STM32F10x_StdPeriph_Driver/src/stm32f10x_adc.c ****   /* Check the parameters */
 182:Drivers/STM32F10x_StdPeriph_Driver/src/stm32f10x_adc.c ****   assert_param(IS_ADC_ALL_PERIPH(ADCx));
  38              		.loc 1 182 3 is_stmt 1 view .LVU2
 183:Drivers/STM32F10x_StdPeriph_Driver/src/stm32f10x_adc.c ****   
 184:Drivers/STM32F10x_StdPeriph_Driver/src/stm32f10x_adc.c ****   if (ADCx == ADC1)
  39              		.loc 1 184 3 view .LVU3
  40              		.loc 1 184 6 is_stmt 0 view .LVU4
  41 0002 154B     		ldr	r3, .L9
  42 0004 9842     		cmp	r0, r3
  43 0006 06D0     		beq	.L6
 185:Drivers/STM32F10x_StdPeriph_Driver/src/stm32f10x_adc.c ****   {
 186:Drivers/STM32F10x_StdPeriph_Driver/src/stm32f10x_adc.c ****     /* Enable ADC1 reset state */
ARM GAS  /tmp/ccJ7FcFp.s 			page 5


 187:Drivers/STM32F10x_StdPeriph_Driver/src/stm32f10x_adc.c ****     RCC_APB2PeriphResetCmd(RCC_APB2Periph_ADC1, ENABLE);
 188:Drivers/STM32F10x_StdPeriph_Driver/src/stm32f10x_adc.c ****     /* Release ADC1 from reset state */
 189:Drivers/STM32F10x_StdPeriph_Driver/src/stm32f10x_adc.c ****     RCC_APB2PeriphResetCmd(RCC_APB2Periph_ADC1, DISABLE);
 190:Drivers/STM32F10x_StdPeriph_Driver/src/stm32f10x_adc.c ****   }
 191:Drivers/STM32F10x_StdPeriph_Driver/src/stm32f10x_adc.c ****   else if (ADCx == ADC2)
  44              		.loc 1 191 8 is_stmt 1 view .LVU5
  45              		.loc 1 191 11 is_stmt 0 view .LVU6
  46 0008 144B     		ldr	r3, .L9+4
  47 000a 9842     		cmp	r0, r3
  48 000c 0ED0     		beq	.L7
 192:Drivers/STM32F10x_StdPeriph_Driver/src/stm32f10x_adc.c ****   {
 193:Drivers/STM32F10x_StdPeriph_Driver/src/stm32f10x_adc.c ****     /* Enable ADC2 reset state */
 194:Drivers/STM32F10x_StdPeriph_Driver/src/stm32f10x_adc.c ****     RCC_APB2PeriphResetCmd(RCC_APB2Periph_ADC2, ENABLE);
 195:Drivers/STM32F10x_StdPeriph_Driver/src/stm32f10x_adc.c ****     /* Release ADC2 from reset state */
 196:Drivers/STM32F10x_StdPeriph_Driver/src/stm32f10x_adc.c ****     RCC_APB2PeriphResetCmd(RCC_APB2Periph_ADC2, DISABLE);
 197:Drivers/STM32F10x_StdPeriph_Driver/src/stm32f10x_adc.c ****   }
 198:Drivers/STM32F10x_StdPeriph_Driver/src/stm32f10x_adc.c ****   else
 199:Drivers/STM32F10x_StdPeriph_Driver/src/stm32f10x_adc.c ****   {
 200:Drivers/STM32F10x_StdPeriph_Driver/src/stm32f10x_adc.c ****     if (ADCx == ADC3)
  49              		.loc 1 200 5 is_stmt 1 view .LVU7
  50              		.loc 1 200 8 is_stmt 0 view .LVU8
  51 000e 144B     		ldr	r3, .L9+8
  52 0010 9842     		cmp	r0, r3
  53 0012 16D0     		beq	.L8
  54              	.LVL1:
  55              	.L1:
 201:Drivers/STM32F10x_StdPeriph_Driver/src/stm32f10x_adc.c ****     {
 202:Drivers/STM32F10x_StdPeriph_Driver/src/stm32f10x_adc.c ****       /* Enable ADC3 reset state */
 203:Drivers/STM32F10x_StdPeriph_Driver/src/stm32f10x_adc.c ****       RCC_APB2PeriphResetCmd(RCC_APB2Periph_ADC3, ENABLE);
 204:Drivers/STM32F10x_StdPeriph_Driver/src/stm32f10x_adc.c ****       /* Release ADC3 from reset state */
 205:Drivers/STM32F10x_StdPeriph_Driver/src/stm32f10x_adc.c ****       RCC_APB2PeriphResetCmd(RCC_APB2Periph_ADC3, DISABLE);
 206:Drivers/STM32F10x_StdPeriph_Driver/src/stm32f10x_adc.c ****     }
 207:Drivers/STM32F10x_StdPeriph_Driver/src/stm32f10x_adc.c ****   }
 208:Drivers/STM32F10x_StdPeriph_Driver/src/stm32f10x_adc.c **** }
  56              		.loc 1 208 1 view .LVU9
  57 0014 08BD     		pop	{r3, pc}
  58              	.LVL2:
  59              	.L6:
 187:Drivers/STM32F10x_StdPeriph_Driver/src/stm32f10x_adc.c ****     /* Release ADC1 from reset state */
  60              		.loc 1 187 5 is_stmt 1 view .LVU10
  61 0016 0121     		movs	r1, #1
  62 0018 4FF40070 		mov	r0, #512
  63              	.LVL3:
 187:Drivers/STM32F10x_StdPeriph_Driver/src/stm32f10x_adc.c ****     /* Release ADC1 from reset state */
  64              		.loc 1 187 5 is_stmt 0 view .LVU11
  65 001c FFF7FEFF 		bl	RCC_APB2PeriphResetCmd
  66              	.LVL4:
 189:Drivers/STM32F10x_StdPeriph_Driver/src/stm32f10x_adc.c ****   }
  67              		.loc 1 189 5 is_stmt 1 view .LVU12
  68 0020 0021     		movs	r1, #0
  69 0022 4FF40070 		mov	r0, #512
  70 0026 FFF7FEFF 		bl	RCC_APB2PeriphResetCmd
  71              	.LVL5:
  72 002a F3E7     		b	.L1
  73              	.LVL6:
  74              	.L7:
 194:Drivers/STM32F10x_StdPeriph_Driver/src/stm32f10x_adc.c ****     /* Release ADC2 from reset state */
ARM GAS  /tmp/ccJ7FcFp.s 			page 6


  75              		.loc 1 194 5 view .LVU13
  76 002c 0121     		movs	r1, #1
  77 002e 4FF48060 		mov	r0, #1024
  78              	.LVL7:
 194:Drivers/STM32F10x_StdPeriph_Driver/src/stm32f10x_adc.c ****     /* Release ADC2 from reset state */
  79              		.loc 1 194 5 is_stmt 0 view .LVU14
  80 0032 FFF7FEFF 		bl	RCC_APB2PeriphResetCmd
  81              	.LVL8:
 196:Drivers/STM32F10x_StdPeriph_Driver/src/stm32f10x_adc.c ****   }
  82              		.loc 1 196 5 is_stmt 1 view .LVU15
  83 0036 0021     		movs	r1, #0
  84 0038 4FF48060 		mov	r0, #1024
  85 003c FFF7FEFF 		bl	RCC_APB2PeriphResetCmd
  86              	.LVL9:
  87 0040 E8E7     		b	.L1
  88              	.LVL10:
  89              	.L8:
 203:Drivers/STM32F10x_StdPeriph_Driver/src/stm32f10x_adc.c ****       /* Release ADC3 from reset state */
  90              		.loc 1 203 7 view .LVU16
  91 0042 0121     		movs	r1, #1
  92 0044 4FF40040 		mov	r0, #32768
  93              	.LVL11:
 203:Drivers/STM32F10x_StdPeriph_Driver/src/stm32f10x_adc.c ****       /* Release ADC3 from reset state */
  94              		.loc 1 203 7 is_stmt 0 view .LVU17
  95 0048 FFF7FEFF 		bl	RCC_APB2PeriphResetCmd
  96              	.LVL12:
 205:Drivers/STM32F10x_StdPeriph_Driver/src/stm32f10x_adc.c ****     }
  97              		.loc 1 205 7 is_stmt 1 view .LVU18
  98 004c 0021     		movs	r1, #0
  99 004e 4FF40040 		mov	r0, #32768
 100 0052 FFF7FEFF 		bl	RCC_APB2PeriphResetCmd
 101              	.LVL13:
 102              		.loc 1 208 1 is_stmt 0 view .LVU19
 103 0056 DDE7     		b	.L1
 104              	.L10:
 105              		.align	2
 106              	.L9:
 107 0058 00240140 		.word	1073816576
 108 005c 00280140 		.word	1073817600
 109 0060 003C0140 		.word	1073822720
 110              		.cfi_endproc
 111              	.LFE65:
 113              		.section	.text.ADC_Init,"ax",%progbits
 114              		.align	1
 115              		.global	ADC_Init
 116              		.syntax unified
 117              		.thumb
 118              		.thumb_func
 120              	ADC_Init:
 121              	.LVL14:
 122              	.LFB66:
 209:Drivers/STM32F10x_StdPeriph_Driver/src/stm32f10x_adc.c **** 
 210:Drivers/STM32F10x_StdPeriph_Driver/src/stm32f10x_adc.c **** /**
 211:Drivers/STM32F10x_StdPeriph_Driver/src/stm32f10x_adc.c ****   * @brief  Initializes the ADCx peripheral according to the specified parameters
 212:Drivers/STM32F10x_StdPeriph_Driver/src/stm32f10x_adc.c ****   *         in the ADC_InitStruct.
 213:Drivers/STM32F10x_StdPeriph_Driver/src/stm32f10x_adc.c ****   * @param  ADCx: where x can be 1, 2 or 3 to select the ADC peripheral.
 214:Drivers/STM32F10x_StdPeriph_Driver/src/stm32f10x_adc.c ****   * @param  ADC_InitStruct: pointer to an ADC_InitTypeDef structure that contains
ARM GAS  /tmp/ccJ7FcFp.s 			page 7


 215:Drivers/STM32F10x_StdPeriph_Driver/src/stm32f10x_adc.c ****   *         the configuration information for the specified ADC peripheral.
 216:Drivers/STM32F10x_StdPeriph_Driver/src/stm32f10x_adc.c ****   * @retval None
 217:Drivers/STM32F10x_StdPeriph_Driver/src/stm32f10x_adc.c ****   */
 218:Drivers/STM32F10x_StdPeriph_Driver/src/stm32f10x_adc.c **** void ADC_Init(ADC_TypeDef* ADCx, ADC_InitTypeDef* ADC_InitStruct)
 219:Drivers/STM32F10x_StdPeriph_Driver/src/stm32f10x_adc.c **** {
 123              		.loc 1 219 1 is_stmt 1 view -0
 124              		.cfi_startproc
 125              		@ args = 0, pretend = 0, frame = 0
 126              		@ frame_needed = 0, uses_anonymous_args = 0
 127              		@ link register save eliminated.
 128              		.loc 1 219 1 is_stmt 0 view .LVU21
 129 0000 10B4     		push	{r4}
 130              	.LCFI1:
 131              		.cfi_def_cfa_offset 4
 132              		.cfi_offset 4, -4
 220:Drivers/STM32F10x_StdPeriph_Driver/src/stm32f10x_adc.c ****   uint32_t tmpreg1 = 0;
 133              		.loc 1 220 3 is_stmt 1 view .LVU22
 134              	.LVL15:
 221:Drivers/STM32F10x_StdPeriph_Driver/src/stm32f10x_adc.c ****   uint8_t tmpreg2 = 0;
 135              		.loc 1 221 3 view .LVU23
 222:Drivers/STM32F10x_StdPeriph_Driver/src/stm32f10x_adc.c ****   /* Check the parameters */
 223:Drivers/STM32F10x_StdPeriph_Driver/src/stm32f10x_adc.c ****   assert_param(IS_ADC_ALL_PERIPH(ADCx));
 136              		.loc 1 223 3 view .LVU24
 224:Drivers/STM32F10x_StdPeriph_Driver/src/stm32f10x_adc.c ****   assert_param(IS_ADC_MODE(ADC_InitStruct->ADC_Mode));
 137              		.loc 1 224 3 view .LVU25
 225:Drivers/STM32F10x_StdPeriph_Driver/src/stm32f10x_adc.c ****   assert_param(IS_FUNCTIONAL_STATE(ADC_InitStruct->ADC_ScanConvMode));
 138              		.loc 1 225 3 view .LVU26
 226:Drivers/STM32F10x_StdPeriph_Driver/src/stm32f10x_adc.c ****   assert_param(IS_FUNCTIONAL_STATE(ADC_InitStruct->ADC_ContinuousConvMode));
 139              		.loc 1 226 3 view .LVU27
 227:Drivers/STM32F10x_StdPeriph_Driver/src/stm32f10x_adc.c ****   assert_param(IS_ADC_EXT_TRIG(ADC_InitStruct->ADC_ExternalTrigConv));   
 140              		.loc 1 227 3 view .LVU28
 228:Drivers/STM32F10x_StdPeriph_Driver/src/stm32f10x_adc.c ****   assert_param(IS_ADC_DATA_ALIGN(ADC_InitStruct->ADC_DataAlign)); 
 141              		.loc 1 228 3 view .LVU29
 229:Drivers/STM32F10x_StdPeriph_Driver/src/stm32f10x_adc.c ****   assert_param(IS_ADC_REGULAR_LENGTH(ADC_InitStruct->ADC_NbrOfChannel));
 142              		.loc 1 229 3 view .LVU30
 230:Drivers/STM32F10x_StdPeriph_Driver/src/stm32f10x_adc.c **** 
 231:Drivers/STM32F10x_StdPeriph_Driver/src/stm32f10x_adc.c ****   /*---------------------------- ADCx CR1 Configuration -----------------*/
 232:Drivers/STM32F10x_StdPeriph_Driver/src/stm32f10x_adc.c ****   /* Get the ADCx CR1 value */
 233:Drivers/STM32F10x_StdPeriph_Driver/src/stm32f10x_adc.c ****   tmpreg1 = ADCx->CR1;
 143              		.loc 1 233 3 view .LVU31
 144              		.loc 1 233 11 is_stmt 0 view .LVU32
 145 0002 4268     		ldr	r2, [r0, #4]
 146              	.LVL16:
 234:Drivers/STM32F10x_StdPeriph_Driver/src/stm32f10x_adc.c ****   /* Clear DUALMOD and SCAN bits */
 235:Drivers/STM32F10x_StdPeriph_Driver/src/stm32f10x_adc.c ****   tmpreg1 &= CR1_CLEAR_Mask;
 147              		.loc 1 235 3 is_stmt 1 view .LVU33
 148              		.loc 1 235 11 is_stmt 0 view .LVU34
 149 0004 22F47022 		bic	r2, r2, #983040
 150              	.LVL17:
 151              		.loc 1 235 11 view .LVU35
 152 0008 22F48072 		bic	r2, r2, #256
 153              	.LVL18:
 236:Drivers/STM32F10x_StdPeriph_Driver/src/stm32f10x_adc.c ****   /* Configure ADCx: Dual mode and scan conversion mode */
 237:Drivers/STM32F10x_StdPeriph_Driver/src/stm32f10x_adc.c ****   /* Set DUALMOD bits according to ADC_Mode value */
 238:Drivers/STM32F10x_StdPeriph_Driver/src/stm32f10x_adc.c ****   /* Set SCAN bit according to ADC_ScanConvMode value */
 239:Drivers/STM32F10x_StdPeriph_Driver/src/stm32f10x_adc.c ****   tmpreg1 |= (uint32_t)(ADC_InitStruct->ADC_Mode | ((uint32_t)ADC_InitStruct->ADC_ScanConvMode << 8
 154              		.loc 1 239 3 is_stmt 1 view .LVU36
ARM GAS  /tmp/ccJ7FcFp.s 			page 8


 155              		.loc 1 239 39 is_stmt 0 view .LVU37
 156 000c 0B68     		ldr	r3, [r1]
 157              		.loc 1 239 77 view .LVU38
 158 000e 91F804C0 		ldrb	ip, [r1, #4]	@ zero_extendqisi2
 159              		.loc 1 239 14 view .LVU39
 160 0012 43EA0C23 		orr	r3, r3, ip, lsl #8
 161              		.loc 1 239 11 view .LVU40
 162 0016 1343     		orrs	r3, r3, r2
 163              	.LVL19:
 240:Drivers/STM32F10x_StdPeriph_Driver/src/stm32f10x_adc.c ****   /* Write to ADCx CR1 */
 241:Drivers/STM32F10x_StdPeriph_Driver/src/stm32f10x_adc.c ****   ADCx->CR1 = tmpreg1;
 164              		.loc 1 241 3 is_stmt 1 view .LVU41
 165              		.loc 1 241 13 is_stmt 0 view .LVU42
 166 0018 4360     		str	r3, [r0, #4]
 242:Drivers/STM32F10x_StdPeriph_Driver/src/stm32f10x_adc.c **** 
 243:Drivers/STM32F10x_StdPeriph_Driver/src/stm32f10x_adc.c ****   /*---------------------------- ADCx CR2 Configuration -----------------*/
 244:Drivers/STM32F10x_StdPeriph_Driver/src/stm32f10x_adc.c ****   /* Get the ADCx CR2 value */
 245:Drivers/STM32F10x_StdPeriph_Driver/src/stm32f10x_adc.c ****   tmpreg1 = ADCx->CR2;
 167              		.loc 1 245 3 is_stmt 1 view .LVU43
 168              		.loc 1 245 11 is_stmt 0 view .LVU44
 169 001a 8368     		ldr	r3, [r0, #8]
 170              	.LVL20:
 246:Drivers/STM32F10x_StdPeriph_Driver/src/stm32f10x_adc.c ****   /* Clear CONT, ALIGN and EXTSEL bits */
 247:Drivers/STM32F10x_StdPeriph_Driver/src/stm32f10x_adc.c ****   tmpreg1 &= CR2_CLEAR_Mask;
 171              		.loc 1 247 3 is_stmt 1 view .LVU45
 172              		.loc 1 247 11 is_stmt 0 view .LVU46
 173 001c 0A4A     		ldr	r2, .L13
 174 001e 1A40     		ands	r2, r2, r3
 175              	.LVL21:
 248:Drivers/STM32F10x_StdPeriph_Driver/src/stm32f10x_adc.c ****   /* Configure ADCx: external trigger event and continuous conversion mode */
 249:Drivers/STM32F10x_StdPeriph_Driver/src/stm32f10x_adc.c ****   /* Set ALIGN bit according to ADC_DataAlign value */
 250:Drivers/STM32F10x_StdPeriph_Driver/src/stm32f10x_adc.c ****   /* Set EXTSEL bits according to ADC_ExternalTrigConv value */
 251:Drivers/STM32F10x_StdPeriph_Driver/src/stm32f10x_adc.c ****   /* Set CONT bit according to ADC_ContinuousConvMode value */
 252:Drivers/STM32F10x_StdPeriph_Driver/src/stm32f10x_adc.c ****   tmpreg1 |= (uint32_t)(ADC_InitStruct->ADC_DataAlign | ADC_InitStruct->ADC_ExternalTrigConv |
 176              		.loc 1 252 3 is_stmt 1 view .LVU47
 177              		.loc 1 252 39 is_stmt 0 view .LVU48
 178 0020 CB68     		ldr	r3, [r1, #12]
 179              		.loc 1 252 55 view .LVU49
 180 0022 8C68     		ldr	r4, [r1, #8]
 181 0024 2343     		orrs	r3, r3, r4
 253:Drivers/STM32F10x_StdPeriph_Driver/src/stm32f10x_adc.c ****             ((uint32_t)ADC_InitStruct->ADC_ContinuousConvMode << 1));
 182              		.loc 1 253 38 view .LVU50
 183 0026 91F805C0 		ldrb	ip, [r1, #5]	@ zero_extendqisi2
 252:Drivers/STM32F10x_StdPeriph_Driver/src/stm32f10x_adc.c ****             ((uint32_t)ADC_InitStruct->ADC_ContinuousConvMode << 1));
 184              		.loc 1 252 14 view .LVU51
 185 002a 43EA4C03 		orr	r3, r3, ip, lsl #1
 252:Drivers/STM32F10x_StdPeriph_Driver/src/stm32f10x_adc.c ****             ((uint32_t)ADC_InitStruct->ADC_ContinuousConvMode << 1));
 186              		.loc 1 252 11 view .LVU52
 187 002e 1343     		orrs	r3, r3, r2
 188              	.LVL22:
 254:Drivers/STM32F10x_StdPeriph_Driver/src/stm32f10x_adc.c ****   /* Write to ADCx CR2 */
 255:Drivers/STM32F10x_StdPeriph_Driver/src/stm32f10x_adc.c ****   ADCx->CR2 = tmpreg1;
 189              		.loc 1 255 3 is_stmt 1 view .LVU53
 190              		.loc 1 255 13 is_stmt 0 view .LVU54
 191 0030 8360     		str	r3, [r0, #8]
 256:Drivers/STM32F10x_StdPeriph_Driver/src/stm32f10x_adc.c **** 
 257:Drivers/STM32F10x_StdPeriph_Driver/src/stm32f10x_adc.c ****   /*---------------------------- ADCx SQR1 Configuration -----------------*/
ARM GAS  /tmp/ccJ7FcFp.s 			page 9


 258:Drivers/STM32F10x_StdPeriph_Driver/src/stm32f10x_adc.c ****   /* Get the ADCx SQR1 value */
 259:Drivers/STM32F10x_StdPeriph_Driver/src/stm32f10x_adc.c ****   tmpreg1 = ADCx->SQR1;
 192              		.loc 1 259 3 is_stmt 1 view .LVU55
 193              		.loc 1 259 11 is_stmt 0 view .LVU56
 194 0032 C36A     		ldr	r3, [r0, #44]
 195              	.LVL23:
 260:Drivers/STM32F10x_StdPeriph_Driver/src/stm32f10x_adc.c ****   /* Clear L bits */
 261:Drivers/STM32F10x_StdPeriph_Driver/src/stm32f10x_adc.c ****   tmpreg1 &= SQR1_CLEAR_Mask;
 196              		.loc 1 261 3 is_stmt 1 view .LVU57
 197              		.loc 1 261 11 is_stmt 0 view .LVU58
 198 0034 23F47003 		bic	r3, r3, #15728640
 199              	.LVL24:
 262:Drivers/STM32F10x_StdPeriph_Driver/src/stm32f10x_adc.c ****   /* Configure ADCx: regular channel sequence length */
 263:Drivers/STM32F10x_StdPeriph_Driver/src/stm32f10x_adc.c ****   /* Set L bits according to ADC_NbrOfChannel value */
 264:Drivers/STM32F10x_StdPeriph_Driver/src/stm32f10x_adc.c ****   tmpreg2 |= (uint8_t) (ADC_InitStruct->ADC_NbrOfChannel - (uint8_t)1);
 200              		.loc 1 264 3 is_stmt 1 view .LVU59
 201              		.loc 1 264 39 is_stmt 0 view .LVU60
 202 0038 0A7C     		ldrb	r2, [r1, #16]	@ zero_extendqisi2
 203              		.loc 1 264 14 view .LVU61
 204 003a 013A     		subs	r2, r2, #1
 205 003c D2B2     		uxtb	r2, r2
 206              	.LVL25:
 265:Drivers/STM32F10x_StdPeriph_Driver/src/stm32f10x_adc.c ****   tmpreg1 |= (uint32_t)tmpreg2 << 20;
 207              		.loc 1 265 3 is_stmt 1 view .LVU62
 208              		.loc 1 265 11 is_stmt 0 view .LVU63
 209 003e 43EA0253 		orr	r3, r3, r2, lsl #20
 210              	.LVL26:
 266:Drivers/STM32F10x_StdPeriph_Driver/src/stm32f10x_adc.c ****   /* Write to ADCx SQR1 */
 267:Drivers/STM32F10x_StdPeriph_Driver/src/stm32f10x_adc.c ****   ADCx->SQR1 = tmpreg1;
 211              		.loc 1 267 3 is_stmt 1 view .LVU64
 212              		.loc 1 267 14 is_stmt 0 view .LVU65
 213 0042 C362     		str	r3, [r0, #44]
 268:Drivers/STM32F10x_StdPeriph_Driver/src/stm32f10x_adc.c **** }
 214              		.loc 1 268 1 view .LVU66
 215 0044 10BC     		pop	{r4}
 216              	.LCFI2:
 217              		.cfi_restore 4
 218              		.cfi_def_cfa_offset 0
 219 0046 7047     		bx	lr
 220              	.L14:
 221              		.align	2
 222              	.L13:
 223 0048 FDF7F1FF 		.word	-919555
 224              		.cfi_endproc
 225              	.LFE66:
 227              		.section	.text.ADC_StructInit,"ax",%progbits
 228              		.align	1
 229              		.global	ADC_StructInit
 230              		.syntax unified
 231              		.thumb
 232              		.thumb_func
 234              	ADC_StructInit:
 235              	.LVL27:
 236              	.LFB67:
 269:Drivers/STM32F10x_StdPeriph_Driver/src/stm32f10x_adc.c **** 
 270:Drivers/STM32F10x_StdPeriph_Driver/src/stm32f10x_adc.c **** /**
 271:Drivers/STM32F10x_StdPeriph_Driver/src/stm32f10x_adc.c ****   * @brief  Fills each ADC_InitStruct member with its default value.
ARM GAS  /tmp/ccJ7FcFp.s 			page 10


 272:Drivers/STM32F10x_StdPeriph_Driver/src/stm32f10x_adc.c ****   * @param  ADC_InitStruct : pointer to an ADC_InitTypeDef structure which will be initialized.
 273:Drivers/STM32F10x_StdPeriph_Driver/src/stm32f10x_adc.c ****   * @retval None
 274:Drivers/STM32F10x_StdPeriph_Driver/src/stm32f10x_adc.c ****   */
 275:Drivers/STM32F10x_StdPeriph_Driver/src/stm32f10x_adc.c **** void ADC_StructInit(ADC_InitTypeDef* ADC_InitStruct)
 276:Drivers/STM32F10x_StdPeriph_Driver/src/stm32f10x_adc.c **** {
 237              		.loc 1 276 1 is_stmt 1 view -0
 238              		.cfi_startproc
 239              		@ args = 0, pretend = 0, frame = 0
 240              		@ frame_needed = 0, uses_anonymous_args = 0
 241              		@ link register save eliminated.
 277:Drivers/STM32F10x_StdPeriph_Driver/src/stm32f10x_adc.c ****   /* Reset ADC init structure parameters values */
 278:Drivers/STM32F10x_StdPeriph_Driver/src/stm32f10x_adc.c ****   /* Initialize the ADC_Mode member */
 279:Drivers/STM32F10x_StdPeriph_Driver/src/stm32f10x_adc.c ****   ADC_InitStruct->ADC_Mode = ADC_Mode_Independent;
 242              		.loc 1 279 3 view .LVU68
 243              		.loc 1 279 28 is_stmt 0 view .LVU69
 244 0000 0023     		movs	r3, #0
 245 0002 0360     		str	r3, [r0]
 280:Drivers/STM32F10x_StdPeriph_Driver/src/stm32f10x_adc.c ****   /* initialize the ADC_ScanConvMode member */
 281:Drivers/STM32F10x_StdPeriph_Driver/src/stm32f10x_adc.c ****   ADC_InitStruct->ADC_ScanConvMode = DISABLE;
 246              		.loc 1 281 3 is_stmt 1 view .LVU70
 247              		.loc 1 281 36 is_stmt 0 view .LVU71
 248 0004 0371     		strb	r3, [r0, #4]
 282:Drivers/STM32F10x_StdPeriph_Driver/src/stm32f10x_adc.c ****   /* Initialize the ADC_ContinuousConvMode member */
 283:Drivers/STM32F10x_StdPeriph_Driver/src/stm32f10x_adc.c ****   ADC_InitStruct->ADC_ContinuousConvMode = DISABLE;
 249              		.loc 1 283 3 is_stmt 1 view .LVU72
 250              		.loc 1 283 42 is_stmt 0 view .LVU73
 251 0006 4371     		strb	r3, [r0, #5]
 284:Drivers/STM32F10x_StdPeriph_Driver/src/stm32f10x_adc.c ****   /* Initialize the ADC_ExternalTrigConv member */
 285:Drivers/STM32F10x_StdPeriph_Driver/src/stm32f10x_adc.c ****   ADC_InitStruct->ADC_ExternalTrigConv = ADC_ExternalTrigConv_T1_CC1;
 252              		.loc 1 285 3 is_stmt 1 view .LVU74
 253              		.loc 1 285 40 is_stmt 0 view .LVU75
 254 0008 8360     		str	r3, [r0, #8]
 286:Drivers/STM32F10x_StdPeriph_Driver/src/stm32f10x_adc.c ****   /* Initialize the ADC_DataAlign member */
 287:Drivers/STM32F10x_StdPeriph_Driver/src/stm32f10x_adc.c ****   ADC_InitStruct->ADC_DataAlign = ADC_DataAlign_Right;
 255              		.loc 1 287 3 is_stmt 1 view .LVU76
 256              		.loc 1 287 33 is_stmt 0 view .LVU77
 257 000a C360     		str	r3, [r0, #12]
 288:Drivers/STM32F10x_StdPeriph_Driver/src/stm32f10x_adc.c ****   /* Initialize the ADC_NbrOfChannel member */
 289:Drivers/STM32F10x_StdPeriph_Driver/src/stm32f10x_adc.c ****   ADC_InitStruct->ADC_NbrOfChannel = 1;
 258              		.loc 1 289 3 is_stmt 1 view .LVU78
 259              		.loc 1 289 36 is_stmt 0 view .LVU79
 260 000c 0123     		movs	r3, #1
 261 000e 0374     		strb	r3, [r0, #16]
 290:Drivers/STM32F10x_StdPeriph_Driver/src/stm32f10x_adc.c **** }
 262              		.loc 1 290 1 view .LVU80
 263 0010 7047     		bx	lr
 264              		.cfi_endproc
 265              	.LFE67:
 267              		.section	.text.ADC_Cmd,"ax",%progbits
 268              		.align	1
 269              		.global	ADC_Cmd
 270              		.syntax unified
 271              		.thumb
 272              		.thumb_func
 274              	ADC_Cmd:
 275              	.LVL28:
 276              	.LFB68:
ARM GAS  /tmp/ccJ7FcFp.s 			page 11


 291:Drivers/STM32F10x_StdPeriph_Driver/src/stm32f10x_adc.c **** 
 292:Drivers/STM32F10x_StdPeriph_Driver/src/stm32f10x_adc.c **** /**
 293:Drivers/STM32F10x_StdPeriph_Driver/src/stm32f10x_adc.c ****   * @brief  Enables or disables the specified ADC peripheral.
 294:Drivers/STM32F10x_StdPeriph_Driver/src/stm32f10x_adc.c ****   * @param  ADCx: where x can be 1, 2 or 3 to select the ADC peripheral.
 295:Drivers/STM32F10x_StdPeriph_Driver/src/stm32f10x_adc.c ****   * @param  NewState: new state of the ADCx peripheral.
 296:Drivers/STM32F10x_StdPeriph_Driver/src/stm32f10x_adc.c ****   *   This parameter can be: ENABLE or DISABLE.
 297:Drivers/STM32F10x_StdPeriph_Driver/src/stm32f10x_adc.c ****   * @retval None
 298:Drivers/STM32F10x_StdPeriph_Driver/src/stm32f10x_adc.c ****   */
 299:Drivers/STM32F10x_StdPeriph_Driver/src/stm32f10x_adc.c **** void ADC_Cmd(ADC_TypeDef* ADCx, FunctionalState NewState)
 300:Drivers/STM32F10x_StdPeriph_Driver/src/stm32f10x_adc.c **** {
 277              		.loc 1 300 1 is_stmt 1 view -0
 278              		.cfi_startproc
 279              		@ args = 0, pretend = 0, frame = 0
 280              		@ frame_needed = 0, uses_anonymous_args = 0
 281              		@ link register save eliminated.
 301:Drivers/STM32F10x_StdPeriph_Driver/src/stm32f10x_adc.c ****   /* Check the parameters */
 302:Drivers/STM32F10x_StdPeriph_Driver/src/stm32f10x_adc.c ****   assert_param(IS_ADC_ALL_PERIPH(ADCx));
 282              		.loc 1 302 3 view .LVU82
 303:Drivers/STM32F10x_StdPeriph_Driver/src/stm32f10x_adc.c ****   assert_param(IS_FUNCTIONAL_STATE(NewState));
 283              		.loc 1 303 3 view .LVU83
 304:Drivers/STM32F10x_StdPeriph_Driver/src/stm32f10x_adc.c ****   if (NewState != DISABLE)
 284              		.loc 1 304 3 view .LVU84
 285              		.loc 1 304 6 is_stmt 0 view .LVU85
 286 0000 21B1     		cbz	r1, .L17
 305:Drivers/STM32F10x_StdPeriph_Driver/src/stm32f10x_adc.c ****   {
 306:Drivers/STM32F10x_StdPeriph_Driver/src/stm32f10x_adc.c ****     /* Set the ADON bit to wake up the ADC from power down mode */
 307:Drivers/STM32F10x_StdPeriph_Driver/src/stm32f10x_adc.c ****     ADCx->CR2 |= CR2_ADON_Set;
 287              		.loc 1 307 5 is_stmt 1 view .LVU86
 288              		.loc 1 307 9 is_stmt 0 view .LVU87
 289 0002 8368     		ldr	r3, [r0, #8]
 290              		.loc 1 307 15 view .LVU88
 291 0004 43F00103 		orr	r3, r3, #1
 292 0008 8360     		str	r3, [r0, #8]
 293 000a 7047     		bx	lr
 294              	.L17:
 308:Drivers/STM32F10x_StdPeriph_Driver/src/stm32f10x_adc.c ****   }
 309:Drivers/STM32F10x_StdPeriph_Driver/src/stm32f10x_adc.c ****   else
 310:Drivers/STM32F10x_StdPeriph_Driver/src/stm32f10x_adc.c ****   {
 311:Drivers/STM32F10x_StdPeriph_Driver/src/stm32f10x_adc.c ****     /* Disable the selected ADC peripheral */
 312:Drivers/STM32F10x_StdPeriph_Driver/src/stm32f10x_adc.c ****     ADCx->CR2 &= CR2_ADON_Reset;
 295              		.loc 1 312 5 is_stmt 1 view .LVU89
 296              		.loc 1 312 9 is_stmt 0 view .LVU90
 297 000c 8368     		ldr	r3, [r0, #8]
 298              		.loc 1 312 15 view .LVU91
 299 000e 23F00103 		bic	r3, r3, #1
 300 0012 8360     		str	r3, [r0, #8]
 313:Drivers/STM32F10x_StdPeriph_Driver/src/stm32f10x_adc.c ****   }
 314:Drivers/STM32F10x_StdPeriph_Driver/src/stm32f10x_adc.c **** }
 301              		.loc 1 314 1 view .LVU92
 302 0014 7047     		bx	lr
 303              		.cfi_endproc
 304              	.LFE68:
 306              		.section	.text.ADC_DMACmd,"ax",%progbits
 307              		.align	1
 308              		.global	ADC_DMACmd
 309              		.syntax unified
 310              		.thumb
ARM GAS  /tmp/ccJ7FcFp.s 			page 12


 311              		.thumb_func
 313              	ADC_DMACmd:
 314              	.LVL29:
 315              	.LFB69:
 315:Drivers/STM32F10x_StdPeriph_Driver/src/stm32f10x_adc.c **** 
 316:Drivers/STM32F10x_StdPeriph_Driver/src/stm32f10x_adc.c **** /**
 317:Drivers/STM32F10x_StdPeriph_Driver/src/stm32f10x_adc.c ****   * @brief  Enables or disables the specified ADC DMA request.
 318:Drivers/STM32F10x_StdPeriph_Driver/src/stm32f10x_adc.c ****   * @param  ADCx: where x can be 1 or 3 to select the ADC peripheral.
 319:Drivers/STM32F10x_StdPeriph_Driver/src/stm32f10x_adc.c ****   *   Note: ADC2 hasn't a DMA capability.
 320:Drivers/STM32F10x_StdPeriph_Driver/src/stm32f10x_adc.c ****   * @param  NewState: new state of the selected ADC DMA transfer.
 321:Drivers/STM32F10x_StdPeriph_Driver/src/stm32f10x_adc.c ****   *   This parameter can be: ENABLE or DISABLE.
 322:Drivers/STM32F10x_StdPeriph_Driver/src/stm32f10x_adc.c ****   * @retval None
 323:Drivers/STM32F10x_StdPeriph_Driver/src/stm32f10x_adc.c ****   */
 324:Drivers/STM32F10x_StdPeriph_Driver/src/stm32f10x_adc.c **** void ADC_DMACmd(ADC_TypeDef* ADCx, FunctionalState NewState)
 325:Drivers/STM32F10x_StdPeriph_Driver/src/stm32f10x_adc.c **** {
 316              		.loc 1 325 1 is_stmt 1 view -0
 317              		.cfi_startproc
 318              		@ args = 0, pretend = 0, frame = 0
 319              		@ frame_needed = 0, uses_anonymous_args = 0
 320              		@ link register save eliminated.
 326:Drivers/STM32F10x_StdPeriph_Driver/src/stm32f10x_adc.c ****   /* Check the parameters */
 327:Drivers/STM32F10x_StdPeriph_Driver/src/stm32f10x_adc.c ****   assert_param(IS_ADC_DMA_PERIPH(ADCx));
 321              		.loc 1 327 3 view .LVU94
 328:Drivers/STM32F10x_StdPeriph_Driver/src/stm32f10x_adc.c ****   assert_param(IS_FUNCTIONAL_STATE(NewState));
 322              		.loc 1 328 3 view .LVU95
 329:Drivers/STM32F10x_StdPeriph_Driver/src/stm32f10x_adc.c ****   if (NewState != DISABLE)
 323              		.loc 1 329 3 view .LVU96
 324              		.loc 1 329 6 is_stmt 0 view .LVU97
 325 0000 21B1     		cbz	r1, .L20
 330:Drivers/STM32F10x_StdPeriph_Driver/src/stm32f10x_adc.c ****   {
 331:Drivers/STM32F10x_StdPeriph_Driver/src/stm32f10x_adc.c ****     /* Enable the selected ADC DMA request */
 332:Drivers/STM32F10x_StdPeriph_Driver/src/stm32f10x_adc.c ****     ADCx->CR2 |= CR2_DMA_Set;
 326              		.loc 1 332 5 is_stmt 1 view .LVU98
 327              		.loc 1 332 9 is_stmt 0 view .LVU99
 328 0002 8368     		ldr	r3, [r0, #8]
 329              		.loc 1 332 15 view .LVU100
 330 0004 43F48073 		orr	r3, r3, #256
 331 0008 8360     		str	r3, [r0, #8]
 332 000a 7047     		bx	lr
 333              	.L20:
 333:Drivers/STM32F10x_StdPeriph_Driver/src/stm32f10x_adc.c ****   }
 334:Drivers/STM32F10x_StdPeriph_Driver/src/stm32f10x_adc.c ****   else
 335:Drivers/STM32F10x_StdPeriph_Driver/src/stm32f10x_adc.c ****   {
 336:Drivers/STM32F10x_StdPeriph_Driver/src/stm32f10x_adc.c ****     /* Disable the selected ADC DMA request */
 337:Drivers/STM32F10x_StdPeriph_Driver/src/stm32f10x_adc.c ****     ADCx->CR2 &= CR2_DMA_Reset;
 334              		.loc 1 337 5 is_stmt 1 view .LVU101
 335              		.loc 1 337 9 is_stmt 0 view .LVU102
 336 000c 8368     		ldr	r3, [r0, #8]
 337              		.loc 1 337 15 view .LVU103
 338 000e 23F48073 		bic	r3, r3, #256
 339 0012 8360     		str	r3, [r0, #8]
 338:Drivers/STM32F10x_StdPeriph_Driver/src/stm32f10x_adc.c ****   }
 339:Drivers/STM32F10x_StdPeriph_Driver/src/stm32f10x_adc.c **** }
 340              		.loc 1 339 1 view .LVU104
 341 0014 7047     		bx	lr
 342              		.cfi_endproc
 343              	.LFE69:
ARM GAS  /tmp/ccJ7FcFp.s 			page 13


 345              		.section	.text.ADC_ITConfig,"ax",%progbits
 346              		.align	1
 347              		.global	ADC_ITConfig
 348              		.syntax unified
 349              		.thumb
 350              		.thumb_func
 352              	ADC_ITConfig:
 353              	.LVL30:
 354              	.LFB70:
 340:Drivers/STM32F10x_StdPeriph_Driver/src/stm32f10x_adc.c **** 
 341:Drivers/STM32F10x_StdPeriph_Driver/src/stm32f10x_adc.c **** /**
 342:Drivers/STM32F10x_StdPeriph_Driver/src/stm32f10x_adc.c ****   * @brief  Enables or disables the specified ADC interrupts.
 343:Drivers/STM32F10x_StdPeriph_Driver/src/stm32f10x_adc.c ****   * @param  ADCx: where x can be 1, 2 or 3 to select the ADC peripheral.
 344:Drivers/STM32F10x_StdPeriph_Driver/src/stm32f10x_adc.c ****   * @param  ADC_IT: specifies the ADC interrupt sources to be enabled or disabled. 
 345:Drivers/STM32F10x_StdPeriph_Driver/src/stm32f10x_adc.c ****   *   This parameter can be any combination of the following values:
 346:Drivers/STM32F10x_StdPeriph_Driver/src/stm32f10x_adc.c ****   *     @arg ADC_IT_EOC: End of conversion interrupt mask
 347:Drivers/STM32F10x_StdPeriph_Driver/src/stm32f10x_adc.c ****   *     @arg ADC_IT_AWD: Analog watchdog interrupt mask
 348:Drivers/STM32F10x_StdPeriph_Driver/src/stm32f10x_adc.c ****   *     @arg ADC_IT_JEOC: End of injected conversion interrupt mask
 349:Drivers/STM32F10x_StdPeriph_Driver/src/stm32f10x_adc.c ****   * @param  NewState: new state of the specified ADC interrupts.
 350:Drivers/STM32F10x_StdPeriph_Driver/src/stm32f10x_adc.c ****   *   This parameter can be: ENABLE or DISABLE.
 351:Drivers/STM32F10x_StdPeriph_Driver/src/stm32f10x_adc.c ****   * @retval None
 352:Drivers/STM32F10x_StdPeriph_Driver/src/stm32f10x_adc.c ****   */
 353:Drivers/STM32F10x_StdPeriph_Driver/src/stm32f10x_adc.c **** void ADC_ITConfig(ADC_TypeDef* ADCx, uint16_t ADC_IT, FunctionalState NewState)
 354:Drivers/STM32F10x_StdPeriph_Driver/src/stm32f10x_adc.c **** {
 355              		.loc 1 354 1 is_stmt 1 view -0
 356              		.cfi_startproc
 357              		@ args = 0, pretend = 0, frame = 0
 358              		@ frame_needed = 0, uses_anonymous_args = 0
 359              		@ link register save eliminated.
 355:Drivers/STM32F10x_StdPeriph_Driver/src/stm32f10x_adc.c ****   uint8_t itmask = 0;
 360              		.loc 1 355 3 view .LVU106
 356:Drivers/STM32F10x_StdPeriph_Driver/src/stm32f10x_adc.c ****   /* Check the parameters */
 357:Drivers/STM32F10x_StdPeriph_Driver/src/stm32f10x_adc.c ****   assert_param(IS_ADC_ALL_PERIPH(ADCx));
 361              		.loc 1 357 3 view .LVU107
 358:Drivers/STM32F10x_StdPeriph_Driver/src/stm32f10x_adc.c ****   assert_param(IS_FUNCTIONAL_STATE(NewState));
 362              		.loc 1 358 3 view .LVU108
 359:Drivers/STM32F10x_StdPeriph_Driver/src/stm32f10x_adc.c ****   assert_param(IS_ADC_IT(ADC_IT));
 363              		.loc 1 359 3 view .LVU109
 360:Drivers/STM32F10x_StdPeriph_Driver/src/stm32f10x_adc.c ****   /* Get the ADC IT index */
 361:Drivers/STM32F10x_StdPeriph_Driver/src/stm32f10x_adc.c ****   itmask = (uint8_t)ADC_IT;
 364              		.loc 1 361 3 view .LVU110
 362:Drivers/STM32F10x_StdPeriph_Driver/src/stm32f10x_adc.c ****   if (NewState != DISABLE)
 365              		.loc 1 362 3 view .LVU111
 366              		.loc 1 362 6 is_stmt 0 view .LVU112
 367 0000 22B1     		cbz	r2, .L23
 363:Drivers/STM32F10x_StdPeriph_Driver/src/stm32f10x_adc.c ****   {
 364:Drivers/STM32F10x_StdPeriph_Driver/src/stm32f10x_adc.c ****     /* Enable the selected ADC interrupts */
 365:Drivers/STM32F10x_StdPeriph_Driver/src/stm32f10x_adc.c ****     ADCx->CR1 |= itmask;
 368              		.loc 1 365 5 is_stmt 1 view .LVU113
 369              		.loc 1 365 9 is_stmt 0 view .LVU114
 370 0002 4368     		ldr	r3, [r0, #4]
 371              		.loc 1 365 15 view .LVU115
 372 0004 C9B2     		uxtb	r1, r1
 373              	.LVL31:
 374              		.loc 1 365 15 view .LVU116
 375 0006 1943     		orrs	r1, r1, r3
 376              	.LVL32:
ARM GAS  /tmp/ccJ7FcFp.s 			page 14


 377              		.loc 1 365 15 view .LVU117
 378 0008 4160     		str	r1, [r0, #4]
 379 000a 7047     		bx	lr
 380              	.LVL33:
 381              	.L23:
 366:Drivers/STM32F10x_StdPeriph_Driver/src/stm32f10x_adc.c ****   }
 367:Drivers/STM32F10x_StdPeriph_Driver/src/stm32f10x_adc.c ****   else
 368:Drivers/STM32F10x_StdPeriph_Driver/src/stm32f10x_adc.c ****   {
 369:Drivers/STM32F10x_StdPeriph_Driver/src/stm32f10x_adc.c ****     /* Disable the selected ADC interrupts */
 370:Drivers/STM32F10x_StdPeriph_Driver/src/stm32f10x_adc.c ****     ADCx->CR1 &= (~(uint32_t)itmask);
 382              		.loc 1 370 5 is_stmt 1 view .LVU118
 383              		.loc 1 370 9 is_stmt 0 view .LVU119
 384 000c 4368     		ldr	r3, [r0, #4]
 385              		.loc 1 370 20 view .LVU120
 386 000e C9B2     		uxtb	r1, r1
 387              	.LVL34:
 388              		.loc 1 370 15 view .LVU121
 389 0010 23EA0103 		bic	r3, r3, r1
 390 0014 4360     		str	r3, [r0, #4]
 371:Drivers/STM32F10x_StdPeriph_Driver/src/stm32f10x_adc.c ****   }
 372:Drivers/STM32F10x_StdPeriph_Driver/src/stm32f10x_adc.c **** }
 391              		.loc 1 372 1 view .LVU122
 392 0016 7047     		bx	lr
 393              		.cfi_endproc
 394              	.LFE70:
 396              		.section	.text.ADC_ResetCalibration,"ax",%progbits
 397              		.align	1
 398              		.global	ADC_ResetCalibration
 399              		.syntax unified
 400              		.thumb
 401              		.thumb_func
 403              	ADC_ResetCalibration:
 404              	.LVL35:
 405              	.LFB71:
 373:Drivers/STM32F10x_StdPeriph_Driver/src/stm32f10x_adc.c **** 
 374:Drivers/STM32F10x_StdPeriph_Driver/src/stm32f10x_adc.c **** /**
 375:Drivers/STM32F10x_StdPeriph_Driver/src/stm32f10x_adc.c ****   * @brief  Resets the selected ADC calibration registers.
 376:Drivers/STM32F10x_StdPeriph_Driver/src/stm32f10x_adc.c ****   * @param  ADCx: where x can be 1, 2 or 3 to select the ADC peripheral.
 377:Drivers/STM32F10x_StdPeriph_Driver/src/stm32f10x_adc.c ****   * @retval None
 378:Drivers/STM32F10x_StdPeriph_Driver/src/stm32f10x_adc.c ****   */
 379:Drivers/STM32F10x_StdPeriph_Driver/src/stm32f10x_adc.c **** void ADC_ResetCalibration(ADC_TypeDef* ADCx)
 380:Drivers/STM32F10x_StdPeriph_Driver/src/stm32f10x_adc.c **** {
 406              		.loc 1 380 1 is_stmt 1 view -0
 407              		.cfi_startproc
 408              		@ args = 0, pretend = 0, frame = 0
 409              		@ frame_needed = 0, uses_anonymous_args = 0
 410              		@ link register save eliminated.
 381:Drivers/STM32F10x_StdPeriph_Driver/src/stm32f10x_adc.c ****   /* Check the parameters */
 382:Drivers/STM32F10x_StdPeriph_Driver/src/stm32f10x_adc.c ****   assert_param(IS_ADC_ALL_PERIPH(ADCx));
 411              		.loc 1 382 3 view .LVU124
 383:Drivers/STM32F10x_StdPeriph_Driver/src/stm32f10x_adc.c ****   /* Resets the selected ADC calibration registers */  
 384:Drivers/STM32F10x_StdPeriph_Driver/src/stm32f10x_adc.c ****   ADCx->CR2 |= CR2_RSTCAL_Set;
 412              		.loc 1 384 3 view .LVU125
 413              		.loc 1 384 7 is_stmt 0 view .LVU126
 414 0000 8368     		ldr	r3, [r0, #8]
 415              		.loc 1 384 13 view .LVU127
 416 0002 43F00803 		orr	r3, r3, #8
ARM GAS  /tmp/ccJ7FcFp.s 			page 15


 417 0006 8360     		str	r3, [r0, #8]
 385:Drivers/STM32F10x_StdPeriph_Driver/src/stm32f10x_adc.c **** }
 418              		.loc 1 385 1 view .LVU128
 419 0008 7047     		bx	lr
 420              		.cfi_endproc
 421              	.LFE71:
 423              		.section	.text.ADC_GetResetCalibrationStatus,"ax",%progbits
 424              		.align	1
 425              		.global	ADC_GetResetCalibrationStatus
 426              		.syntax unified
 427              		.thumb
 428              		.thumb_func
 430              	ADC_GetResetCalibrationStatus:
 431              	.LVL36:
 432              	.LFB72:
 386:Drivers/STM32F10x_StdPeriph_Driver/src/stm32f10x_adc.c **** 
 387:Drivers/STM32F10x_StdPeriph_Driver/src/stm32f10x_adc.c **** /**
 388:Drivers/STM32F10x_StdPeriph_Driver/src/stm32f10x_adc.c ****   * @brief  Gets the selected ADC reset calibration registers status.
 389:Drivers/STM32F10x_StdPeriph_Driver/src/stm32f10x_adc.c ****   * @param  ADCx: where x can be 1, 2 or 3 to select the ADC peripheral.
 390:Drivers/STM32F10x_StdPeriph_Driver/src/stm32f10x_adc.c ****   * @retval The new state of ADC reset calibration registers (SET or RESET).
 391:Drivers/STM32F10x_StdPeriph_Driver/src/stm32f10x_adc.c ****   */
 392:Drivers/STM32F10x_StdPeriph_Driver/src/stm32f10x_adc.c **** FlagStatus ADC_GetResetCalibrationStatus(ADC_TypeDef* ADCx)
 393:Drivers/STM32F10x_StdPeriph_Driver/src/stm32f10x_adc.c **** {
 433              		.loc 1 393 1 is_stmt 1 view -0
 434              		.cfi_startproc
 435              		@ args = 0, pretend = 0, frame = 0
 436              		@ frame_needed = 0, uses_anonymous_args = 0
 437              		@ link register save eliminated.
 394:Drivers/STM32F10x_StdPeriph_Driver/src/stm32f10x_adc.c ****   FlagStatus bitstatus = RESET;
 438              		.loc 1 394 3 view .LVU130
 395:Drivers/STM32F10x_StdPeriph_Driver/src/stm32f10x_adc.c ****   /* Check the parameters */
 396:Drivers/STM32F10x_StdPeriph_Driver/src/stm32f10x_adc.c ****   assert_param(IS_ADC_ALL_PERIPH(ADCx));
 439              		.loc 1 396 3 view .LVU131
 397:Drivers/STM32F10x_StdPeriph_Driver/src/stm32f10x_adc.c ****   /* Check the status of RSTCAL bit */
 398:Drivers/STM32F10x_StdPeriph_Driver/src/stm32f10x_adc.c ****   if ((ADCx->CR2 & CR2_RSTCAL_Set) != (uint32_t)RESET)
 440              		.loc 1 398 3 view .LVU132
 441              		.loc 1 398 12 is_stmt 0 view .LVU133
 442 0000 8368     		ldr	r3, [r0, #8]
 443              		.loc 1 398 6 view .LVU134
 444 0002 13F0080F 		tst	r3, #8
 445 0006 01D0     		beq	.L28
 399:Drivers/STM32F10x_StdPeriph_Driver/src/stm32f10x_adc.c ****   {
 400:Drivers/STM32F10x_StdPeriph_Driver/src/stm32f10x_adc.c ****     /* RSTCAL bit is set */
 401:Drivers/STM32F10x_StdPeriph_Driver/src/stm32f10x_adc.c ****     bitstatus = SET;
 446              		.loc 1 401 15 view .LVU135
 447 0008 0120     		movs	r0, #1
 448              	.LVL37:
 449              		.loc 1 401 15 view .LVU136
 450 000a 7047     		bx	lr
 451              	.LVL38:
 452              	.L28:
 402:Drivers/STM32F10x_StdPeriph_Driver/src/stm32f10x_adc.c ****   }
 403:Drivers/STM32F10x_StdPeriph_Driver/src/stm32f10x_adc.c ****   else
 404:Drivers/STM32F10x_StdPeriph_Driver/src/stm32f10x_adc.c ****   {
 405:Drivers/STM32F10x_StdPeriph_Driver/src/stm32f10x_adc.c ****     /* RSTCAL bit is reset */
 406:Drivers/STM32F10x_StdPeriph_Driver/src/stm32f10x_adc.c ****     bitstatus = RESET;
 453              		.loc 1 406 15 view .LVU137
ARM GAS  /tmp/ccJ7FcFp.s 			page 16


 454 000c 0020     		movs	r0, #0
 455              	.LVL39:
 407:Drivers/STM32F10x_StdPeriph_Driver/src/stm32f10x_adc.c ****   }
 408:Drivers/STM32F10x_StdPeriph_Driver/src/stm32f10x_adc.c ****   /* Return the RSTCAL bit status */
 409:Drivers/STM32F10x_StdPeriph_Driver/src/stm32f10x_adc.c ****   return  bitstatus;
 456              		.loc 1 409 3 is_stmt 1 view .LVU138
 410:Drivers/STM32F10x_StdPeriph_Driver/src/stm32f10x_adc.c **** }
 457              		.loc 1 410 1 is_stmt 0 view .LVU139
 458 000e 7047     		bx	lr
 459              		.cfi_endproc
 460              	.LFE72:
 462              		.section	.text.ADC_StartCalibration,"ax",%progbits
 463              		.align	1
 464              		.global	ADC_StartCalibration
 465              		.syntax unified
 466              		.thumb
 467              		.thumb_func
 469              	ADC_StartCalibration:
 470              	.LVL40:
 471              	.LFB73:
 411:Drivers/STM32F10x_StdPeriph_Driver/src/stm32f10x_adc.c **** 
 412:Drivers/STM32F10x_StdPeriph_Driver/src/stm32f10x_adc.c **** /**
 413:Drivers/STM32F10x_StdPeriph_Driver/src/stm32f10x_adc.c ****   * @brief  Starts the selected ADC calibration process.
 414:Drivers/STM32F10x_StdPeriph_Driver/src/stm32f10x_adc.c ****   * @param  ADCx: where x can be 1, 2 or 3 to select the ADC peripheral.
 415:Drivers/STM32F10x_StdPeriph_Driver/src/stm32f10x_adc.c ****   * @retval None
 416:Drivers/STM32F10x_StdPeriph_Driver/src/stm32f10x_adc.c ****   */
 417:Drivers/STM32F10x_StdPeriph_Driver/src/stm32f10x_adc.c **** void ADC_StartCalibration(ADC_TypeDef* ADCx)
 418:Drivers/STM32F10x_StdPeriph_Driver/src/stm32f10x_adc.c **** {
 472              		.loc 1 418 1 is_stmt 1 view -0
 473              		.cfi_startproc
 474              		@ args = 0, pretend = 0, frame = 0
 475              		@ frame_needed = 0, uses_anonymous_args = 0
 476              		@ link register save eliminated.
 419:Drivers/STM32F10x_StdPeriph_Driver/src/stm32f10x_adc.c ****   /* Check the parameters */
 420:Drivers/STM32F10x_StdPeriph_Driver/src/stm32f10x_adc.c ****   assert_param(IS_ADC_ALL_PERIPH(ADCx));
 477              		.loc 1 420 3 view .LVU141
 421:Drivers/STM32F10x_StdPeriph_Driver/src/stm32f10x_adc.c ****   /* Enable the selected ADC calibration process */  
 422:Drivers/STM32F10x_StdPeriph_Driver/src/stm32f10x_adc.c ****   ADCx->CR2 |= CR2_CAL_Set;
 478              		.loc 1 422 3 view .LVU142
 479              		.loc 1 422 7 is_stmt 0 view .LVU143
 480 0000 8368     		ldr	r3, [r0, #8]
 481              		.loc 1 422 13 view .LVU144
 482 0002 43F00403 		orr	r3, r3, #4
 483 0006 8360     		str	r3, [r0, #8]
 423:Drivers/STM32F10x_StdPeriph_Driver/src/stm32f10x_adc.c **** }
 484              		.loc 1 423 1 view .LVU145
 485 0008 7047     		bx	lr
 486              		.cfi_endproc
 487              	.LFE73:
 489              		.section	.text.ADC_GetCalibrationStatus,"ax",%progbits
 490              		.align	1
 491              		.global	ADC_GetCalibrationStatus
 492              		.syntax unified
 493              		.thumb
 494              		.thumb_func
 496              	ADC_GetCalibrationStatus:
 497              	.LVL41:
ARM GAS  /tmp/ccJ7FcFp.s 			page 17


 498              	.LFB74:
 424:Drivers/STM32F10x_StdPeriph_Driver/src/stm32f10x_adc.c **** 
 425:Drivers/STM32F10x_StdPeriph_Driver/src/stm32f10x_adc.c **** /**
 426:Drivers/STM32F10x_StdPeriph_Driver/src/stm32f10x_adc.c ****   * @brief  Gets the selected ADC calibration status.
 427:Drivers/STM32F10x_StdPeriph_Driver/src/stm32f10x_adc.c ****   * @param  ADCx: where x can be 1, 2 or 3 to select the ADC peripheral.
 428:Drivers/STM32F10x_StdPeriph_Driver/src/stm32f10x_adc.c ****   * @retval The new state of ADC calibration (SET or RESET).
 429:Drivers/STM32F10x_StdPeriph_Driver/src/stm32f10x_adc.c ****   */
 430:Drivers/STM32F10x_StdPeriph_Driver/src/stm32f10x_adc.c **** FlagStatus ADC_GetCalibrationStatus(ADC_TypeDef* ADCx)
 431:Drivers/STM32F10x_StdPeriph_Driver/src/stm32f10x_adc.c **** {
 499              		.loc 1 431 1 is_stmt 1 view -0
 500              		.cfi_startproc
 501              		@ args = 0, pretend = 0, frame = 0
 502              		@ frame_needed = 0, uses_anonymous_args = 0
 503              		@ link register save eliminated.
 432:Drivers/STM32F10x_StdPeriph_Driver/src/stm32f10x_adc.c ****   FlagStatus bitstatus = RESET;
 504              		.loc 1 432 3 view .LVU147
 433:Drivers/STM32F10x_StdPeriph_Driver/src/stm32f10x_adc.c ****   /* Check the parameters */
 434:Drivers/STM32F10x_StdPeriph_Driver/src/stm32f10x_adc.c ****   assert_param(IS_ADC_ALL_PERIPH(ADCx));
 505              		.loc 1 434 3 view .LVU148
 435:Drivers/STM32F10x_StdPeriph_Driver/src/stm32f10x_adc.c ****   /* Check the status of CAL bit */
 436:Drivers/STM32F10x_StdPeriph_Driver/src/stm32f10x_adc.c ****   if ((ADCx->CR2 & CR2_CAL_Set) != (uint32_t)RESET)
 506              		.loc 1 436 3 view .LVU149
 507              		.loc 1 436 12 is_stmt 0 view .LVU150
 508 0000 8368     		ldr	r3, [r0, #8]
 509              		.loc 1 436 6 view .LVU151
 510 0002 13F0040F 		tst	r3, #4
 511 0006 01D0     		beq	.L32
 437:Drivers/STM32F10x_StdPeriph_Driver/src/stm32f10x_adc.c ****   {
 438:Drivers/STM32F10x_StdPeriph_Driver/src/stm32f10x_adc.c ****     /* CAL bit is set: calibration on going */
 439:Drivers/STM32F10x_StdPeriph_Driver/src/stm32f10x_adc.c ****     bitstatus = SET;
 512              		.loc 1 439 15 view .LVU152
 513 0008 0120     		movs	r0, #1
 514              	.LVL42:
 515              		.loc 1 439 15 view .LVU153
 516 000a 7047     		bx	lr
 517              	.LVL43:
 518              	.L32:
 440:Drivers/STM32F10x_StdPeriph_Driver/src/stm32f10x_adc.c ****   }
 441:Drivers/STM32F10x_StdPeriph_Driver/src/stm32f10x_adc.c ****   else
 442:Drivers/STM32F10x_StdPeriph_Driver/src/stm32f10x_adc.c ****   {
 443:Drivers/STM32F10x_StdPeriph_Driver/src/stm32f10x_adc.c ****     /* CAL bit is reset: end of calibration */
 444:Drivers/STM32F10x_StdPeriph_Driver/src/stm32f10x_adc.c ****     bitstatus = RESET;
 519              		.loc 1 444 15 view .LVU154
 520 000c 0020     		movs	r0, #0
 521              	.LVL44:
 445:Drivers/STM32F10x_StdPeriph_Driver/src/stm32f10x_adc.c ****   }
 446:Drivers/STM32F10x_StdPeriph_Driver/src/stm32f10x_adc.c ****   /* Return the CAL bit status */
 447:Drivers/STM32F10x_StdPeriph_Driver/src/stm32f10x_adc.c ****   return  bitstatus;
 522              		.loc 1 447 3 is_stmt 1 view .LVU155
 448:Drivers/STM32F10x_StdPeriph_Driver/src/stm32f10x_adc.c **** }
 523              		.loc 1 448 1 is_stmt 0 view .LVU156
 524 000e 7047     		bx	lr
 525              		.cfi_endproc
 526              	.LFE74:
 528              		.section	.text.ADC_SoftwareStartConvCmd,"ax",%progbits
 529              		.align	1
 530              		.global	ADC_SoftwareStartConvCmd
ARM GAS  /tmp/ccJ7FcFp.s 			page 18


 531              		.syntax unified
 532              		.thumb
 533              		.thumb_func
 535              	ADC_SoftwareStartConvCmd:
 536              	.LVL45:
 537              	.LFB75:
 449:Drivers/STM32F10x_StdPeriph_Driver/src/stm32f10x_adc.c **** 
 450:Drivers/STM32F10x_StdPeriph_Driver/src/stm32f10x_adc.c **** /**
 451:Drivers/STM32F10x_StdPeriph_Driver/src/stm32f10x_adc.c ****   * @brief  Enables or disables the selected ADC software start conversion .
 452:Drivers/STM32F10x_StdPeriph_Driver/src/stm32f10x_adc.c ****   * @param  ADCx: where x can be 1, 2 or 3 to select the ADC peripheral.
 453:Drivers/STM32F10x_StdPeriph_Driver/src/stm32f10x_adc.c ****   * @param  NewState: new state of the selected ADC software start conversion.
 454:Drivers/STM32F10x_StdPeriph_Driver/src/stm32f10x_adc.c ****   *   This parameter can be: ENABLE or DISABLE.
 455:Drivers/STM32F10x_StdPeriph_Driver/src/stm32f10x_adc.c ****   * @retval None
 456:Drivers/STM32F10x_StdPeriph_Driver/src/stm32f10x_adc.c ****   */
 457:Drivers/STM32F10x_StdPeriph_Driver/src/stm32f10x_adc.c **** void ADC_SoftwareStartConvCmd(ADC_TypeDef* ADCx, FunctionalState NewState)
 458:Drivers/STM32F10x_StdPeriph_Driver/src/stm32f10x_adc.c **** {
 538              		.loc 1 458 1 is_stmt 1 view -0
 539              		.cfi_startproc
 540              		@ args = 0, pretend = 0, frame = 0
 541              		@ frame_needed = 0, uses_anonymous_args = 0
 542              		@ link register save eliminated.
 459:Drivers/STM32F10x_StdPeriph_Driver/src/stm32f10x_adc.c ****   /* Check the parameters */
 460:Drivers/STM32F10x_StdPeriph_Driver/src/stm32f10x_adc.c ****   assert_param(IS_ADC_ALL_PERIPH(ADCx));
 543              		.loc 1 460 3 view .LVU158
 461:Drivers/STM32F10x_StdPeriph_Driver/src/stm32f10x_adc.c ****   assert_param(IS_FUNCTIONAL_STATE(NewState));
 544              		.loc 1 461 3 view .LVU159
 462:Drivers/STM32F10x_StdPeriph_Driver/src/stm32f10x_adc.c ****   if (NewState != DISABLE)
 545              		.loc 1 462 3 view .LVU160
 546              		.loc 1 462 6 is_stmt 0 view .LVU161
 547 0000 21B1     		cbz	r1, .L34
 463:Drivers/STM32F10x_StdPeriph_Driver/src/stm32f10x_adc.c ****   {
 464:Drivers/STM32F10x_StdPeriph_Driver/src/stm32f10x_adc.c ****     /* Enable the selected ADC conversion on external event and start the selected
 465:Drivers/STM32F10x_StdPeriph_Driver/src/stm32f10x_adc.c ****        ADC conversion */
 466:Drivers/STM32F10x_StdPeriph_Driver/src/stm32f10x_adc.c ****     ADCx->CR2 |= CR2_EXTTRIG_SWSTART_Set;
 548              		.loc 1 466 5 is_stmt 1 view .LVU162
 549              		.loc 1 466 9 is_stmt 0 view .LVU163
 550 0002 8368     		ldr	r3, [r0, #8]
 551              		.loc 1 466 15 view .LVU164
 552 0004 43F4A003 		orr	r3, r3, #5242880
 553 0008 8360     		str	r3, [r0, #8]
 554 000a 7047     		bx	lr
 555              	.L34:
 467:Drivers/STM32F10x_StdPeriph_Driver/src/stm32f10x_adc.c ****   }
 468:Drivers/STM32F10x_StdPeriph_Driver/src/stm32f10x_adc.c ****   else
 469:Drivers/STM32F10x_StdPeriph_Driver/src/stm32f10x_adc.c ****   {
 470:Drivers/STM32F10x_StdPeriph_Driver/src/stm32f10x_adc.c ****     /* Disable the selected ADC conversion on external event and stop the selected
 471:Drivers/STM32F10x_StdPeriph_Driver/src/stm32f10x_adc.c ****        ADC conversion */
 472:Drivers/STM32F10x_StdPeriph_Driver/src/stm32f10x_adc.c ****     ADCx->CR2 &= CR2_EXTTRIG_SWSTART_Reset;
 556              		.loc 1 472 5 is_stmt 1 view .LVU165
 557              		.loc 1 472 9 is_stmt 0 view .LVU166
 558 000c 8368     		ldr	r3, [r0, #8]
 559              		.loc 1 472 15 view .LVU167
 560 000e 23F4A003 		bic	r3, r3, #5242880
 561 0012 8360     		str	r3, [r0, #8]
 473:Drivers/STM32F10x_StdPeriph_Driver/src/stm32f10x_adc.c ****   }
 474:Drivers/STM32F10x_StdPeriph_Driver/src/stm32f10x_adc.c **** }
 562              		.loc 1 474 1 view .LVU168
ARM GAS  /tmp/ccJ7FcFp.s 			page 19


 563 0014 7047     		bx	lr
 564              		.cfi_endproc
 565              	.LFE75:
 567              		.section	.text.ADC_GetSoftwareStartConvStatus,"ax",%progbits
 568              		.align	1
 569              		.global	ADC_GetSoftwareStartConvStatus
 570              		.syntax unified
 571              		.thumb
 572              		.thumb_func
 574              	ADC_GetSoftwareStartConvStatus:
 575              	.LVL46:
 576              	.LFB76:
 475:Drivers/STM32F10x_StdPeriph_Driver/src/stm32f10x_adc.c **** 
 476:Drivers/STM32F10x_StdPeriph_Driver/src/stm32f10x_adc.c **** /**
 477:Drivers/STM32F10x_StdPeriph_Driver/src/stm32f10x_adc.c ****   * @brief  Gets the selected ADC Software start conversion Status.
 478:Drivers/STM32F10x_StdPeriph_Driver/src/stm32f10x_adc.c ****   * @param  ADCx: where x can be 1, 2 or 3 to select the ADC peripheral.
 479:Drivers/STM32F10x_StdPeriph_Driver/src/stm32f10x_adc.c ****   * @retval The new state of ADC software start conversion (SET or RESET).
 480:Drivers/STM32F10x_StdPeriph_Driver/src/stm32f10x_adc.c ****   */
 481:Drivers/STM32F10x_StdPeriph_Driver/src/stm32f10x_adc.c **** FlagStatus ADC_GetSoftwareStartConvStatus(ADC_TypeDef* ADCx)
 482:Drivers/STM32F10x_StdPeriph_Driver/src/stm32f10x_adc.c **** {
 577              		.loc 1 482 1 is_stmt 1 view -0
 578              		.cfi_startproc
 579              		@ args = 0, pretend = 0, frame = 0
 580              		@ frame_needed = 0, uses_anonymous_args = 0
 581              		@ link register save eliminated.
 483:Drivers/STM32F10x_StdPeriph_Driver/src/stm32f10x_adc.c ****   FlagStatus bitstatus = RESET;
 582              		.loc 1 483 3 view .LVU170
 484:Drivers/STM32F10x_StdPeriph_Driver/src/stm32f10x_adc.c ****   /* Check the parameters */
 485:Drivers/STM32F10x_StdPeriph_Driver/src/stm32f10x_adc.c ****   assert_param(IS_ADC_ALL_PERIPH(ADCx));
 583              		.loc 1 485 3 view .LVU171
 486:Drivers/STM32F10x_StdPeriph_Driver/src/stm32f10x_adc.c ****   /* Check the status of SWSTART bit */
 487:Drivers/STM32F10x_StdPeriph_Driver/src/stm32f10x_adc.c ****   if ((ADCx->CR2 & CR2_SWSTART_Set) != (uint32_t)RESET)
 584              		.loc 1 487 3 view .LVU172
 585              		.loc 1 487 12 is_stmt 0 view .LVU173
 586 0000 8368     		ldr	r3, [r0, #8]
 587              		.loc 1 487 6 view .LVU174
 588 0002 13F4800F 		tst	r3, #4194304
 589 0006 01D0     		beq	.L38
 488:Drivers/STM32F10x_StdPeriph_Driver/src/stm32f10x_adc.c ****   {
 489:Drivers/STM32F10x_StdPeriph_Driver/src/stm32f10x_adc.c ****     /* SWSTART bit is set */
 490:Drivers/STM32F10x_StdPeriph_Driver/src/stm32f10x_adc.c ****     bitstatus = SET;
 590              		.loc 1 490 15 view .LVU175
 591 0008 0120     		movs	r0, #1
 592              	.LVL47:
 593              		.loc 1 490 15 view .LVU176
 594 000a 7047     		bx	lr
 595              	.LVL48:
 596              	.L38:
 491:Drivers/STM32F10x_StdPeriph_Driver/src/stm32f10x_adc.c ****   }
 492:Drivers/STM32F10x_StdPeriph_Driver/src/stm32f10x_adc.c ****   else
 493:Drivers/STM32F10x_StdPeriph_Driver/src/stm32f10x_adc.c ****   {
 494:Drivers/STM32F10x_StdPeriph_Driver/src/stm32f10x_adc.c ****     /* SWSTART bit is reset */
 495:Drivers/STM32F10x_StdPeriph_Driver/src/stm32f10x_adc.c ****     bitstatus = RESET;
 597              		.loc 1 495 15 view .LVU177
 598 000c 0020     		movs	r0, #0
 599              	.LVL49:
 496:Drivers/STM32F10x_StdPeriph_Driver/src/stm32f10x_adc.c ****   }
ARM GAS  /tmp/ccJ7FcFp.s 			page 20


 497:Drivers/STM32F10x_StdPeriph_Driver/src/stm32f10x_adc.c ****   /* Return the SWSTART bit status */
 498:Drivers/STM32F10x_StdPeriph_Driver/src/stm32f10x_adc.c ****   return  bitstatus;
 600              		.loc 1 498 3 is_stmt 1 view .LVU178
 499:Drivers/STM32F10x_StdPeriph_Driver/src/stm32f10x_adc.c **** }
 601              		.loc 1 499 1 is_stmt 0 view .LVU179
 602 000e 7047     		bx	lr
 603              		.cfi_endproc
 604              	.LFE76:
 606              		.section	.text.ADC_DiscModeChannelCountConfig,"ax",%progbits
 607              		.align	1
 608              		.global	ADC_DiscModeChannelCountConfig
 609              		.syntax unified
 610              		.thumb
 611              		.thumb_func
 613              	ADC_DiscModeChannelCountConfig:
 614              	.LVL50:
 615              	.LFB77:
 500:Drivers/STM32F10x_StdPeriph_Driver/src/stm32f10x_adc.c **** 
 501:Drivers/STM32F10x_StdPeriph_Driver/src/stm32f10x_adc.c **** /**
 502:Drivers/STM32F10x_StdPeriph_Driver/src/stm32f10x_adc.c ****   * @brief  Configures the discontinuous mode for the selected ADC regular
 503:Drivers/STM32F10x_StdPeriph_Driver/src/stm32f10x_adc.c ****   *         group channel.
 504:Drivers/STM32F10x_StdPeriph_Driver/src/stm32f10x_adc.c ****   * @param  ADCx: where x can be 1, 2 or 3 to select the ADC peripheral.
 505:Drivers/STM32F10x_StdPeriph_Driver/src/stm32f10x_adc.c ****   * @param  Number: specifies the discontinuous mode regular channel
 506:Drivers/STM32F10x_StdPeriph_Driver/src/stm32f10x_adc.c ****   *         count value. This number must be between 1 and 8.
 507:Drivers/STM32F10x_StdPeriph_Driver/src/stm32f10x_adc.c ****   * @retval None
 508:Drivers/STM32F10x_StdPeriph_Driver/src/stm32f10x_adc.c ****   */
 509:Drivers/STM32F10x_StdPeriph_Driver/src/stm32f10x_adc.c **** void ADC_DiscModeChannelCountConfig(ADC_TypeDef* ADCx, uint8_t Number)
 510:Drivers/STM32F10x_StdPeriph_Driver/src/stm32f10x_adc.c **** {
 616              		.loc 1 510 1 is_stmt 1 view -0
 617              		.cfi_startproc
 618              		@ args = 0, pretend = 0, frame = 0
 619              		@ frame_needed = 0, uses_anonymous_args = 0
 620              		@ link register save eliminated.
 511:Drivers/STM32F10x_StdPeriph_Driver/src/stm32f10x_adc.c ****   uint32_t tmpreg1 = 0;
 621              		.loc 1 511 3 view .LVU181
 512:Drivers/STM32F10x_StdPeriph_Driver/src/stm32f10x_adc.c ****   uint32_t tmpreg2 = 0;
 622              		.loc 1 512 3 view .LVU182
 513:Drivers/STM32F10x_StdPeriph_Driver/src/stm32f10x_adc.c ****   /* Check the parameters */
 514:Drivers/STM32F10x_StdPeriph_Driver/src/stm32f10x_adc.c ****   assert_param(IS_ADC_ALL_PERIPH(ADCx));
 623              		.loc 1 514 3 view .LVU183
 515:Drivers/STM32F10x_StdPeriph_Driver/src/stm32f10x_adc.c ****   assert_param(IS_ADC_REGULAR_DISC_NUMBER(Number));
 624              		.loc 1 515 3 view .LVU184
 516:Drivers/STM32F10x_StdPeriph_Driver/src/stm32f10x_adc.c ****   /* Get the old register value */
 517:Drivers/STM32F10x_StdPeriph_Driver/src/stm32f10x_adc.c ****   tmpreg1 = ADCx->CR1;
 625              		.loc 1 517 3 view .LVU185
 626              		.loc 1 517 11 is_stmt 0 view .LVU186
 627 0000 4368     		ldr	r3, [r0, #4]
 628              	.LVL51:
 518:Drivers/STM32F10x_StdPeriph_Driver/src/stm32f10x_adc.c ****   /* Clear the old discontinuous mode channel count */
 519:Drivers/STM32F10x_StdPeriph_Driver/src/stm32f10x_adc.c ****   tmpreg1 &= CR1_DISCNUM_Reset;
 629              		.loc 1 519 3 is_stmt 1 view .LVU187
 630              		.loc 1 519 11 is_stmt 0 view .LVU188
 631 0002 23F46043 		bic	r3, r3, #57344
 632              	.LVL52:
 520:Drivers/STM32F10x_StdPeriph_Driver/src/stm32f10x_adc.c ****   /* Set the discontinuous mode channel count */
 521:Drivers/STM32F10x_StdPeriph_Driver/src/stm32f10x_adc.c ****   tmpreg2 = Number - 1;
 633              		.loc 1 521 3 is_stmt 1 view .LVU189
ARM GAS  /tmp/ccJ7FcFp.s 			page 21


 634              		.loc 1 521 20 is_stmt 0 view .LVU190
 635 0006 0139     		subs	r1, r1, #1
 636              	.LVL53:
 522:Drivers/STM32F10x_StdPeriph_Driver/src/stm32f10x_adc.c ****   tmpreg1 |= tmpreg2 << 13;
 637              		.loc 1 522 3 is_stmt 1 view .LVU191
 638              		.loc 1 522 11 is_stmt 0 view .LVU192
 639 0008 43EA4133 		orr	r3, r3, r1, lsl #13
 640              	.LVL54:
 523:Drivers/STM32F10x_StdPeriph_Driver/src/stm32f10x_adc.c ****   /* Store the new register value */
 524:Drivers/STM32F10x_StdPeriph_Driver/src/stm32f10x_adc.c ****   ADCx->CR1 = tmpreg1;
 641              		.loc 1 524 3 is_stmt 1 view .LVU193
 642              		.loc 1 524 13 is_stmt 0 view .LVU194
 643 000c 4360     		str	r3, [r0, #4]
 525:Drivers/STM32F10x_StdPeriph_Driver/src/stm32f10x_adc.c **** }
 644              		.loc 1 525 1 view .LVU195
 645 000e 7047     		bx	lr
 646              		.cfi_endproc
 647              	.LFE77:
 649              		.section	.text.ADC_DiscModeCmd,"ax",%progbits
 650              		.align	1
 651              		.global	ADC_DiscModeCmd
 652              		.syntax unified
 653              		.thumb
 654              		.thumb_func
 656              	ADC_DiscModeCmd:
 657              	.LVL55:
 658              	.LFB78:
 526:Drivers/STM32F10x_StdPeriph_Driver/src/stm32f10x_adc.c **** 
 527:Drivers/STM32F10x_StdPeriph_Driver/src/stm32f10x_adc.c **** /**
 528:Drivers/STM32F10x_StdPeriph_Driver/src/stm32f10x_adc.c ****   * @brief  Enables or disables the discontinuous mode on regular group
 529:Drivers/STM32F10x_StdPeriph_Driver/src/stm32f10x_adc.c ****   *         channel for the specified ADC
 530:Drivers/STM32F10x_StdPeriph_Driver/src/stm32f10x_adc.c ****   * @param  ADCx: where x can be 1, 2 or 3 to select the ADC peripheral.
 531:Drivers/STM32F10x_StdPeriph_Driver/src/stm32f10x_adc.c ****   * @param  NewState: new state of the selected ADC discontinuous mode
 532:Drivers/STM32F10x_StdPeriph_Driver/src/stm32f10x_adc.c ****   *         on regular group channel.
 533:Drivers/STM32F10x_StdPeriph_Driver/src/stm32f10x_adc.c ****   *         This parameter can be: ENABLE or DISABLE.
 534:Drivers/STM32F10x_StdPeriph_Driver/src/stm32f10x_adc.c ****   * @retval None
 535:Drivers/STM32F10x_StdPeriph_Driver/src/stm32f10x_adc.c ****   */
 536:Drivers/STM32F10x_StdPeriph_Driver/src/stm32f10x_adc.c **** void ADC_DiscModeCmd(ADC_TypeDef* ADCx, FunctionalState NewState)
 537:Drivers/STM32F10x_StdPeriph_Driver/src/stm32f10x_adc.c **** {
 659              		.loc 1 537 1 is_stmt 1 view -0
 660              		.cfi_startproc
 661              		@ args = 0, pretend = 0, frame = 0
 662              		@ frame_needed = 0, uses_anonymous_args = 0
 663              		@ link register save eliminated.
 538:Drivers/STM32F10x_StdPeriph_Driver/src/stm32f10x_adc.c ****   /* Check the parameters */
 539:Drivers/STM32F10x_StdPeriph_Driver/src/stm32f10x_adc.c ****   assert_param(IS_ADC_ALL_PERIPH(ADCx));
 664              		.loc 1 539 3 view .LVU197
 540:Drivers/STM32F10x_StdPeriph_Driver/src/stm32f10x_adc.c ****   assert_param(IS_FUNCTIONAL_STATE(NewState));
 665              		.loc 1 540 3 view .LVU198
 541:Drivers/STM32F10x_StdPeriph_Driver/src/stm32f10x_adc.c ****   if (NewState != DISABLE)
 666              		.loc 1 541 3 view .LVU199
 667              		.loc 1 541 6 is_stmt 0 view .LVU200
 668 0000 21B1     		cbz	r1, .L41
 542:Drivers/STM32F10x_StdPeriph_Driver/src/stm32f10x_adc.c ****   {
 543:Drivers/STM32F10x_StdPeriph_Driver/src/stm32f10x_adc.c ****     /* Enable the selected ADC regular discontinuous mode */
 544:Drivers/STM32F10x_StdPeriph_Driver/src/stm32f10x_adc.c ****     ADCx->CR1 |= CR1_DISCEN_Set;
 669              		.loc 1 544 5 is_stmt 1 view .LVU201
ARM GAS  /tmp/ccJ7FcFp.s 			page 22


 670              		.loc 1 544 9 is_stmt 0 view .LVU202
 671 0002 4368     		ldr	r3, [r0, #4]
 672              		.loc 1 544 15 view .LVU203
 673 0004 43F40063 		orr	r3, r3, #2048
 674 0008 4360     		str	r3, [r0, #4]
 675 000a 7047     		bx	lr
 676              	.L41:
 545:Drivers/STM32F10x_StdPeriph_Driver/src/stm32f10x_adc.c ****   }
 546:Drivers/STM32F10x_StdPeriph_Driver/src/stm32f10x_adc.c ****   else
 547:Drivers/STM32F10x_StdPeriph_Driver/src/stm32f10x_adc.c ****   {
 548:Drivers/STM32F10x_StdPeriph_Driver/src/stm32f10x_adc.c ****     /* Disable the selected ADC regular discontinuous mode */
 549:Drivers/STM32F10x_StdPeriph_Driver/src/stm32f10x_adc.c ****     ADCx->CR1 &= CR1_DISCEN_Reset;
 677              		.loc 1 549 5 is_stmt 1 view .LVU204
 678              		.loc 1 549 9 is_stmt 0 view .LVU205
 679 000c 4368     		ldr	r3, [r0, #4]
 680              		.loc 1 549 15 view .LVU206
 681 000e 23F40063 		bic	r3, r3, #2048
 682 0012 4360     		str	r3, [r0, #4]
 550:Drivers/STM32F10x_StdPeriph_Driver/src/stm32f10x_adc.c ****   }
 551:Drivers/STM32F10x_StdPeriph_Driver/src/stm32f10x_adc.c **** }
 683              		.loc 1 551 1 view .LVU207
 684 0014 7047     		bx	lr
 685              		.cfi_endproc
 686              	.LFE78:
 688              		.section	.text.ADC_RegularChannelConfig,"ax",%progbits
 689              		.align	1
 690              		.global	ADC_RegularChannelConfig
 691              		.syntax unified
 692              		.thumb
 693              		.thumb_func
 695              	ADC_RegularChannelConfig:
 696              	.LVL56:
 697              	.LFB79:
 552:Drivers/STM32F10x_StdPeriph_Driver/src/stm32f10x_adc.c **** 
 553:Drivers/STM32F10x_StdPeriph_Driver/src/stm32f10x_adc.c **** /**
 554:Drivers/STM32F10x_StdPeriph_Driver/src/stm32f10x_adc.c ****   * @brief  Configures for the selected ADC regular channel its corresponding
 555:Drivers/STM32F10x_StdPeriph_Driver/src/stm32f10x_adc.c ****   *         rank in the sequencer and its sample time.
 556:Drivers/STM32F10x_StdPeriph_Driver/src/stm32f10x_adc.c ****   * @param  ADCx: where x can be 1, 2 or 3 to select the ADC peripheral.
 557:Drivers/STM32F10x_StdPeriph_Driver/src/stm32f10x_adc.c ****   * @param  ADC_Channel: the ADC channel to configure. 
 558:Drivers/STM32F10x_StdPeriph_Driver/src/stm32f10x_adc.c ****   *   This parameter can be one of the following values:
 559:Drivers/STM32F10x_StdPeriph_Driver/src/stm32f10x_adc.c ****   *     @arg ADC_Channel_0: ADC Channel0 selected
 560:Drivers/STM32F10x_StdPeriph_Driver/src/stm32f10x_adc.c ****   *     @arg ADC_Channel_1: ADC Channel1 selected
 561:Drivers/STM32F10x_StdPeriph_Driver/src/stm32f10x_adc.c ****   *     @arg ADC_Channel_2: ADC Channel2 selected
 562:Drivers/STM32F10x_StdPeriph_Driver/src/stm32f10x_adc.c ****   *     @arg ADC_Channel_3: ADC Channel3 selected
 563:Drivers/STM32F10x_StdPeriph_Driver/src/stm32f10x_adc.c ****   *     @arg ADC_Channel_4: ADC Channel4 selected
 564:Drivers/STM32F10x_StdPeriph_Driver/src/stm32f10x_adc.c ****   *     @arg ADC_Channel_5: ADC Channel5 selected
 565:Drivers/STM32F10x_StdPeriph_Driver/src/stm32f10x_adc.c ****   *     @arg ADC_Channel_6: ADC Channel6 selected
 566:Drivers/STM32F10x_StdPeriph_Driver/src/stm32f10x_adc.c ****   *     @arg ADC_Channel_7: ADC Channel7 selected
 567:Drivers/STM32F10x_StdPeriph_Driver/src/stm32f10x_adc.c ****   *     @arg ADC_Channel_8: ADC Channel8 selected
 568:Drivers/STM32F10x_StdPeriph_Driver/src/stm32f10x_adc.c ****   *     @arg ADC_Channel_9: ADC Channel9 selected
 569:Drivers/STM32F10x_StdPeriph_Driver/src/stm32f10x_adc.c ****   *     @arg ADC_Channel_10: ADC Channel10 selected
 570:Drivers/STM32F10x_StdPeriph_Driver/src/stm32f10x_adc.c ****   *     @arg ADC_Channel_11: ADC Channel11 selected
 571:Drivers/STM32F10x_StdPeriph_Driver/src/stm32f10x_adc.c ****   *     @arg ADC_Channel_12: ADC Channel12 selected
 572:Drivers/STM32F10x_StdPeriph_Driver/src/stm32f10x_adc.c ****   *     @arg ADC_Channel_13: ADC Channel13 selected
 573:Drivers/STM32F10x_StdPeriph_Driver/src/stm32f10x_adc.c ****   *     @arg ADC_Channel_14: ADC Channel14 selected
 574:Drivers/STM32F10x_StdPeriph_Driver/src/stm32f10x_adc.c ****   *     @arg ADC_Channel_15: ADC Channel15 selected
 575:Drivers/STM32F10x_StdPeriph_Driver/src/stm32f10x_adc.c ****   *     @arg ADC_Channel_16: ADC Channel16 selected
ARM GAS  /tmp/ccJ7FcFp.s 			page 23


 576:Drivers/STM32F10x_StdPeriph_Driver/src/stm32f10x_adc.c ****   *     @arg ADC_Channel_17: ADC Channel17 selected
 577:Drivers/STM32F10x_StdPeriph_Driver/src/stm32f10x_adc.c ****   * @param  Rank: The rank in the regular group sequencer. This parameter must be between 1 to 16.
 578:Drivers/STM32F10x_StdPeriph_Driver/src/stm32f10x_adc.c ****   * @param  ADC_SampleTime: The sample time value to be set for the selected channel. 
 579:Drivers/STM32F10x_StdPeriph_Driver/src/stm32f10x_adc.c ****   *   This parameter can be one of the following values:
 580:Drivers/STM32F10x_StdPeriph_Driver/src/stm32f10x_adc.c ****   *     @arg ADC_SampleTime_1Cycles5: Sample time equal to 1.5 cycles
 581:Drivers/STM32F10x_StdPeriph_Driver/src/stm32f10x_adc.c ****   *     @arg ADC_SampleTime_7Cycles5: Sample time equal to 7.5 cycles
 582:Drivers/STM32F10x_StdPeriph_Driver/src/stm32f10x_adc.c ****   *     @arg ADC_SampleTime_13Cycles5: Sample time equal to 13.5 cycles
 583:Drivers/STM32F10x_StdPeriph_Driver/src/stm32f10x_adc.c ****   *     @arg ADC_SampleTime_28Cycles5: Sample time equal to 28.5 cycles	
 584:Drivers/STM32F10x_StdPeriph_Driver/src/stm32f10x_adc.c ****   *     @arg ADC_SampleTime_41Cycles5: Sample time equal to 41.5 cycles	
 585:Drivers/STM32F10x_StdPeriph_Driver/src/stm32f10x_adc.c ****   *     @arg ADC_SampleTime_55Cycles5: Sample time equal to 55.5 cycles	
 586:Drivers/STM32F10x_StdPeriph_Driver/src/stm32f10x_adc.c ****   *     @arg ADC_SampleTime_71Cycles5: Sample time equal to 71.5 cycles	
 587:Drivers/STM32F10x_StdPeriph_Driver/src/stm32f10x_adc.c ****   *     @arg ADC_SampleTime_239Cycles5: Sample time equal to 239.5 cycles	
 588:Drivers/STM32F10x_StdPeriph_Driver/src/stm32f10x_adc.c ****   * @retval None
 589:Drivers/STM32F10x_StdPeriph_Driver/src/stm32f10x_adc.c ****   */
 590:Drivers/STM32F10x_StdPeriph_Driver/src/stm32f10x_adc.c **** void ADC_RegularChannelConfig(ADC_TypeDef* ADCx, uint8_t ADC_Channel, uint8_t Rank, uint8_t ADC_Sam
 591:Drivers/STM32F10x_StdPeriph_Driver/src/stm32f10x_adc.c **** {
 698              		.loc 1 591 1 is_stmt 1 view -0
 699              		.cfi_startproc
 700              		@ args = 0, pretend = 0, frame = 0
 701              		@ frame_needed = 0, uses_anonymous_args = 0
 702              		.loc 1 591 1 is_stmt 0 view .LVU209
 703 0000 10B5     		push	{r4, lr}
 704              	.LCFI3:
 705              		.cfi_def_cfa_offset 8
 706              		.cfi_offset 4, -8
 707              		.cfi_offset 14, -4
 708 0002 1C46     		mov	r4, r3
 592:Drivers/STM32F10x_StdPeriph_Driver/src/stm32f10x_adc.c ****   uint32_t tmpreg1 = 0, tmpreg2 = 0;
 709              		.loc 1 592 3 is_stmt 1 view .LVU210
 710              	.LVL57:
 593:Drivers/STM32F10x_StdPeriph_Driver/src/stm32f10x_adc.c ****   /* Check the parameters */
 594:Drivers/STM32F10x_StdPeriph_Driver/src/stm32f10x_adc.c ****   assert_param(IS_ADC_ALL_PERIPH(ADCx));
 711              		.loc 1 594 3 view .LVU211
 595:Drivers/STM32F10x_StdPeriph_Driver/src/stm32f10x_adc.c ****   assert_param(IS_ADC_CHANNEL(ADC_Channel));
 712              		.loc 1 595 3 view .LVU212
 596:Drivers/STM32F10x_StdPeriph_Driver/src/stm32f10x_adc.c ****   assert_param(IS_ADC_REGULAR_RANK(Rank));
 713              		.loc 1 596 3 view .LVU213
 597:Drivers/STM32F10x_StdPeriph_Driver/src/stm32f10x_adc.c ****   assert_param(IS_ADC_SAMPLE_TIME(ADC_SampleTime));
 714              		.loc 1 597 3 view .LVU214
 598:Drivers/STM32F10x_StdPeriph_Driver/src/stm32f10x_adc.c ****   /* if ADC_Channel_10 ... ADC_Channel_17 is selected */
 599:Drivers/STM32F10x_StdPeriph_Driver/src/stm32f10x_adc.c ****   if (ADC_Channel > ADC_Channel_9)
 715              		.loc 1 599 3 view .LVU215
 716              		.loc 1 599 6 is_stmt 0 view .LVU216
 717 0004 0929     		cmp	r1, #9
 718 0006 20D9     		bls	.L44
 600:Drivers/STM32F10x_StdPeriph_Driver/src/stm32f10x_adc.c ****   {
 601:Drivers/STM32F10x_StdPeriph_Driver/src/stm32f10x_adc.c ****     /* Get the old register value */
 602:Drivers/STM32F10x_StdPeriph_Driver/src/stm32f10x_adc.c ****     tmpreg1 = ADCx->SMPR1;
 719              		.loc 1 602 5 is_stmt 1 view .LVU217
 720              		.loc 1 602 13 is_stmt 0 view .LVU218
 721 0008 C368     		ldr	r3, [r0, #12]
 722              	.LVL58:
 603:Drivers/STM32F10x_StdPeriph_Driver/src/stm32f10x_adc.c ****     /* Calculate the mask to clear */
 604:Drivers/STM32F10x_StdPeriph_Driver/src/stm32f10x_adc.c ****     tmpreg2 = SMPR1_SMP_Set << (3 * (ADC_Channel - 10));
 723              		.loc 1 604 5 is_stmt 1 view .LVU219
 724              		.loc 1 604 50 is_stmt 0 view .LVU220
 725 000a A1F10A0C 		sub	ip, r1, #10
ARM GAS  /tmp/ccJ7FcFp.s 			page 24


 726              		.loc 1 604 35 view .LVU221
 727 000e 0CEB4C0C 		add	ip, ip, ip, lsl #1
 728              		.loc 1 604 13 view .LVU222
 729 0012 4FF0070E 		mov	lr, #7
 730 0016 0EFA0CFE 		lsl	lr, lr, ip
 731              	.LVL59:
 605:Drivers/STM32F10x_StdPeriph_Driver/src/stm32f10x_adc.c ****     /* Clear the old channel sample time */
 606:Drivers/STM32F10x_StdPeriph_Driver/src/stm32f10x_adc.c ****     tmpreg1 &= ~tmpreg2;
 732              		.loc 1 606 5 is_stmt 1 view .LVU223
 733              		.loc 1 606 13 is_stmt 0 view .LVU224
 734 001a 23EA0E0E 		bic	lr, r3, lr
 735              	.LVL60:
 607:Drivers/STM32F10x_StdPeriph_Driver/src/stm32f10x_adc.c ****     /* Calculate the mask to set */
 608:Drivers/STM32F10x_StdPeriph_Driver/src/stm32f10x_adc.c ****     tmpreg2 = (uint32_t)ADC_SampleTime << (3 * (ADC_Channel - 10));
 736              		.loc 1 608 5 is_stmt 1 view .LVU225
 737              		.loc 1 608 13 is_stmt 0 view .LVU226
 738 001e 04FA0CFC 		lsl	ip, r4, ip
 739              	.LVL61:
 609:Drivers/STM32F10x_StdPeriph_Driver/src/stm32f10x_adc.c ****     /* Set the new channel sample time */
 610:Drivers/STM32F10x_StdPeriph_Driver/src/stm32f10x_adc.c ****     tmpreg1 |= tmpreg2;
 740              		.loc 1 610 5 is_stmt 1 view .LVU227
 741              		.loc 1 610 13 is_stmt 0 view .LVU228
 742 0022 4EEA0C03 		orr	r3, lr, ip
 743              	.LVL62:
 611:Drivers/STM32F10x_StdPeriph_Driver/src/stm32f10x_adc.c ****     /* Store the new register value */
 612:Drivers/STM32F10x_StdPeriph_Driver/src/stm32f10x_adc.c ****     ADCx->SMPR1 = tmpreg1;
 744              		.loc 1 612 5 is_stmt 1 view .LVU229
 745              		.loc 1 612 17 is_stmt 0 view .LVU230
 746 0026 C360     		str	r3, [r0, #12]
 747              	.LVL63:
 748              	.L45:
 613:Drivers/STM32F10x_StdPeriph_Driver/src/stm32f10x_adc.c ****   }
 614:Drivers/STM32F10x_StdPeriph_Driver/src/stm32f10x_adc.c ****   else /* ADC_Channel include in ADC_Channel_[0..9] */
 615:Drivers/STM32F10x_StdPeriph_Driver/src/stm32f10x_adc.c ****   {
 616:Drivers/STM32F10x_StdPeriph_Driver/src/stm32f10x_adc.c ****     /* Get the old register value */
 617:Drivers/STM32F10x_StdPeriph_Driver/src/stm32f10x_adc.c ****     tmpreg1 = ADCx->SMPR2;
 618:Drivers/STM32F10x_StdPeriph_Driver/src/stm32f10x_adc.c ****     /* Calculate the mask to clear */
 619:Drivers/STM32F10x_StdPeriph_Driver/src/stm32f10x_adc.c ****     tmpreg2 = SMPR2_SMP_Set << (3 * ADC_Channel);
 620:Drivers/STM32F10x_StdPeriph_Driver/src/stm32f10x_adc.c ****     /* Clear the old channel sample time */
 621:Drivers/STM32F10x_StdPeriph_Driver/src/stm32f10x_adc.c ****     tmpreg1 &= ~tmpreg2;
 622:Drivers/STM32F10x_StdPeriph_Driver/src/stm32f10x_adc.c ****     /* Calculate the mask to set */
 623:Drivers/STM32F10x_StdPeriph_Driver/src/stm32f10x_adc.c ****     tmpreg2 = (uint32_t)ADC_SampleTime << (3 * ADC_Channel);
 624:Drivers/STM32F10x_StdPeriph_Driver/src/stm32f10x_adc.c ****     /* Set the new channel sample time */
 625:Drivers/STM32F10x_StdPeriph_Driver/src/stm32f10x_adc.c ****     tmpreg1 |= tmpreg2;
 626:Drivers/STM32F10x_StdPeriph_Driver/src/stm32f10x_adc.c ****     /* Store the new register value */
 627:Drivers/STM32F10x_StdPeriph_Driver/src/stm32f10x_adc.c ****     ADCx->SMPR2 = tmpreg1;
 628:Drivers/STM32F10x_StdPeriph_Driver/src/stm32f10x_adc.c ****   }
 629:Drivers/STM32F10x_StdPeriph_Driver/src/stm32f10x_adc.c ****   /* For Rank 1 to 6 */
 630:Drivers/STM32F10x_StdPeriph_Driver/src/stm32f10x_adc.c ****   if (Rank < 7)
 749              		.loc 1 630 3 is_stmt 1 view .LVU231
 750              		.loc 1 630 6 is_stmt 0 view .LVU232
 751 0028 062A     		cmp	r2, #6
 752 002a 1DD8     		bhi	.L46
 631:Drivers/STM32F10x_StdPeriph_Driver/src/stm32f10x_adc.c ****   {
 632:Drivers/STM32F10x_StdPeriph_Driver/src/stm32f10x_adc.c ****     /* Get the old register value */
 633:Drivers/STM32F10x_StdPeriph_Driver/src/stm32f10x_adc.c ****     tmpreg1 = ADCx->SQR3;
 753              		.loc 1 633 5 is_stmt 1 view .LVU233
ARM GAS  /tmp/ccJ7FcFp.s 			page 25


 754              		.loc 1 633 13 is_stmt 0 view .LVU234
 755 002c 436B     		ldr	r3, [r0, #52]
 756              	.LVL64:
 634:Drivers/STM32F10x_StdPeriph_Driver/src/stm32f10x_adc.c ****     /* Calculate the mask to clear */
 635:Drivers/STM32F10x_StdPeriph_Driver/src/stm32f10x_adc.c ****     tmpreg2 = SQR3_SQ_Set << (5 * (Rank - 1));
 757              		.loc 1 635 5 is_stmt 1 view .LVU235
 758              		.loc 1 635 41 is_stmt 0 view .LVU236
 759 002e 013A     		subs	r2, r2, #1
 760              	.LVL65:
 761              		.loc 1 635 33 view .LVU237
 762 0030 02EB8202 		add	r2, r2, r2, lsl #2
 763              		.loc 1 635 13 view .LVU238
 764 0034 4FF01F0C 		mov	ip, #31
 765 0038 0CFA02FC 		lsl	ip, ip, r2
 766              	.LVL66:
 636:Drivers/STM32F10x_StdPeriph_Driver/src/stm32f10x_adc.c ****     /* Clear the old SQx bits for the selected rank */
 637:Drivers/STM32F10x_StdPeriph_Driver/src/stm32f10x_adc.c ****     tmpreg1 &= ~tmpreg2;
 767              		.loc 1 637 5 is_stmt 1 view .LVU239
 768              		.loc 1 637 13 is_stmt 0 view .LVU240
 769 003c 23EA0C03 		bic	r3, r3, ip
 770              	.LVL67:
 638:Drivers/STM32F10x_StdPeriph_Driver/src/stm32f10x_adc.c ****     /* Calculate the mask to set */
 639:Drivers/STM32F10x_StdPeriph_Driver/src/stm32f10x_adc.c ****     tmpreg2 = (uint32_t)ADC_Channel << (5 * (Rank - 1));
 771              		.loc 1 639 5 is_stmt 1 view .LVU241
 772              		.loc 1 639 13 is_stmt 0 view .LVU242
 773 0040 01FA02F2 		lsl	r2, r1, r2
 774              	.LVL68:
 640:Drivers/STM32F10x_StdPeriph_Driver/src/stm32f10x_adc.c ****     /* Set the SQx bits for the selected rank */
 641:Drivers/STM32F10x_StdPeriph_Driver/src/stm32f10x_adc.c ****     tmpreg1 |= tmpreg2;
 775              		.loc 1 641 5 is_stmt 1 view .LVU243
 776              		.loc 1 641 13 is_stmt 0 view .LVU244
 777 0044 1343     		orrs	r3, r3, r2
 778              	.LVL69:
 642:Drivers/STM32F10x_StdPeriph_Driver/src/stm32f10x_adc.c ****     /* Store the new register value */
 643:Drivers/STM32F10x_StdPeriph_Driver/src/stm32f10x_adc.c ****     ADCx->SQR3 = tmpreg1;
 779              		.loc 1 643 5 is_stmt 1 view .LVU245
 780              		.loc 1 643 16 is_stmt 0 view .LVU246
 781 0046 4363     		str	r3, [r0, #52]
 782              	.LVL70:
 783              	.L43:
 644:Drivers/STM32F10x_StdPeriph_Driver/src/stm32f10x_adc.c ****   }
 645:Drivers/STM32F10x_StdPeriph_Driver/src/stm32f10x_adc.c ****   /* For Rank 7 to 12 */
 646:Drivers/STM32F10x_StdPeriph_Driver/src/stm32f10x_adc.c ****   else if (Rank < 13)
 647:Drivers/STM32F10x_StdPeriph_Driver/src/stm32f10x_adc.c ****   {
 648:Drivers/STM32F10x_StdPeriph_Driver/src/stm32f10x_adc.c ****     /* Get the old register value */
 649:Drivers/STM32F10x_StdPeriph_Driver/src/stm32f10x_adc.c ****     tmpreg1 = ADCx->SQR2;
 650:Drivers/STM32F10x_StdPeriph_Driver/src/stm32f10x_adc.c ****     /* Calculate the mask to clear */
 651:Drivers/STM32F10x_StdPeriph_Driver/src/stm32f10x_adc.c ****     tmpreg2 = SQR2_SQ_Set << (5 * (Rank - 7));
 652:Drivers/STM32F10x_StdPeriph_Driver/src/stm32f10x_adc.c ****     /* Clear the old SQx bits for the selected rank */
 653:Drivers/STM32F10x_StdPeriph_Driver/src/stm32f10x_adc.c ****     tmpreg1 &= ~tmpreg2;
 654:Drivers/STM32F10x_StdPeriph_Driver/src/stm32f10x_adc.c ****     /* Calculate the mask to set */
 655:Drivers/STM32F10x_StdPeriph_Driver/src/stm32f10x_adc.c ****     tmpreg2 = (uint32_t)ADC_Channel << (5 * (Rank - 7));
 656:Drivers/STM32F10x_StdPeriph_Driver/src/stm32f10x_adc.c ****     /* Set the SQx bits for the selected rank */
 657:Drivers/STM32F10x_StdPeriph_Driver/src/stm32f10x_adc.c ****     tmpreg1 |= tmpreg2;
 658:Drivers/STM32F10x_StdPeriph_Driver/src/stm32f10x_adc.c ****     /* Store the new register value */
 659:Drivers/STM32F10x_StdPeriph_Driver/src/stm32f10x_adc.c ****     ADCx->SQR2 = tmpreg1;
 660:Drivers/STM32F10x_StdPeriph_Driver/src/stm32f10x_adc.c ****   }
ARM GAS  /tmp/ccJ7FcFp.s 			page 26


 661:Drivers/STM32F10x_StdPeriph_Driver/src/stm32f10x_adc.c ****   /* For Rank 13 to 16 */
 662:Drivers/STM32F10x_StdPeriph_Driver/src/stm32f10x_adc.c ****   else
 663:Drivers/STM32F10x_StdPeriph_Driver/src/stm32f10x_adc.c ****   {
 664:Drivers/STM32F10x_StdPeriph_Driver/src/stm32f10x_adc.c ****     /* Get the old register value */
 665:Drivers/STM32F10x_StdPeriph_Driver/src/stm32f10x_adc.c ****     tmpreg1 = ADCx->SQR1;
 666:Drivers/STM32F10x_StdPeriph_Driver/src/stm32f10x_adc.c ****     /* Calculate the mask to clear */
 667:Drivers/STM32F10x_StdPeriph_Driver/src/stm32f10x_adc.c ****     tmpreg2 = SQR1_SQ_Set << (5 * (Rank - 13));
 668:Drivers/STM32F10x_StdPeriph_Driver/src/stm32f10x_adc.c ****     /* Clear the old SQx bits for the selected rank */
 669:Drivers/STM32F10x_StdPeriph_Driver/src/stm32f10x_adc.c ****     tmpreg1 &= ~tmpreg2;
 670:Drivers/STM32F10x_StdPeriph_Driver/src/stm32f10x_adc.c ****     /* Calculate the mask to set */
 671:Drivers/STM32F10x_StdPeriph_Driver/src/stm32f10x_adc.c ****     tmpreg2 = (uint32_t)ADC_Channel << (5 * (Rank - 13));
 672:Drivers/STM32F10x_StdPeriph_Driver/src/stm32f10x_adc.c ****     /* Set the SQx bits for the selected rank */
 673:Drivers/STM32F10x_StdPeriph_Driver/src/stm32f10x_adc.c ****     tmpreg1 |= tmpreg2;
 674:Drivers/STM32F10x_StdPeriph_Driver/src/stm32f10x_adc.c ****     /* Store the new register value */
 675:Drivers/STM32F10x_StdPeriph_Driver/src/stm32f10x_adc.c ****     ADCx->SQR1 = tmpreg1;
 676:Drivers/STM32F10x_StdPeriph_Driver/src/stm32f10x_adc.c ****   }
 677:Drivers/STM32F10x_StdPeriph_Driver/src/stm32f10x_adc.c **** }
 784              		.loc 1 677 1 view .LVU247
 785 0048 10BD     		pop	{r4, pc}
 786              	.LVL71:
 787              	.L44:
 617:Drivers/STM32F10x_StdPeriph_Driver/src/stm32f10x_adc.c ****     /* Calculate the mask to clear */
 788              		.loc 1 617 5 is_stmt 1 view .LVU248
 617:Drivers/STM32F10x_StdPeriph_Driver/src/stm32f10x_adc.c ****     /* Calculate the mask to clear */
 789              		.loc 1 617 13 is_stmt 0 view .LVU249
 790 004a D0F810C0 		ldr	ip, [r0, #16]
 791              	.LVL72:
 619:Drivers/STM32F10x_StdPeriph_Driver/src/stm32f10x_adc.c ****     /* Clear the old channel sample time */
 792              		.loc 1 619 5 is_stmt 1 view .LVU250
 619:Drivers/STM32F10x_StdPeriph_Driver/src/stm32f10x_adc.c ****     /* Clear the old channel sample time */
 793              		.loc 1 619 35 is_stmt 0 view .LVU251
 794 004e 01EB4103 		add	r3, r1, r1, lsl #1
 795              	.LVL73:
 619:Drivers/STM32F10x_StdPeriph_Driver/src/stm32f10x_adc.c ****     /* Clear the old channel sample time */
 796              		.loc 1 619 13 view .LVU252
 797 0052 4FF0070E 		mov	lr, #7
 798 0056 0EFA03FE 		lsl	lr, lr, r3
 799              	.LVL74:
 621:Drivers/STM32F10x_StdPeriph_Driver/src/stm32f10x_adc.c ****     /* Calculate the mask to set */
 800              		.loc 1 621 5 is_stmt 1 view .LVU253
 621:Drivers/STM32F10x_StdPeriph_Driver/src/stm32f10x_adc.c ****     /* Calculate the mask to set */
 801              		.loc 1 621 13 is_stmt 0 view .LVU254
 802 005a 2CEA0E0C 		bic	ip, ip, lr
 803              	.LVL75:
 623:Drivers/STM32F10x_StdPeriph_Driver/src/stm32f10x_adc.c ****     /* Set the new channel sample time */
 804              		.loc 1 623 5 is_stmt 1 view .LVU255
 623:Drivers/STM32F10x_StdPeriph_Driver/src/stm32f10x_adc.c ****     /* Set the new channel sample time */
 805              		.loc 1 623 13 is_stmt 0 view .LVU256
 806 005e 9C40     		lsls	r4, r4, r3
 807              	.LVL76:
 625:Drivers/STM32F10x_StdPeriph_Driver/src/stm32f10x_adc.c ****     /* Store the new register value */
 808              		.loc 1 625 5 is_stmt 1 view .LVU257
 625:Drivers/STM32F10x_StdPeriph_Driver/src/stm32f10x_adc.c ****     /* Store the new register value */
 809              		.loc 1 625 13 is_stmt 0 view .LVU258
 810 0060 4CEA0403 		orr	r3, ip, r4
 811              	.LVL77:
 627:Drivers/STM32F10x_StdPeriph_Driver/src/stm32f10x_adc.c ****   }
ARM GAS  /tmp/ccJ7FcFp.s 			page 27


 812              		.loc 1 627 5 is_stmt 1 view .LVU259
 627:Drivers/STM32F10x_StdPeriph_Driver/src/stm32f10x_adc.c ****   }
 813              		.loc 1 627 17 is_stmt 0 view .LVU260
 814 0064 0361     		str	r3, [r0, #16]
 815 0066 DFE7     		b	.L45
 816              	.LVL78:
 817              	.L46:
 646:Drivers/STM32F10x_StdPeriph_Driver/src/stm32f10x_adc.c ****   {
 818              		.loc 1 646 8 is_stmt 1 view .LVU261
 646:Drivers/STM32F10x_StdPeriph_Driver/src/stm32f10x_adc.c ****   {
 819              		.loc 1 646 11 is_stmt 0 view .LVU262
 820 0068 0C2A     		cmp	r2, #12
 821 006a 0ED8     		bhi	.L48
 649:Drivers/STM32F10x_StdPeriph_Driver/src/stm32f10x_adc.c ****     /* Calculate the mask to clear */
 822              		.loc 1 649 5 is_stmt 1 view .LVU263
 649:Drivers/STM32F10x_StdPeriph_Driver/src/stm32f10x_adc.c ****     /* Calculate the mask to clear */
 823              		.loc 1 649 13 is_stmt 0 view .LVU264
 824 006c 036B     		ldr	r3, [r0, #48]
 825              	.LVL79:
 651:Drivers/STM32F10x_StdPeriph_Driver/src/stm32f10x_adc.c ****     /* Clear the old SQx bits for the selected rank */
 826              		.loc 1 651 5 is_stmt 1 view .LVU265
 651:Drivers/STM32F10x_StdPeriph_Driver/src/stm32f10x_adc.c ****     /* Clear the old SQx bits for the selected rank */
 827              		.loc 1 651 41 is_stmt 0 view .LVU266
 828 006e 073A     		subs	r2, r2, #7
 829              	.LVL80:
 651:Drivers/STM32F10x_StdPeriph_Driver/src/stm32f10x_adc.c ****     /* Clear the old SQx bits for the selected rank */
 830              		.loc 1 651 33 view .LVU267
 831 0070 02EB8202 		add	r2, r2, r2, lsl #2
 651:Drivers/STM32F10x_StdPeriph_Driver/src/stm32f10x_adc.c ****     /* Clear the old SQx bits for the selected rank */
 832              		.loc 1 651 13 view .LVU268
 833 0074 4FF01F0C 		mov	ip, #31
 834 0078 0CFA02FC 		lsl	ip, ip, r2
 835              	.LVL81:
 653:Drivers/STM32F10x_StdPeriph_Driver/src/stm32f10x_adc.c ****     /* Calculate the mask to set */
 836              		.loc 1 653 5 is_stmt 1 view .LVU269
 653:Drivers/STM32F10x_StdPeriph_Driver/src/stm32f10x_adc.c ****     /* Calculate the mask to set */
 837              		.loc 1 653 13 is_stmt 0 view .LVU270
 838 007c 23EA0C03 		bic	r3, r3, ip
 839              	.LVL82:
 655:Drivers/STM32F10x_StdPeriph_Driver/src/stm32f10x_adc.c ****     /* Set the SQx bits for the selected rank */
 840              		.loc 1 655 5 is_stmt 1 view .LVU271
 655:Drivers/STM32F10x_StdPeriph_Driver/src/stm32f10x_adc.c ****     /* Set the SQx bits for the selected rank */
 841              		.loc 1 655 13 is_stmt 0 view .LVU272
 842 0080 01FA02F2 		lsl	r2, r1, r2
 843              	.LVL83:
 657:Drivers/STM32F10x_StdPeriph_Driver/src/stm32f10x_adc.c ****     /* Store the new register value */
 844              		.loc 1 657 5 is_stmt 1 view .LVU273
 657:Drivers/STM32F10x_StdPeriph_Driver/src/stm32f10x_adc.c ****     /* Store the new register value */
 845              		.loc 1 657 13 is_stmt 0 view .LVU274
 846 0084 1343     		orrs	r3, r3, r2
 847              	.LVL84:
 659:Drivers/STM32F10x_StdPeriph_Driver/src/stm32f10x_adc.c ****   }
 848              		.loc 1 659 5 is_stmt 1 view .LVU275
 659:Drivers/STM32F10x_StdPeriph_Driver/src/stm32f10x_adc.c ****   }
 849              		.loc 1 659 16 is_stmt 0 view .LVU276
 850 0086 0363     		str	r3, [r0, #48]
 851 0088 DEE7     		b	.L43
ARM GAS  /tmp/ccJ7FcFp.s 			page 28


 852              	.LVL85:
 853              	.L48:
 665:Drivers/STM32F10x_StdPeriph_Driver/src/stm32f10x_adc.c ****     /* Calculate the mask to clear */
 854              		.loc 1 665 5 is_stmt 1 view .LVU277
 665:Drivers/STM32F10x_StdPeriph_Driver/src/stm32f10x_adc.c ****     /* Calculate the mask to clear */
 855              		.loc 1 665 13 is_stmt 0 view .LVU278
 856 008a C36A     		ldr	r3, [r0, #44]
 857              	.LVL86:
 667:Drivers/STM32F10x_StdPeriph_Driver/src/stm32f10x_adc.c ****     /* Clear the old SQx bits for the selected rank */
 858              		.loc 1 667 5 is_stmt 1 view .LVU279
 667:Drivers/STM32F10x_StdPeriph_Driver/src/stm32f10x_adc.c ****     /* Clear the old SQx bits for the selected rank */
 859              		.loc 1 667 41 is_stmt 0 view .LVU280
 860 008c 0D3A     		subs	r2, r2, #13
 861              	.LVL87:
 667:Drivers/STM32F10x_StdPeriph_Driver/src/stm32f10x_adc.c ****     /* Clear the old SQx bits for the selected rank */
 862              		.loc 1 667 33 view .LVU281
 863 008e 02EB8202 		add	r2, r2, r2, lsl #2
 667:Drivers/STM32F10x_StdPeriph_Driver/src/stm32f10x_adc.c ****     /* Clear the old SQx bits for the selected rank */
 864              		.loc 1 667 13 view .LVU282
 865 0092 4FF01F0C 		mov	ip, #31
 866 0096 0CFA02FC 		lsl	ip, ip, r2
 867              	.LVL88:
 669:Drivers/STM32F10x_StdPeriph_Driver/src/stm32f10x_adc.c ****     /* Calculate the mask to set */
 868              		.loc 1 669 5 is_stmt 1 view .LVU283
 669:Drivers/STM32F10x_StdPeriph_Driver/src/stm32f10x_adc.c ****     /* Calculate the mask to set */
 869              		.loc 1 669 13 is_stmt 0 view .LVU284
 870 009a 23EA0C03 		bic	r3, r3, ip
 871              	.LVL89:
 671:Drivers/STM32F10x_StdPeriph_Driver/src/stm32f10x_adc.c ****     /* Set the SQx bits for the selected rank */
 872              		.loc 1 671 5 is_stmt 1 view .LVU285
 671:Drivers/STM32F10x_StdPeriph_Driver/src/stm32f10x_adc.c ****     /* Set the SQx bits for the selected rank */
 873              		.loc 1 671 13 is_stmt 0 view .LVU286
 874 009e 9140     		lsls	r1, r1, r2
 875              	.LVL90:
 673:Drivers/STM32F10x_StdPeriph_Driver/src/stm32f10x_adc.c ****     /* Store the new register value */
 876              		.loc 1 673 5 is_stmt 1 view .LVU287
 673:Drivers/STM32F10x_StdPeriph_Driver/src/stm32f10x_adc.c ****     /* Store the new register value */
 877              		.loc 1 673 13 is_stmt 0 view .LVU288
 878 00a0 0B43     		orrs	r3, r3, r1
 879              	.LVL91:
 675:Drivers/STM32F10x_StdPeriph_Driver/src/stm32f10x_adc.c ****   }
 880              		.loc 1 675 5 is_stmt 1 view .LVU289
 675:Drivers/STM32F10x_StdPeriph_Driver/src/stm32f10x_adc.c ****   }
 881              		.loc 1 675 16 is_stmt 0 view .LVU290
 882 00a2 C362     		str	r3, [r0, #44]
 883              		.loc 1 677 1 view .LVU291
 884 00a4 D0E7     		b	.L43
 885              		.cfi_endproc
 886              	.LFE79:
 888              		.section	.text.ADC_ExternalTrigConvCmd,"ax",%progbits
 889              		.align	1
 890              		.global	ADC_ExternalTrigConvCmd
 891              		.syntax unified
 892              		.thumb
 893              		.thumb_func
 895              	ADC_ExternalTrigConvCmd:
 896              	.LVL92:
ARM GAS  /tmp/ccJ7FcFp.s 			page 29


 897              	.LFB80:
 678:Drivers/STM32F10x_StdPeriph_Driver/src/stm32f10x_adc.c **** 
 679:Drivers/STM32F10x_StdPeriph_Driver/src/stm32f10x_adc.c **** /**
 680:Drivers/STM32F10x_StdPeriph_Driver/src/stm32f10x_adc.c ****   * @brief  Enables or disables the ADCx conversion through external trigger.
 681:Drivers/STM32F10x_StdPeriph_Driver/src/stm32f10x_adc.c ****   * @param  ADCx: where x can be 1, 2 or 3 to select the ADC peripheral.
 682:Drivers/STM32F10x_StdPeriph_Driver/src/stm32f10x_adc.c ****   * @param  NewState: new state of the selected ADC external trigger start of conversion.
 683:Drivers/STM32F10x_StdPeriph_Driver/src/stm32f10x_adc.c ****   *   This parameter can be: ENABLE or DISABLE.
 684:Drivers/STM32F10x_StdPeriph_Driver/src/stm32f10x_adc.c ****   * @retval None
 685:Drivers/STM32F10x_StdPeriph_Driver/src/stm32f10x_adc.c ****   */
 686:Drivers/STM32F10x_StdPeriph_Driver/src/stm32f10x_adc.c **** void ADC_ExternalTrigConvCmd(ADC_TypeDef* ADCx, FunctionalState NewState)
 687:Drivers/STM32F10x_StdPeriph_Driver/src/stm32f10x_adc.c **** {
 898              		.loc 1 687 1 is_stmt 1 view -0
 899              		.cfi_startproc
 900              		@ args = 0, pretend = 0, frame = 0
 901              		@ frame_needed = 0, uses_anonymous_args = 0
 902              		@ link register save eliminated.
 688:Drivers/STM32F10x_StdPeriph_Driver/src/stm32f10x_adc.c ****   /* Check the parameters */
 689:Drivers/STM32F10x_StdPeriph_Driver/src/stm32f10x_adc.c ****   assert_param(IS_ADC_ALL_PERIPH(ADCx));
 903              		.loc 1 689 3 view .LVU293
 690:Drivers/STM32F10x_StdPeriph_Driver/src/stm32f10x_adc.c ****   assert_param(IS_FUNCTIONAL_STATE(NewState));
 904              		.loc 1 690 3 view .LVU294
 691:Drivers/STM32F10x_StdPeriph_Driver/src/stm32f10x_adc.c ****   if (NewState != DISABLE)
 905              		.loc 1 691 3 view .LVU295
 906              		.loc 1 691 6 is_stmt 0 view .LVU296
 907 0000 21B1     		cbz	r1, .L51
 692:Drivers/STM32F10x_StdPeriph_Driver/src/stm32f10x_adc.c ****   {
 693:Drivers/STM32F10x_StdPeriph_Driver/src/stm32f10x_adc.c ****     /* Enable the selected ADC conversion on external event */
 694:Drivers/STM32F10x_StdPeriph_Driver/src/stm32f10x_adc.c ****     ADCx->CR2 |= CR2_EXTTRIG_Set;
 908              		.loc 1 694 5 is_stmt 1 view .LVU297
 909              		.loc 1 694 9 is_stmt 0 view .LVU298
 910 0002 8368     		ldr	r3, [r0, #8]
 911              		.loc 1 694 15 view .LVU299
 912 0004 43F48013 		orr	r3, r3, #1048576
 913 0008 8360     		str	r3, [r0, #8]
 914 000a 7047     		bx	lr
 915              	.L51:
 695:Drivers/STM32F10x_StdPeriph_Driver/src/stm32f10x_adc.c ****   }
 696:Drivers/STM32F10x_StdPeriph_Driver/src/stm32f10x_adc.c ****   else
 697:Drivers/STM32F10x_StdPeriph_Driver/src/stm32f10x_adc.c ****   {
 698:Drivers/STM32F10x_StdPeriph_Driver/src/stm32f10x_adc.c ****     /* Disable the selected ADC conversion on external event */
 699:Drivers/STM32F10x_StdPeriph_Driver/src/stm32f10x_adc.c ****     ADCx->CR2 &= CR2_EXTTRIG_Reset;
 916              		.loc 1 699 5 is_stmt 1 view .LVU300
 917              		.loc 1 699 9 is_stmt 0 view .LVU301
 918 000c 8368     		ldr	r3, [r0, #8]
 919              		.loc 1 699 15 view .LVU302
 920 000e 23F48013 		bic	r3, r3, #1048576
 921 0012 8360     		str	r3, [r0, #8]
 700:Drivers/STM32F10x_StdPeriph_Driver/src/stm32f10x_adc.c ****   }
 701:Drivers/STM32F10x_StdPeriph_Driver/src/stm32f10x_adc.c **** }
 922              		.loc 1 701 1 view .LVU303
 923 0014 7047     		bx	lr
 924              		.cfi_endproc
 925              	.LFE80:
 927              		.section	.text.ADC_GetConversionValue,"ax",%progbits
 928              		.align	1
 929              		.global	ADC_GetConversionValue
 930              		.syntax unified
ARM GAS  /tmp/ccJ7FcFp.s 			page 30


 931              		.thumb
 932              		.thumb_func
 934              	ADC_GetConversionValue:
 935              	.LVL93:
 936              	.LFB81:
 702:Drivers/STM32F10x_StdPeriph_Driver/src/stm32f10x_adc.c **** 
 703:Drivers/STM32F10x_StdPeriph_Driver/src/stm32f10x_adc.c **** /**
 704:Drivers/STM32F10x_StdPeriph_Driver/src/stm32f10x_adc.c ****   * @brief  Returns the last ADCx conversion result data for regular channel.
 705:Drivers/STM32F10x_StdPeriph_Driver/src/stm32f10x_adc.c ****   * @param  ADCx: where x can be 1, 2 or 3 to select the ADC peripheral.
 706:Drivers/STM32F10x_StdPeriph_Driver/src/stm32f10x_adc.c ****   * @retval The Data conversion value.
 707:Drivers/STM32F10x_StdPeriph_Driver/src/stm32f10x_adc.c ****   */
 708:Drivers/STM32F10x_StdPeriph_Driver/src/stm32f10x_adc.c **** uint16_t ADC_GetConversionValue(ADC_TypeDef* ADCx)
 709:Drivers/STM32F10x_StdPeriph_Driver/src/stm32f10x_adc.c **** {
 937              		.loc 1 709 1 is_stmt 1 view -0
 938              		.cfi_startproc
 939              		@ args = 0, pretend = 0, frame = 0
 940              		@ frame_needed = 0, uses_anonymous_args = 0
 941              		@ link register save eliminated.
 710:Drivers/STM32F10x_StdPeriph_Driver/src/stm32f10x_adc.c ****   /* Check the parameters */
 711:Drivers/STM32F10x_StdPeriph_Driver/src/stm32f10x_adc.c ****   assert_param(IS_ADC_ALL_PERIPH(ADCx));
 942              		.loc 1 711 3 view .LVU305
 712:Drivers/STM32F10x_StdPeriph_Driver/src/stm32f10x_adc.c ****   /* Return the selected ADC conversion value */
 713:Drivers/STM32F10x_StdPeriph_Driver/src/stm32f10x_adc.c ****   return (uint16_t) ADCx->DR;
 943              		.loc 1 713 3 view .LVU306
 944              		.loc 1 713 25 is_stmt 0 view .LVU307
 945 0000 C06C     		ldr	r0, [r0, #76]
 946              	.LVL94:
 714:Drivers/STM32F10x_StdPeriph_Driver/src/stm32f10x_adc.c **** }
 947              		.loc 1 714 1 view .LVU308
 948 0002 80B2     		uxth	r0, r0
 949 0004 7047     		bx	lr
 950              		.cfi_endproc
 951              	.LFE81:
 953              		.section	.text.ADC_GetDualModeConversionValue,"ax",%progbits
 954              		.align	1
 955              		.global	ADC_GetDualModeConversionValue
 956              		.syntax unified
 957              		.thumb
 958              		.thumb_func
 960              	ADC_GetDualModeConversionValue:
 961              	.LFB82:
 715:Drivers/STM32F10x_StdPeriph_Driver/src/stm32f10x_adc.c **** 
 716:Drivers/STM32F10x_StdPeriph_Driver/src/stm32f10x_adc.c **** /**
 717:Drivers/STM32F10x_StdPeriph_Driver/src/stm32f10x_adc.c ****   * @brief  Returns the last ADC1 and ADC2 conversion result data in dual mode.
 718:Drivers/STM32F10x_StdPeriph_Driver/src/stm32f10x_adc.c ****   * @retval The Data conversion value.
 719:Drivers/STM32F10x_StdPeriph_Driver/src/stm32f10x_adc.c ****   */
 720:Drivers/STM32F10x_StdPeriph_Driver/src/stm32f10x_adc.c **** uint32_t ADC_GetDualModeConversionValue(void)
 721:Drivers/STM32F10x_StdPeriph_Driver/src/stm32f10x_adc.c **** {
 962              		.loc 1 721 1 is_stmt 1 view -0
 963              		.cfi_startproc
 964              		@ args = 0, pretend = 0, frame = 0
 965              		@ frame_needed = 0, uses_anonymous_args = 0
 966              		@ link register save eliminated.
 722:Drivers/STM32F10x_StdPeriph_Driver/src/stm32f10x_adc.c ****   /* Return the dual mode conversion value */
 723:Drivers/STM32F10x_StdPeriph_Driver/src/stm32f10x_adc.c ****   return (*(__IO uint32_t *) DR_ADDRESS);
 967              		.loc 1 723 3 view .LVU310
 968              		.loc 1 723 11 is_stmt 0 view .LVU311
ARM GAS  /tmp/ccJ7FcFp.s 			page 31


 969 0000 014B     		ldr	r3, .L55
 970 0002 D3F84C04 		ldr	r0, [r3, #1100]
 724:Drivers/STM32F10x_StdPeriph_Driver/src/stm32f10x_adc.c **** }
 971              		.loc 1 724 1 view .LVU312
 972 0006 7047     		bx	lr
 973              	.L56:
 974              		.align	2
 975              	.L55:
 976 0008 00200140 		.word	1073815552
 977              		.cfi_endproc
 978              	.LFE82:
 980              		.section	.text.ADC_AutoInjectedConvCmd,"ax",%progbits
 981              		.align	1
 982              		.global	ADC_AutoInjectedConvCmd
 983              		.syntax unified
 984              		.thumb
 985              		.thumb_func
 987              	ADC_AutoInjectedConvCmd:
 988              	.LVL95:
 989              	.LFB83:
 725:Drivers/STM32F10x_StdPeriph_Driver/src/stm32f10x_adc.c **** 
 726:Drivers/STM32F10x_StdPeriph_Driver/src/stm32f10x_adc.c **** /**
 727:Drivers/STM32F10x_StdPeriph_Driver/src/stm32f10x_adc.c ****   * @brief  Enables or disables the selected ADC automatic injected group
 728:Drivers/STM32F10x_StdPeriph_Driver/src/stm32f10x_adc.c ****   *         conversion after regular one.
 729:Drivers/STM32F10x_StdPeriph_Driver/src/stm32f10x_adc.c ****   * @param  ADCx: where x can be 1, 2 or 3 to select the ADC peripheral.
 730:Drivers/STM32F10x_StdPeriph_Driver/src/stm32f10x_adc.c ****   * @param  NewState: new state of the selected ADC auto injected conversion
 731:Drivers/STM32F10x_StdPeriph_Driver/src/stm32f10x_adc.c ****   *   This parameter can be: ENABLE or DISABLE.
 732:Drivers/STM32F10x_StdPeriph_Driver/src/stm32f10x_adc.c ****   * @retval None
 733:Drivers/STM32F10x_StdPeriph_Driver/src/stm32f10x_adc.c ****   */
 734:Drivers/STM32F10x_StdPeriph_Driver/src/stm32f10x_adc.c **** void ADC_AutoInjectedConvCmd(ADC_TypeDef* ADCx, FunctionalState NewState)
 735:Drivers/STM32F10x_StdPeriph_Driver/src/stm32f10x_adc.c **** {
 990              		.loc 1 735 1 is_stmt 1 view -0
 991              		.cfi_startproc
 992              		@ args = 0, pretend = 0, frame = 0
 993              		@ frame_needed = 0, uses_anonymous_args = 0
 994              		@ link register save eliminated.
 736:Drivers/STM32F10x_StdPeriph_Driver/src/stm32f10x_adc.c ****   /* Check the parameters */
 737:Drivers/STM32F10x_StdPeriph_Driver/src/stm32f10x_adc.c ****   assert_param(IS_ADC_ALL_PERIPH(ADCx));
 995              		.loc 1 737 3 view .LVU314
 738:Drivers/STM32F10x_StdPeriph_Driver/src/stm32f10x_adc.c ****   assert_param(IS_FUNCTIONAL_STATE(NewState));
 996              		.loc 1 738 3 view .LVU315
 739:Drivers/STM32F10x_StdPeriph_Driver/src/stm32f10x_adc.c ****   if (NewState != DISABLE)
 997              		.loc 1 739 3 view .LVU316
 998              		.loc 1 739 6 is_stmt 0 view .LVU317
 999 0000 21B1     		cbz	r1, .L58
 740:Drivers/STM32F10x_StdPeriph_Driver/src/stm32f10x_adc.c ****   {
 741:Drivers/STM32F10x_StdPeriph_Driver/src/stm32f10x_adc.c ****     /* Enable the selected ADC automatic injected group conversion */
 742:Drivers/STM32F10x_StdPeriph_Driver/src/stm32f10x_adc.c ****     ADCx->CR1 |= CR1_JAUTO_Set;
 1000              		.loc 1 742 5 is_stmt 1 view .LVU318
 1001              		.loc 1 742 9 is_stmt 0 view .LVU319
 1002 0002 4368     		ldr	r3, [r0, #4]
 1003              		.loc 1 742 15 view .LVU320
 1004 0004 43F48063 		orr	r3, r3, #1024
 1005 0008 4360     		str	r3, [r0, #4]
 1006 000a 7047     		bx	lr
 1007              	.L58:
 743:Drivers/STM32F10x_StdPeriph_Driver/src/stm32f10x_adc.c ****   }
ARM GAS  /tmp/ccJ7FcFp.s 			page 32


 744:Drivers/STM32F10x_StdPeriph_Driver/src/stm32f10x_adc.c ****   else
 745:Drivers/STM32F10x_StdPeriph_Driver/src/stm32f10x_adc.c ****   {
 746:Drivers/STM32F10x_StdPeriph_Driver/src/stm32f10x_adc.c ****     /* Disable the selected ADC automatic injected group conversion */
 747:Drivers/STM32F10x_StdPeriph_Driver/src/stm32f10x_adc.c ****     ADCx->CR1 &= CR1_JAUTO_Reset;
 1008              		.loc 1 747 5 is_stmt 1 view .LVU321
 1009              		.loc 1 747 9 is_stmt 0 view .LVU322
 1010 000c 4368     		ldr	r3, [r0, #4]
 1011              		.loc 1 747 15 view .LVU323
 1012 000e 23F48063 		bic	r3, r3, #1024
 1013 0012 4360     		str	r3, [r0, #4]
 748:Drivers/STM32F10x_StdPeriph_Driver/src/stm32f10x_adc.c ****   }
 749:Drivers/STM32F10x_StdPeriph_Driver/src/stm32f10x_adc.c **** }
 1014              		.loc 1 749 1 view .LVU324
 1015 0014 7047     		bx	lr
 1016              		.cfi_endproc
 1017              	.LFE83:
 1019              		.section	.text.ADC_InjectedDiscModeCmd,"ax",%progbits
 1020              		.align	1
 1021              		.global	ADC_InjectedDiscModeCmd
 1022              		.syntax unified
 1023              		.thumb
 1024              		.thumb_func
 1026              	ADC_InjectedDiscModeCmd:
 1027              	.LVL96:
 1028              	.LFB84:
 750:Drivers/STM32F10x_StdPeriph_Driver/src/stm32f10x_adc.c **** 
 751:Drivers/STM32F10x_StdPeriph_Driver/src/stm32f10x_adc.c **** /**
 752:Drivers/STM32F10x_StdPeriph_Driver/src/stm32f10x_adc.c ****   * @brief  Enables or disables the discontinuous mode for injected group
 753:Drivers/STM32F10x_StdPeriph_Driver/src/stm32f10x_adc.c ****   *         channel for the specified ADC
 754:Drivers/STM32F10x_StdPeriph_Driver/src/stm32f10x_adc.c ****   * @param  ADCx: where x can be 1, 2 or 3 to select the ADC peripheral.
 755:Drivers/STM32F10x_StdPeriph_Driver/src/stm32f10x_adc.c ****   * @param  NewState: new state of the selected ADC discontinuous mode
 756:Drivers/STM32F10x_StdPeriph_Driver/src/stm32f10x_adc.c ****   *         on injected group channel.
 757:Drivers/STM32F10x_StdPeriph_Driver/src/stm32f10x_adc.c ****   *   This parameter can be: ENABLE or DISABLE.
 758:Drivers/STM32F10x_StdPeriph_Driver/src/stm32f10x_adc.c ****   * @retval None
 759:Drivers/STM32F10x_StdPeriph_Driver/src/stm32f10x_adc.c ****   */
 760:Drivers/STM32F10x_StdPeriph_Driver/src/stm32f10x_adc.c **** void ADC_InjectedDiscModeCmd(ADC_TypeDef* ADCx, FunctionalState NewState)
 761:Drivers/STM32F10x_StdPeriph_Driver/src/stm32f10x_adc.c **** {
 1029              		.loc 1 761 1 is_stmt 1 view -0
 1030              		.cfi_startproc
 1031              		@ args = 0, pretend = 0, frame = 0
 1032              		@ frame_needed = 0, uses_anonymous_args = 0
 1033              		@ link register save eliminated.
 762:Drivers/STM32F10x_StdPeriph_Driver/src/stm32f10x_adc.c ****   /* Check the parameters */
 763:Drivers/STM32F10x_StdPeriph_Driver/src/stm32f10x_adc.c ****   assert_param(IS_ADC_ALL_PERIPH(ADCx));
 1034              		.loc 1 763 3 view .LVU326
 764:Drivers/STM32F10x_StdPeriph_Driver/src/stm32f10x_adc.c ****   assert_param(IS_FUNCTIONAL_STATE(NewState));
 1035              		.loc 1 764 3 view .LVU327
 765:Drivers/STM32F10x_StdPeriph_Driver/src/stm32f10x_adc.c ****   if (NewState != DISABLE)
 1036              		.loc 1 765 3 view .LVU328
 1037              		.loc 1 765 6 is_stmt 0 view .LVU329
 1038 0000 21B1     		cbz	r1, .L61
 766:Drivers/STM32F10x_StdPeriph_Driver/src/stm32f10x_adc.c ****   {
 767:Drivers/STM32F10x_StdPeriph_Driver/src/stm32f10x_adc.c ****     /* Enable the selected ADC injected discontinuous mode */
 768:Drivers/STM32F10x_StdPeriph_Driver/src/stm32f10x_adc.c ****     ADCx->CR1 |= CR1_JDISCEN_Set;
 1039              		.loc 1 768 5 is_stmt 1 view .LVU330
 1040              		.loc 1 768 9 is_stmt 0 view .LVU331
 1041 0002 4368     		ldr	r3, [r0, #4]
ARM GAS  /tmp/ccJ7FcFp.s 			page 33


 1042              		.loc 1 768 15 view .LVU332
 1043 0004 43F48053 		orr	r3, r3, #4096
 1044 0008 4360     		str	r3, [r0, #4]
 1045 000a 7047     		bx	lr
 1046              	.L61:
 769:Drivers/STM32F10x_StdPeriph_Driver/src/stm32f10x_adc.c ****   }
 770:Drivers/STM32F10x_StdPeriph_Driver/src/stm32f10x_adc.c ****   else
 771:Drivers/STM32F10x_StdPeriph_Driver/src/stm32f10x_adc.c ****   {
 772:Drivers/STM32F10x_StdPeriph_Driver/src/stm32f10x_adc.c ****     /* Disable the selected ADC injected discontinuous mode */
 773:Drivers/STM32F10x_StdPeriph_Driver/src/stm32f10x_adc.c ****     ADCx->CR1 &= CR1_JDISCEN_Reset;
 1047              		.loc 1 773 5 is_stmt 1 view .LVU333
 1048              		.loc 1 773 9 is_stmt 0 view .LVU334
 1049 000c 4368     		ldr	r3, [r0, #4]
 1050              		.loc 1 773 15 view .LVU335
 1051 000e 23F48053 		bic	r3, r3, #4096
 1052 0012 4360     		str	r3, [r0, #4]
 774:Drivers/STM32F10x_StdPeriph_Driver/src/stm32f10x_adc.c ****   }
 775:Drivers/STM32F10x_StdPeriph_Driver/src/stm32f10x_adc.c **** }
 1053              		.loc 1 775 1 view .LVU336
 1054 0014 7047     		bx	lr
 1055              		.cfi_endproc
 1056              	.LFE84:
 1058              		.section	.text.ADC_ExternalTrigInjectedConvConfig,"ax",%progbits
 1059              		.align	1
 1060              		.global	ADC_ExternalTrigInjectedConvConfig
 1061              		.syntax unified
 1062              		.thumb
 1063              		.thumb_func
 1065              	ADC_ExternalTrigInjectedConvConfig:
 1066              	.LVL97:
 1067              	.LFB85:
 776:Drivers/STM32F10x_StdPeriph_Driver/src/stm32f10x_adc.c **** 
 777:Drivers/STM32F10x_StdPeriph_Driver/src/stm32f10x_adc.c **** /**
 778:Drivers/STM32F10x_StdPeriph_Driver/src/stm32f10x_adc.c ****   * @brief  Configures the ADCx external trigger for injected channels conversion.
 779:Drivers/STM32F10x_StdPeriph_Driver/src/stm32f10x_adc.c ****   * @param  ADCx: where x can be 1, 2 or 3 to select the ADC peripheral.
 780:Drivers/STM32F10x_StdPeriph_Driver/src/stm32f10x_adc.c ****   * @param  ADC_ExternalTrigInjecConv: specifies the ADC trigger to start injected conversion. 
 781:Drivers/STM32F10x_StdPeriph_Driver/src/stm32f10x_adc.c ****   *   This parameter can be one of the following values:
 782:Drivers/STM32F10x_StdPeriph_Driver/src/stm32f10x_adc.c ****   *     @arg ADC_ExternalTrigInjecConv_T1_TRGO: Timer1 TRGO event selected (for ADC1, ADC2 and ADC3
 783:Drivers/STM32F10x_StdPeriph_Driver/src/stm32f10x_adc.c ****   *     @arg ADC_ExternalTrigInjecConv_T1_CC4: Timer1 capture compare4 selected (for ADC1, ADC2 and
 784:Drivers/STM32F10x_StdPeriph_Driver/src/stm32f10x_adc.c ****   *     @arg ADC_ExternalTrigInjecConv_T2_TRGO: Timer2 TRGO event selected (for ADC1 and ADC2)
 785:Drivers/STM32F10x_StdPeriph_Driver/src/stm32f10x_adc.c ****   *     @arg ADC_ExternalTrigInjecConv_T2_CC1: Timer2 capture compare1 selected (for ADC1 and ADC2)
 786:Drivers/STM32F10x_StdPeriph_Driver/src/stm32f10x_adc.c ****   *     @arg ADC_ExternalTrigInjecConv_T3_CC4: Timer3 capture compare4 selected (for ADC1 and ADC2)
 787:Drivers/STM32F10x_StdPeriph_Driver/src/stm32f10x_adc.c ****   *     @arg ADC_ExternalTrigInjecConv_T4_TRGO: Timer4 TRGO event selected (for ADC1 and ADC2)
 788:Drivers/STM32F10x_StdPeriph_Driver/src/stm32f10x_adc.c ****   *     @arg ADC_ExternalTrigInjecConv_Ext_IT15_TIM8_CC4: External interrupt line 15 or Timer8
 789:Drivers/STM32F10x_StdPeriph_Driver/src/stm32f10x_adc.c ****   *                                                       capture compare4 event selected (for ADC1
 790:Drivers/STM32F10x_StdPeriph_Driver/src/stm32f10x_adc.c ****   *     @arg ADC_ExternalTrigInjecConv_T4_CC3: Timer4 capture compare3 selected (for ADC3 only)
 791:Drivers/STM32F10x_StdPeriph_Driver/src/stm32f10x_adc.c ****   *     @arg ADC_ExternalTrigInjecConv_T8_CC2: Timer8 capture compare2 selected (for ADC3 only)    
 792:Drivers/STM32F10x_StdPeriph_Driver/src/stm32f10x_adc.c ****   *     @arg ADC_ExternalTrigInjecConv_T8_CC4: Timer8 capture compare4 selected (for ADC3 only)
 793:Drivers/STM32F10x_StdPeriph_Driver/src/stm32f10x_adc.c ****   *     @arg ADC_ExternalTrigInjecConv_T5_TRGO: Timer5 TRGO event selected (for ADC3 only)         
 794:Drivers/STM32F10x_StdPeriph_Driver/src/stm32f10x_adc.c ****   *     @arg ADC_ExternalTrigInjecConv_T5_CC4: Timer5 capture compare4 selected (for ADC3 only)    
 795:Drivers/STM32F10x_StdPeriph_Driver/src/stm32f10x_adc.c ****   *     @arg ADC_ExternalTrigInjecConv_None: Injected conversion started by software and not
 796:Drivers/STM32F10x_StdPeriph_Driver/src/stm32f10x_adc.c ****   *                                          by external trigger (for ADC1, ADC2 and ADC3)
 797:Drivers/STM32F10x_StdPeriph_Driver/src/stm32f10x_adc.c ****   * @retval None
 798:Drivers/STM32F10x_StdPeriph_Driver/src/stm32f10x_adc.c ****   */
 799:Drivers/STM32F10x_StdPeriph_Driver/src/stm32f10x_adc.c **** void ADC_ExternalTrigInjectedConvConfig(ADC_TypeDef* ADCx, uint32_t ADC_ExternalTrigInjecConv)
 800:Drivers/STM32F10x_StdPeriph_Driver/src/stm32f10x_adc.c **** {
 1068              		.loc 1 800 1 is_stmt 1 view -0
ARM GAS  /tmp/ccJ7FcFp.s 			page 34


 1069              		.cfi_startproc
 1070              		@ args = 0, pretend = 0, frame = 0
 1071              		@ frame_needed = 0, uses_anonymous_args = 0
 1072              		@ link register save eliminated.
 801:Drivers/STM32F10x_StdPeriph_Driver/src/stm32f10x_adc.c ****   uint32_t tmpreg = 0;
 1073              		.loc 1 801 3 view .LVU338
 802:Drivers/STM32F10x_StdPeriph_Driver/src/stm32f10x_adc.c ****   /* Check the parameters */
 803:Drivers/STM32F10x_StdPeriph_Driver/src/stm32f10x_adc.c ****   assert_param(IS_ADC_ALL_PERIPH(ADCx));
 1074              		.loc 1 803 3 view .LVU339
 804:Drivers/STM32F10x_StdPeriph_Driver/src/stm32f10x_adc.c ****   assert_param(IS_ADC_EXT_INJEC_TRIG(ADC_ExternalTrigInjecConv));
 1075              		.loc 1 804 3 view .LVU340
 805:Drivers/STM32F10x_StdPeriph_Driver/src/stm32f10x_adc.c ****   /* Get the old register value */
 806:Drivers/STM32F10x_StdPeriph_Driver/src/stm32f10x_adc.c ****   tmpreg = ADCx->CR2;
 1076              		.loc 1 806 3 view .LVU341
 1077              		.loc 1 806 10 is_stmt 0 view .LVU342
 1078 0000 8368     		ldr	r3, [r0, #8]
 1079              	.LVL98:
 807:Drivers/STM32F10x_StdPeriph_Driver/src/stm32f10x_adc.c ****   /* Clear the old external event selection for injected group */
 808:Drivers/STM32F10x_StdPeriph_Driver/src/stm32f10x_adc.c ****   tmpreg &= CR2_JEXTSEL_Reset;
 1080              		.loc 1 808 3 is_stmt 1 view .LVU343
 1081              		.loc 1 808 10 is_stmt 0 view .LVU344
 1082 0002 23F4E043 		bic	r3, r3, #28672
 1083              	.LVL99:
 809:Drivers/STM32F10x_StdPeriph_Driver/src/stm32f10x_adc.c ****   /* Set the external event selection for injected group */
 810:Drivers/STM32F10x_StdPeriph_Driver/src/stm32f10x_adc.c ****   tmpreg |= ADC_ExternalTrigInjecConv;
 1084              		.loc 1 810 3 is_stmt 1 view .LVU345
 1085              		.loc 1 810 10 is_stmt 0 view .LVU346
 1086 0006 0B43     		orrs	r3, r3, r1
 1087              	.LVL100:
 811:Drivers/STM32F10x_StdPeriph_Driver/src/stm32f10x_adc.c ****   /* Store the new register value */
 812:Drivers/STM32F10x_StdPeriph_Driver/src/stm32f10x_adc.c ****   ADCx->CR2 = tmpreg;
 1088              		.loc 1 812 3 is_stmt 1 view .LVU347
 1089              		.loc 1 812 13 is_stmt 0 view .LVU348
 1090 0008 8360     		str	r3, [r0, #8]
 813:Drivers/STM32F10x_StdPeriph_Driver/src/stm32f10x_adc.c **** }
 1091              		.loc 1 813 1 view .LVU349
 1092 000a 7047     		bx	lr
 1093              		.cfi_endproc
 1094              	.LFE85:
 1096              		.section	.text.ADC_ExternalTrigInjectedConvCmd,"ax",%progbits
 1097              		.align	1
 1098              		.global	ADC_ExternalTrigInjectedConvCmd
 1099              		.syntax unified
 1100              		.thumb
 1101              		.thumb_func
 1103              	ADC_ExternalTrigInjectedConvCmd:
 1104              	.LVL101:
 1105              	.LFB86:
 814:Drivers/STM32F10x_StdPeriph_Driver/src/stm32f10x_adc.c **** 
 815:Drivers/STM32F10x_StdPeriph_Driver/src/stm32f10x_adc.c **** /**
 816:Drivers/STM32F10x_StdPeriph_Driver/src/stm32f10x_adc.c ****   * @brief  Enables or disables the ADCx injected channels conversion through
 817:Drivers/STM32F10x_StdPeriph_Driver/src/stm32f10x_adc.c ****   *         external trigger
 818:Drivers/STM32F10x_StdPeriph_Driver/src/stm32f10x_adc.c ****   * @param  ADCx: where x can be 1, 2 or 3 to select the ADC peripheral.
 819:Drivers/STM32F10x_StdPeriph_Driver/src/stm32f10x_adc.c ****   * @param  NewState: new state of the selected ADC external trigger start of
 820:Drivers/STM32F10x_StdPeriph_Driver/src/stm32f10x_adc.c ****   *         injected conversion.
 821:Drivers/STM32F10x_StdPeriph_Driver/src/stm32f10x_adc.c ****   *   This parameter can be: ENABLE or DISABLE.
 822:Drivers/STM32F10x_StdPeriph_Driver/src/stm32f10x_adc.c ****   * @retval None
ARM GAS  /tmp/ccJ7FcFp.s 			page 35


 823:Drivers/STM32F10x_StdPeriph_Driver/src/stm32f10x_adc.c ****   */
 824:Drivers/STM32F10x_StdPeriph_Driver/src/stm32f10x_adc.c **** void ADC_ExternalTrigInjectedConvCmd(ADC_TypeDef* ADCx, FunctionalState NewState)
 825:Drivers/STM32F10x_StdPeriph_Driver/src/stm32f10x_adc.c **** {
 1106              		.loc 1 825 1 is_stmt 1 view -0
 1107              		.cfi_startproc
 1108              		@ args = 0, pretend = 0, frame = 0
 1109              		@ frame_needed = 0, uses_anonymous_args = 0
 1110              		@ link register save eliminated.
 826:Drivers/STM32F10x_StdPeriph_Driver/src/stm32f10x_adc.c ****   /* Check the parameters */
 827:Drivers/STM32F10x_StdPeriph_Driver/src/stm32f10x_adc.c ****   assert_param(IS_ADC_ALL_PERIPH(ADCx));
 1111              		.loc 1 827 3 view .LVU351
 828:Drivers/STM32F10x_StdPeriph_Driver/src/stm32f10x_adc.c ****   assert_param(IS_FUNCTIONAL_STATE(NewState));
 1112              		.loc 1 828 3 view .LVU352
 829:Drivers/STM32F10x_StdPeriph_Driver/src/stm32f10x_adc.c ****   if (NewState != DISABLE)
 1113              		.loc 1 829 3 view .LVU353
 1114              		.loc 1 829 6 is_stmt 0 view .LVU354
 1115 0000 21B1     		cbz	r1, .L65
 830:Drivers/STM32F10x_StdPeriph_Driver/src/stm32f10x_adc.c ****   {
 831:Drivers/STM32F10x_StdPeriph_Driver/src/stm32f10x_adc.c ****     /* Enable the selected ADC external event selection for injected group */
 832:Drivers/STM32F10x_StdPeriph_Driver/src/stm32f10x_adc.c ****     ADCx->CR2 |= CR2_JEXTTRIG_Set;
 1116              		.loc 1 832 5 is_stmt 1 view .LVU355
 1117              		.loc 1 832 9 is_stmt 0 view .LVU356
 1118 0002 8368     		ldr	r3, [r0, #8]
 1119              		.loc 1 832 15 view .LVU357
 1120 0004 43F40043 		orr	r3, r3, #32768
 1121 0008 8360     		str	r3, [r0, #8]
 1122 000a 7047     		bx	lr
 1123              	.L65:
 833:Drivers/STM32F10x_StdPeriph_Driver/src/stm32f10x_adc.c ****   }
 834:Drivers/STM32F10x_StdPeriph_Driver/src/stm32f10x_adc.c ****   else
 835:Drivers/STM32F10x_StdPeriph_Driver/src/stm32f10x_adc.c ****   {
 836:Drivers/STM32F10x_StdPeriph_Driver/src/stm32f10x_adc.c ****     /* Disable the selected ADC external event selection for injected group */
 837:Drivers/STM32F10x_StdPeriph_Driver/src/stm32f10x_adc.c ****     ADCx->CR2 &= CR2_JEXTTRIG_Reset;
 1124              		.loc 1 837 5 is_stmt 1 view .LVU358
 1125              		.loc 1 837 9 is_stmt 0 view .LVU359
 1126 000c 8368     		ldr	r3, [r0, #8]
 1127              		.loc 1 837 15 view .LVU360
 1128 000e 23F40043 		bic	r3, r3, #32768
 1129 0012 8360     		str	r3, [r0, #8]
 838:Drivers/STM32F10x_StdPeriph_Driver/src/stm32f10x_adc.c ****   }
 839:Drivers/STM32F10x_StdPeriph_Driver/src/stm32f10x_adc.c **** }
 1130              		.loc 1 839 1 view .LVU361
 1131 0014 7047     		bx	lr
 1132              		.cfi_endproc
 1133              	.LFE86:
 1135              		.section	.text.ADC_SoftwareStartInjectedConvCmd,"ax",%progbits
 1136              		.align	1
 1137              		.global	ADC_SoftwareStartInjectedConvCmd
 1138              		.syntax unified
 1139              		.thumb
 1140              		.thumb_func
 1142              	ADC_SoftwareStartInjectedConvCmd:
 1143              	.LVL102:
 1144              	.LFB87:
 840:Drivers/STM32F10x_StdPeriph_Driver/src/stm32f10x_adc.c **** 
 841:Drivers/STM32F10x_StdPeriph_Driver/src/stm32f10x_adc.c **** /**
 842:Drivers/STM32F10x_StdPeriph_Driver/src/stm32f10x_adc.c ****   * @brief  Enables or disables the selected ADC start of the injected 
ARM GAS  /tmp/ccJ7FcFp.s 			page 36


 843:Drivers/STM32F10x_StdPeriph_Driver/src/stm32f10x_adc.c ****   *         channels conversion.
 844:Drivers/STM32F10x_StdPeriph_Driver/src/stm32f10x_adc.c ****   * @param  ADCx: where x can be 1, 2 or 3 to select the ADC peripheral.
 845:Drivers/STM32F10x_StdPeriph_Driver/src/stm32f10x_adc.c ****   * @param  NewState: new state of the selected ADC software start injected conversion.
 846:Drivers/STM32F10x_StdPeriph_Driver/src/stm32f10x_adc.c ****   *   This parameter can be: ENABLE or DISABLE.
 847:Drivers/STM32F10x_StdPeriph_Driver/src/stm32f10x_adc.c ****   * @retval None
 848:Drivers/STM32F10x_StdPeriph_Driver/src/stm32f10x_adc.c ****   */
 849:Drivers/STM32F10x_StdPeriph_Driver/src/stm32f10x_adc.c **** void ADC_SoftwareStartInjectedConvCmd(ADC_TypeDef* ADCx, FunctionalState NewState)
 850:Drivers/STM32F10x_StdPeriph_Driver/src/stm32f10x_adc.c **** {
 1145              		.loc 1 850 1 is_stmt 1 view -0
 1146              		.cfi_startproc
 1147              		@ args = 0, pretend = 0, frame = 0
 1148              		@ frame_needed = 0, uses_anonymous_args = 0
 1149              		@ link register save eliminated.
 851:Drivers/STM32F10x_StdPeriph_Driver/src/stm32f10x_adc.c ****   /* Check the parameters */
 852:Drivers/STM32F10x_StdPeriph_Driver/src/stm32f10x_adc.c ****   assert_param(IS_ADC_ALL_PERIPH(ADCx));
 1150              		.loc 1 852 3 view .LVU363
 853:Drivers/STM32F10x_StdPeriph_Driver/src/stm32f10x_adc.c ****   assert_param(IS_FUNCTIONAL_STATE(NewState));
 1151              		.loc 1 853 3 view .LVU364
 854:Drivers/STM32F10x_StdPeriph_Driver/src/stm32f10x_adc.c ****   if (NewState != DISABLE)
 1152              		.loc 1 854 3 view .LVU365
 1153              		.loc 1 854 6 is_stmt 0 view .LVU366
 1154 0000 21B1     		cbz	r1, .L68
 855:Drivers/STM32F10x_StdPeriph_Driver/src/stm32f10x_adc.c ****   {
 856:Drivers/STM32F10x_StdPeriph_Driver/src/stm32f10x_adc.c ****     /* Enable the selected ADC conversion for injected group on external event and start the select
 857:Drivers/STM32F10x_StdPeriph_Driver/src/stm32f10x_adc.c ****        ADC injected conversion */
 858:Drivers/STM32F10x_StdPeriph_Driver/src/stm32f10x_adc.c ****     ADCx->CR2 |= CR2_JEXTTRIG_JSWSTART_Set;
 1155              		.loc 1 858 5 is_stmt 1 view .LVU367
 1156              		.loc 1 858 9 is_stmt 0 view .LVU368
 1157 0002 8368     		ldr	r3, [r0, #8]
 1158              		.loc 1 858 15 view .LVU369
 1159 0004 43F40213 		orr	r3, r3, #2129920
 1160 0008 8360     		str	r3, [r0, #8]
 1161 000a 7047     		bx	lr
 1162              	.L68:
 859:Drivers/STM32F10x_StdPeriph_Driver/src/stm32f10x_adc.c ****   }
 860:Drivers/STM32F10x_StdPeriph_Driver/src/stm32f10x_adc.c ****   else
 861:Drivers/STM32F10x_StdPeriph_Driver/src/stm32f10x_adc.c ****   {
 862:Drivers/STM32F10x_StdPeriph_Driver/src/stm32f10x_adc.c ****     /* Disable the selected ADC conversion on external event for injected group and stop the select
 863:Drivers/STM32F10x_StdPeriph_Driver/src/stm32f10x_adc.c ****        ADC injected conversion */
 864:Drivers/STM32F10x_StdPeriph_Driver/src/stm32f10x_adc.c ****     ADCx->CR2 &= CR2_JEXTTRIG_JSWSTART_Reset;
 1163              		.loc 1 864 5 is_stmt 1 view .LVU370
 1164              		.loc 1 864 9 is_stmt 0 view .LVU371
 1165 000c 8368     		ldr	r3, [r0, #8]
 1166              		.loc 1 864 15 view .LVU372
 1167 000e 23F40213 		bic	r3, r3, #2129920
 1168 0012 8360     		str	r3, [r0, #8]
 865:Drivers/STM32F10x_StdPeriph_Driver/src/stm32f10x_adc.c ****   }
 866:Drivers/STM32F10x_StdPeriph_Driver/src/stm32f10x_adc.c **** }
 1169              		.loc 1 866 1 view .LVU373
 1170 0014 7047     		bx	lr
 1171              		.cfi_endproc
 1172              	.LFE87:
 1174              		.section	.text.ADC_GetSoftwareStartInjectedConvCmdStatus,"ax",%progbits
 1175              		.align	1
 1176              		.global	ADC_GetSoftwareStartInjectedConvCmdStatus
 1177              		.syntax unified
 1178              		.thumb
ARM GAS  /tmp/ccJ7FcFp.s 			page 37


 1179              		.thumb_func
 1181              	ADC_GetSoftwareStartInjectedConvCmdStatus:
 1182              	.LVL103:
 1183              	.LFB88:
 867:Drivers/STM32F10x_StdPeriph_Driver/src/stm32f10x_adc.c **** 
 868:Drivers/STM32F10x_StdPeriph_Driver/src/stm32f10x_adc.c **** /**
 869:Drivers/STM32F10x_StdPeriph_Driver/src/stm32f10x_adc.c ****   * @brief  Gets the selected ADC Software start injected conversion Status.
 870:Drivers/STM32F10x_StdPeriph_Driver/src/stm32f10x_adc.c ****   * @param  ADCx: where x can be 1, 2 or 3 to select the ADC peripheral.
 871:Drivers/STM32F10x_StdPeriph_Driver/src/stm32f10x_adc.c ****   * @retval The new state of ADC software start injected conversion (SET or RESET).
 872:Drivers/STM32F10x_StdPeriph_Driver/src/stm32f10x_adc.c ****   */
 873:Drivers/STM32F10x_StdPeriph_Driver/src/stm32f10x_adc.c **** FlagStatus ADC_GetSoftwareStartInjectedConvCmdStatus(ADC_TypeDef* ADCx)
 874:Drivers/STM32F10x_StdPeriph_Driver/src/stm32f10x_adc.c **** {
 1184              		.loc 1 874 1 is_stmt 1 view -0
 1185              		.cfi_startproc
 1186              		@ args = 0, pretend = 0, frame = 0
 1187              		@ frame_needed = 0, uses_anonymous_args = 0
 1188              		@ link register save eliminated.
 875:Drivers/STM32F10x_StdPeriph_Driver/src/stm32f10x_adc.c ****   FlagStatus bitstatus = RESET;
 1189              		.loc 1 875 3 view .LVU375
 876:Drivers/STM32F10x_StdPeriph_Driver/src/stm32f10x_adc.c ****   /* Check the parameters */
 877:Drivers/STM32F10x_StdPeriph_Driver/src/stm32f10x_adc.c ****   assert_param(IS_ADC_ALL_PERIPH(ADCx));
 1190              		.loc 1 877 3 view .LVU376
 878:Drivers/STM32F10x_StdPeriph_Driver/src/stm32f10x_adc.c ****   /* Check the status of JSWSTART bit */
 879:Drivers/STM32F10x_StdPeriph_Driver/src/stm32f10x_adc.c ****   if ((ADCx->CR2 & CR2_JSWSTART_Set) != (uint32_t)RESET)
 1191              		.loc 1 879 3 view .LVU377
 1192              		.loc 1 879 12 is_stmt 0 view .LVU378
 1193 0000 8368     		ldr	r3, [r0, #8]
 1194              		.loc 1 879 6 view .LVU379
 1195 0002 13F4001F 		tst	r3, #2097152
 1196 0006 01D0     		beq	.L72
 880:Drivers/STM32F10x_StdPeriph_Driver/src/stm32f10x_adc.c ****   {
 881:Drivers/STM32F10x_StdPeriph_Driver/src/stm32f10x_adc.c ****     /* JSWSTART bit is set */
 882:Drivers/STM32F10x_StdPeriph_Driver/src/stm32f10x_adc.c ****     bitstatus = SET;
 1197              		.loc 1 882 15 view .LVU380
 1198 0008 0120     		movs	r0, #1
 1199              	.LVL104:
 1200              		.loc 1 882 15 view .LVU381
 1201 000a 7047     		bx	lr
 1202              	.LVL105:
 1203              	.L72:
 883:Drivers/STM32F10x_StdPeriph_Driver/src/stm32f10x_adc.c ****   }
 884:Drivers/STM32F10x_StdPeriph_Driver/src/stm32f10x_adc.c ****   else
 885:Drivers/STM32F10x_StdPeriph_Driver/src/stm32f10x_adc.c ****   {
 886:Drivers/STM32F10x_StdPeriph_Driver/src/stm32f10x_adc.c ****     /* JSWSTART bit is reset */
 887:Drivers/STM32F10x_StdPeriph_Driver/src/stm32f10x_adc.c ****     bitstatus = RESET;
 1204              		.loc 1 887 15 view .LVU382
 1205 000c 0020     		movs	r0, #0
 1206              	.LVL106:
 888:Drivers/STM32F10x_StdPeriph_Driver/src/stm32f10x_adc.c ****   }
 889:Drivers/STM32F10x_StdPeriph_Driver/src/stm32f10x_adc.c ****   /* Return the JSWSTART bit status */
 890:Drivers/STM32F10x_StdPeriph_Driver/src/stm32f10x_adc.c ****   return  bitstatus;
 1207              		.loc 1 890 3 is_stmt 1 view .LVU383
 891:Drivers/STM32F10x_StdPeriph_Driver/src/stm32f10x_adc.c **** }
 1208              		.loc 1 891 1 is_stmt 0 view .LVU384
 1209 000e 7047     		bx	lr
 1210              		.cfi_endproc
 1211              	.LFE88:
ARM GAS  /tmp/ccJ7FcFp.s 			page 38


 1213              		.section	.text.ADC_InjectedChannelConfig,"ax",%progbits
 1214              		.align	1
 1215              		.global	ADC_InjectedChannelConfig
 1216              		.syntax unified
 1217              		.thumb
 1218              		.thumb_func
 1220              	ADC_InjectedChannelConfig:
 1221              	.LVL107:
 1222              	.LFB89:
 892:Drivers/STM32F10x_StdPeriph_Driver/src/stm32f10x_adc.c **** 
 893:Drivers/STM32F10x_StdPeriph_Driver/src/stm32f10x_adc.c **** /**
 894:Drivers/STM32F10x_StdPeriph_Driver/src/stm32f10x_adc.c ****   * @brief  Configures for the selected ADC injected channel its corresponding
 895:Drivers/STM32F10x_StdPeriph_Driver/src/stm32f10x_adc.c ****   *         rank in the sequencer and its sample time.
 896:Drivers/STM32F10x_StdPeriph_Driver/src/stm32f10x_adc.c ****   * @param  ADCx: where x can be 1, 2 or 3 to select the ADC peripheral.
 897:Drivers/STM32F10x_StdPeriph_Driver/src/stm32f10x_adc.c ****   * @param  ADC_Channel: the ADC channel to configure. 
 898:Drivers/STM32F10x_StdPeriph_Driver/src/stm32f10x_adc.c ****   *   This parameter can be one of the following values:
 899:Drivers/STM32F10x_StdPeriph_Driver/src/stm32f10x_adc.c ****   *     @arg ADC_Channel_0: ADC Channel0 selected
 900:Drivers/STM32F10x_StdPeriph_Driver/src/stm32f10x_adc.c ****   *     @arg ADC_Channel_1: ADC Channel1 selected
 901:Drivers/STM32F10x_StdPeriph_Driver/src/stm32f10x_adc.c ****   *     @arg ADC_Channel_2: ADC Channel2 selected
 902:Drivers/STM32F10x_StdPeriph_Driver/src/stm32f10x_adc.c ****   *     @arg ADC_Channel_3: ADC Channel3 selected
 903:Drivers/STM32F10x_StdPeriph_Driver/src/stm32f10x_adc.c ****   *     @arg ADC_Channel_4: ADC Channel4 selected
 904:Drivers/STM32F10x_StdPeriph_Driver/src/stm32f10x_adc.c ****   *     @arg ADC_Channel_5: ADC Channel5 selected
 905:Drivers/STM32F10x_StdPeriph_Driver/src/stm32f10x_adc.c ****   *     @arg ADC_Channel_6: ADC Channel6 selected
 906:Drivers/STM32F10x_StdPeriph_Driver/src/stm32f10x_adc.c ****   *     @arg ADC_Channel_7: ADC Channel7 selected
 907:Drivers/STM32F10x_StdPeriph_Driver/src/stm32f10x_adc.c ****   *     @arg ADC_Channel_8: ADC Channel8 selected
 908:Drivers/STM32F10x_StdPeriph_Driver/src/stm32f10x_adc.c ****   *     @arg ADC_Channel_9: ADC Channel9 selected
 909:Drivers/STM32F10x_StdPeriph_Driver/src/stm32f10x_adc.c ****   *     @arg ADC_Channel_10: ADC Channel10 selected
 910:Drivers/STM32F10x_StdPeriph_Driver/src/stm32f10x_adc.c ****   *     @arg ADC_Channel_11: ADC Channel11 selected
 911:Drivers/STM32F10x_StdPeriph_Driver/src/stm32f10x_adc.c ****   *     @arg ADC_Channel_12: ADC Channel12 selected
 912:Drivers/STM32F10x_StdPeriph_Driver/src/stm32f10x_adc.c ****   *     @arg ADC_Channel_13: ADC Channel13 selected
 913:Drivers/STM32F10x_StdPeriph_Driver/src/stm32f10x_adc.c ****   *     @arg ADC_Channel_14: ADC Channel14 selected
 914:Drivers/STM32F10x_StdPeriph_Driver/src/stm32f10x_adc.c ****   *     @arg ADC_Channel_15: ADC Channel15 selected
 915:Drivers/STM32F10x_StdPeriph_Driver/src/stm32f10x_adc.c ****   *     @arg ADC_Channel_16: ADC Channel16 selected
 916:Drivers/STM32F10x_StdPeriph_Driver/src/stm32f10x_adc.c ****   *     @arg ADC_Channel_17: ADC Channel17 selected
 917:Drivers/STM32F10x_StdPeriph_Driver/src/stm32f10x_adc.c ****   * @param  Rank: The rank in the injected group sequencer. This parameter must be between 1 and 4.
 918:Drivers/STM32F10x_StdPeriph_Driver/src/stm32f10x_adc.c ****   * @param  ADC_SampleTime: The sample time value to be set for the selected channel. 
 919:Drivers/STM32F10x_StdPeriph_Driver/src/stm32f10x_adc.c ****   *   This parameter can be one of the following values:
 920:Drivers/STM32F10x_StdPeriph_Driver/src/stm32f10x_adc.c ****   *     @arg ADC_SampleTime_1Cycles5: Sample time equal to 1.5 cycles
 921:Drivers/STM32F10x_StdPeriph_Driver/src/stm32f10x_adc.c ****   *     @arg ADC_SampleTime_7Cycles5: Sample time equal to 7.5 cycles
 922:Drivers/STM32F10x_StdPeriph_Driver/src/stm32f10x_adc.c ****   *     @arg ADC_SampleTime_13Cycles5: Sample time equal to 13.5 cycles
 923:Drivers/STM32F10x_StdPeriph_Driver/src/stm32f10x_adc.c ****   *     @arg ADC_SampleTime_28Cycles5: Sample time equal to 28.5 cycles	
 924:Drivers/STM32F10x_StdPeriph_Driver/src/stm32f10x_adc.c ****   *     @arg ADC_SampleTime_41Cycles5: Sample time equal to 41.5 cycles	
 925:Drivers/STM32F10x_StdPeriph_Driver/src/stm32f10x_adc.c ****   *     @arg ADC_SampleTime_55Cycles5: Sample time equal to 55.5 cycles	
 926:Drivers/STM32F10x_StdPeriph_Driver/src/stm32f10x_adc.c ****   *     @arg ADC_SampleTime_71Cycles5: Sample time equal to 71.5 cycles	
 927:Drivers/STM32F10x_StdPeriph_Driver/src/stm32f10x_adc.c ****   *     @arg ADC_SampleTime_239Cycles5: Sample time equal to 239.5 cycles	
 928:Drivers/STM32F10x_StdPeriph_Driver/src/stm32f10x_adc.c ****   * @retval None
 929:Drivers/STM32F10x_StdPeriph_Driver/src/stm32f10x_adc.c ****   */
 930:Drivers/STM32F10x_StdPeriph_Driver/src/stm32f10x_adc.c **** void ADC_InjectedChannelConfig(ADC_TypeDef* ADCx, uint8_t ADC_Channel, uint8_t Rank, uint8_t ADC_Sa
 931:Drivers/STM32F10x_StdPeriph_Driver/src/stm32f10x_adc.c **** {
 1223              		.loc 1 931 1 is_stmt 1 view -0
 1224              		.cfi_startproc
 1225              		@ args = 0, pretend = 0, frame = 0
 1226              		@ frame_needed = 0, uses_anonymous_args = 0
 1227              		.loc 1 931 1 is_stmt 0 view .LVU386
 1228 0000 10B5     		push	{r4, lr}
 1229              	.LCFI4:
 1230              		.cfi_def_cfa_offset 8
ARM GAS  /tmp/ccJ7FcFp.s 			page 39


 1231              		.cfi_offset 4, -8
 1232              		.cfi_offset 14, -4
 1233 0002 1C46     		mov	r4, r3
 932:Drivers/STM32F10x_StdPeriph_Driver/src/stm32f10x_adc.c ****   uint32_t tmpreg1 = 0, tmpreg2 = 0, tmpreg3 = 0;
 1234              		.loc 1 932 3 is_stmt 1 view .LVU387
 1235              	.LVL108:
 933:Drivers/STM32F10x_StdPeriph_Driver/src/stm32f10x_adc.c ****   /* Check the parameters */
 934:Drivers/STM32F10x_StdPeriph_Driver/src/stm32f10x_adc.c ****   assert_param(IS_ADC_ALL_PERIPH(ADCx));
 1236              		.loc 1 934 3 view .LVU388
 935:Drivers/STM32F10x_StdPeriph_Driver/src/stm32f10x_adc.c ****   assert_param(IS_ADC_CHANNEL(ADC_Channel));
 1237              		.loc 1 935 3 view .LVU389
 936:Drivers/STM32F10x_StdPeriph_Driver/src/stm32f10x_adc.c ****   assert_param(IS_ADC_INJECTED_RANK(Rank));
 1238              		.loc 1 936 3 view .LVU390
 937:Drivers/STM32F10x_StdPeriph_Driver/src/stm32f10x_adc.c ****   assert_param(IS_ADC_SAMPLE_TIME(ADC_SampleTime));
 1239              		.loc 1 937 3 view .LVU391
 938:Drivers/STM32F10x_StdPeriph_Driver/src/stm32f10x_adc.c ****   /* if ADC_Channel_10 ... ADC_Channel_17 is selected */
 939:Drivers/STM32F10x_StdPeriph_Driver/src/stm32f10x_adc.c ****   if (ADC_Channel > ADC_Channel_9)
 1240              		.loc 1 939 3 view .LVU392
 1241              		.loc 1 939 6 is_stmt 0 view .LVU393
 1242 0004 0929     		cmp	r1, #9
 1243 0006 22D9     		bls	.L74
 940:Drivers/STM32F10x_StdPeriph_Driver/src/stm32f10x_adc.c ****   {
 941:Drivers/STM32F10x_StdPeriph_Driver/src/stm32f10x_adc.c ****     /* Get the old register value */
 942:Drivers/STM32F10x_StdPeriph_Driver/src/stm32f10x_adc.c ****     tmpreg1 = ADCx->SMPR1;
 1244              		.loc 1 942 5 is_stmt 1 view .LVU394
 1245              		.loc 1 942 13 is_stmt 0 view .LVU395
 1246 0008 C368     		ldr	r3, [r0, #12]
 1247              	.LVL109:
 943:Drivers/STM32F10x_StdPeriph_Driver/src/stm32f10x_adc.c ****     /* Calculate the mask to clear */
 944:Drivers/STM32F10x_StdPeriph_Driver/src/stm32f10x_adc.c ****     tmpreg2 = SMPR1_SMP_Set << (3*(ADC_Channel - 10));
 1248              		.loc 1 944 5 is_stmt 1 view .LVU396
 1249              		.loc 1 944 48 is_stmt 0 view .LVU397
 1250 000a A1F10A0C 		sub	ip, r1, #10
 1251              		.loc 1 944 34 view .LVU398
 1252 000e 0CEB4C0C 		add	ip, ip, ip, lsl #1
 1253              		.loc 1 944 13 view .LVU399
 1254 0012 4FF0070E 		mov	lr, #7
 1255 0016 0EFA0CFE 		lsl	lr, lr, ip
 1256              	.LVL110:
 945:Drivers/STM32F10x_StdPeriph_Driver/src/stm32f10x_adc.c ****     /* Clear the old channel sample time */
 946:Drivers/STM32F10x_StdPeriph_Driver/src/stm32f10x_adc.c ****     tmpreg1 &= ~tmpreg2;
 1257              		.loc 1 946 5 is_stmt 1 view .LVU400
 1258              		.loc 1 946 13 is_stmt 0 view .LVU401
 1259 001a 23EA0E0E 		bic	lr, r3, lr
 1260              	.LVL111:
 947:Drivers/STM32F10x_StdPeriph_Driver/src/stm32f10x_adc.c ****     /* Calculate the mask to set */
 948:Drivers/STM32F10x_StdPeriph_Driver/src/stm32f10x_adc.c ****     tmpreg2 = (uint32_t)ADC_SampleTime << (3*(ADC_Channel - 10));
 1261              		.loc 1 948 5 is_stmt 1 view .LVU402
 1262              		.loc 1 948 13 is_stmt 0 view .LVU403
 1263 001e 04FA0CFC 		lsl	ip, r4, ip
 1264              	.LVL112:
 949:Drivers/STM32F10x_StdPeriph_Driver/src/stm32f10x_adc.c ****     /* Set the new channel sample time */
 950:Drivers/STM32F10x_StdPeriph_Driver/src/stm32f10x_adc.c ****     tmpreg1 |= tmpreg2;
 1265              		.loc 1 950 5 is_stmt 1 view .LVU404
 1266              		.loc 1 950 13 is_stmt 0 view .LVU405
 1267 0022 4EEA0C03 		orr	r3, lr, ip
 1268              	.LVL113:
ARM GAS  /tmp/ccJ7FcFp.s 			page 40


 951:Drivers/STM32F10x_StdPeriph_Driver/src/stm32f10x_adc.c ****     /* Store the new register value */
 952:Drivers/STM32F10x_StdPeriph_Driver/src/stm32f10x_adc.c ****     ADCx->SMPR1 = tmpreg1;
 1269              		.loc 1 952 5 is_stmt 1 view .LVU406
 1270              		.loc 1 952 17 is_stmt 0 view .LVU407
 1271 0026 C360     		str	r3, [r0, #12]
 1272              	.LVL114:
 1273              	.L75:
 953:Drivers/STM32F10x_StdPeriph_Driver/src/stm32f10x_adc.c ****   }
 954:Drivers/STM32F10x_StdPeriph_Driver/src/stm32f10x_adc.c ****   else /* ADC_Channel include in ADC_Channel_[0..9] */
 955:Drivers/STM32F10x_StdPeriph_Driver/src/stm32f10x_adc.c ****   {
 956:Drivers/STM32F10x_StdPeriph_Driver/src/stm32f10x_adc.c ****     /* Get the old register value */
 957:Drivers/STM32F10x_StdPeriph_Driver/src/stm32f10x_adc.c ****     tmpreg1 = ADCx->SMPR2;
 958:Drivers/STM32F10x_StdPeriph_Driver/src/stm32f10x_adc.c ****     /* Calculate the mask to clear */
 959:Drivers/STM32F10x_StdPeriph_Driver/src/stm32f10x_adc.c ****     tmpreg2 = SMPR2_SMP_Set << (3 * ADC_Channel);
 960:Drivers/STM32F10x_StdPeriph_Driver/src/stm32f10x_adc.c ****     /* Clear the old channel sample time */
 961:Drivers/STM32F10x_StdPeriph_Driver/src/stm32f10x_adc.c ****     tmpreg1 &= ~tmpreg2;
 962:Drivers/STM32F10x_StdPeriph_Driver/src/stm32f10x_adc.c ****     /* Calculate the mask to set */
 963:Drivers/STM32F10x_StdPeriph_Driver/src/stm32f10x_adc.c ****     tmpreg2 = (uint32_t)ADC_SampleTime << (3 * ADC_Channel);
 964:Drivers/STM32F10x_StdPeriph_Driver/src/stm32f10x_adc.c ****     /* Set the new channel sample time */
 965:Drivers/STM32F10x_StdPeriph_Driver/src/stm32f10x_adc.c ****     tmpreg1 |= tmpreg2;
 966:Drivers/STM32F10x_StdPeriph_Driver/src/stm32f10x_adc.c ****     /* Store the new register value */
 967:Drivers/STM32F10x_StdPeriph_Driver/src/stm32f10x_adc.c ****     ADCx->SMPR2 = tmpreg1;
 968:Drivers/STM32F10x_StdPeriph_Driver/src/stm32f10x_adc.c ****   }
 969:Drivers/STM32F10x_StdPeriph_Driver/src/stm32f10x_adc.c ****   /* Rank configuration */
 970:Drivers/STM32F10x_StdPeriph_Driver/src/stm32f10x_adc.c ****   /* Get the old register value */
 971:Drivers/STM32F10x_StdPeriph_Driver/src/stm32f10x_adc.c ****   tmpreg1 = ADCx->JSQR;
 1274              		.loc 1 971 3 is_stmt 1 view .LVU408
 1275              		.loc 1 971 11 is_stmt 0 view .LVU409
 1276 0028 D0F838C0 		ldr	ip, [r0, #56]
 1277              	.LVL115:
 972:Drivers/STM32F10x_StdPeriph_Driver/src/stm32f10x_adc.c ****   /* Get JL value: Number = JL+1 */
 973:Drivers/STM32F10x_StdPeriph_Driver/src/stm32f10x_adc.c ****   tmpreg3 =  (tmpreg1 & JSQR_JL_Set)>> 20;
 1278              		.loc 1 973 3 is_stmt 1 view .LVU410
 1279              		.loc 1 973 11 is_stmt 0 view .LVU411
 1280 002c CCF30153 		ubfx	r3, ip, #20, #2
 1281              	.LVL116:
 974:Drivers/STM32F10x_StdPeriph_Driver/src/stm32f10x_adc.c ****   /* Calculate the mask to clear: ((Rank-1)+(4-JL-1)) */
 975:Drivers/STM32F10x_StdPeriph_Driver/src/stm32f10x_adc.c ****   tmpreg2 = JSQR_JSQ_Set << (5 * (uint8_t)((Rank + 3) - (tmpreg3 + 1)));
 1282              		.loc 1 975 3 is_stmt 1 view .LVU412
 1283              		.loc 1 975 55 is_stmt 0 view .LVU413
 1284 0030 D31A     		subs	r3, r2, r3
 1285              	.LVL117:
 1286              		.loc 1 975 55 view .LVU414
 1287 0032 DBB2     		uxtb	r3, r3
 1288              		.loc 1 975 34 view .LVU415
 1289 0034 0233     		adds	r3, r3, #2
 1290 0036 DBB2     		uxtb	r3, r3
 1291              		.loc 1 975 32 view .LVU416
 1292 0038 03EB8303 		add	r3, r3, r3, lsl #2
 1293              		.loc 1 975 11 view .LVU417
 1294 003c 1F22     		movs	r2, #31
 1295              	.LVL118:
 1296              		.loc 1 975 11 view .LVU418
 1297 003e 9A40     		lsls	r2, r2, r3
 1298              	.LVL119:
 976:Drivers/STM32F10x_StdPeriph_Driver/src/stm32f10x_adc.c ****   /* Clear the old JSQx bits for the selected rank */
 977:Drivers/STM32F10x_StdPeriph_Driver/src/stm32f10x_adc.c ****   tmpreg1 &= ~tmpreg2;
ARM GAS  /tmp/ccJ7FcFp.s 			page 41


 1299              		.loc 1 977 3 is_stmt 1 view .LVU419
 1300              		.loc 1 977 11 is_stmt 0 view .LVU420
 1301 0040 2CEA020C 		bic	ip, ip, r2
 1302              	.LVL120:
 978:Drivers/STM32F10x_StdPeriph_Driver/src/stm32f10x_adc.c ****   /* Calculate the mask to set: ((Rank-1)+(4-JL-1)) */
 979:Drivers/STM32F10x_StdPeriph_Driver/src/stm32f10x_adc.c ****   tmpreg2 = (uint32_t)ADC_Channel << (5 * (uint8_t)((Rank + 3) - (tmpreg3 + 1)));
 1303              		.loc 1 979 3 is_stmt 1 view .LVU421
 1304              		.loc 1 979 11 is_stmt 0 view .LVU422
 1305 0044 9940     		lsls	r1, r1, r3
 1306              	.LVL121:
 980:Drivers/STM32F10x_StdPeriph_Driver/src/stm32f10x_adc.c ****   /* Set the JSQx bits for the selected rank */
 981:Drivers/STM32F10x_StdPeriph_Driver/src/stm32f10x_adc.c ****   tmpreg1 |= tmpreg2;
 1307              		.loc 1 981 3 is_stmt 1 view .LVU423
 1308              		.loc 1 981 11 is_stmt 0 view .LVU424
 1309 0046 4CEA0101 		orr	r1, ip, r1
 1310              	.LVL122:
 982:Drivers/STM32F10x_StdPeriph_Driver/src/stm32f10x_adc.c ****   /* Store the new register value */
 983:Drivers/STM32F10x_StdPeriph_Driver/src/stm32f10x_adc.c ****   ADCx->JSQR = tmpreg1;
 1311              		.loc 1 983 3 is_stmt 1 view .LVU425
 1312              		.loc 1 983 14 is_stmt 0 view .LVU426
 1313 004a 8163     		str	r1, [r0, #56]
 984:Drivers/STM32F10x_StdPeriph_Driver/src/stm32f10x_adc.c **** }
 1314              		.loc 1 984 1 view .LVU427
 1315 004c 10BD     		pop	{r4, pc}
 1316              	.LVL123:
 1317              	.L74:
 957:Drivers/STM32F10x_StdPeriph_Driver/src/stm32f10x_adc.c ****     /* Calculate the mask to clear */
 1318              		.loc 1 957 5 is_stmt 1 view .LVU428
 957:Drivers/STM32F10x_StdPeriph_Driver/src/stm32f10x_adc.c ****     /* Calculate the mask to clear */
 1319              		.loc 1 957 13 is_stmt 0 view .LVU429
 1320 004e D0F810C0 		ldr	ip, [r0, #16]
 1321              	.LVL124:
 959:Drivers/STM32F10x_StdPeriph_Driver/src/stm32f10x_adc.c ****     /* Clear the old channel sample time */
 1322              		.loc 1 959 5 is_stmt 1 view .LVU430
 959:Drivers/STM32F10x_StdPeriph_Driver/src/stm32f10x_adc.c ****     /* Clear the old channel sample time */
 1323              		.loc 1 959 35 is_stmt 0 view .LVU431
 1324 0052 01EB4103 		add	r3, r1, r1, lsl #1
 1325              	.LVL125:
 959:Drivers/STM32F10x_StdPeriph_Driver/src/stm32f10x_adc.c ****     /* Clear the old channel sample time */
 1326              		.loc 1 959 13 view .LVU432
 1327 0056 4FF0070E 		mov	lr, #7
 1328 005a 0EFA03FE 		lsl	lr, lr, r3
 1329              	.LVL126:
 961:Drivers/STM32F10x_StdPeriph_Driver/src/stm32f10x_adc.c ****     /* Calculate the mask to set */
 1330              		.loc 1 961 5 is_stmt 1 view .LVU433
 961:Drivers/STM32F10x_StdPeriph_Driver/src/stm32f10x_adc.c ****     /* Calculate the mask to set */
 1331              		.loc 1 961 13 is_stmt 0 view .LVU434
 1332 005e 2CEA0E0C 		bic	ip, ip, lr
 1333              	.LVL127:
 963:Drivers/STM32F10x_StdPeriph_Driver/src/stm32f10x_adc.c ****     /* Set the new channel sample time */
 1334              		.loc 1 963 5 is_stmt 1 view .LVU435
 963:Drivers/STM32F10x_StdPeriph_Driver/src/stm32f10x_adc.c ****     /* Set the new channel sample time */
 1335              		.loc 1 963 13 is_stmt 0 view .LVU436
 1336 0062 9C40     		lsls	r4, r4, r3
 1337              	.LVL128:
 965:Drivers/STM32F10x_StdPeriph_Driver/src/stm32f10x_adc.c ****     /* Store the new register value */
 1338              		.loc 1 965 5 is_stmt 1 view .LVU437
ARM GAS  /tmp/ccJ7FcFp.s 			page 42


 965:Drivers/STM32F10x_StdPeriph_Driver/src/stm32f10x_adc.c ****     /* Store the new register value */
 1339              		.loc 1 965 13 is_stmt 0 view .LVU438
 1340 0064 4CEA0403 		orr	r3, ip, r4
 1341              	.LVL129:
 967:Drivers/STM32F10x_StdPeriph_Driver/src/stm32f10x_adc.c ****   }
 1342              		.loc 1 967 5 is_stmt 1 view .LVU439
 967:Drivers/STM32F10x_StdPeriph_Driver/src/stm32f10x_adc.c ****   }
 1343              		.loc 1 967 17 is_stmt 0 view .LVU440
 1344 0068 0361     		str	r3, [r0, #16]
 1345 006a DDE7     		b	.L75
 1346              		.cfi_endproc
 1347              	.LFE89:
 1349              		.section	.text.ADC_InjectedSequencerLengthConfig,"ax",%progbits
 1350              		.align	1
 1351              		.global	ADC_InjectedSequencerLengthConfig
 1352              		.syntax unified
 1353              		.thumb
 1354              		.thumb_func
 1356              	ADC_InjectedSequencerLengthConfig:
 1357              	.LVL130:
 1358              	.LFB90:
 985:Drivers/STM32F10x_StdPeriph_Driver/src/stm32f10x_adc.c **** 
 986:Drivers/STM32F10x_StdPeriph_Driver/src/stm32f10x_adc.c **** /**
 987:Drivers/STM32F10x_StdPeriph_Driver/src/stm32f10x_adc.c ****   * @brief  Configures the sequencer length for injected channels
 988:Drivers/STM32F10x_StdPeriph_Driver/src/stm32f10x_adc.c ****   * @param  ADCx: where x can be 1, 2 or 3 to select the ADC peripheral.
 989:Drivers/STM32F10x_StdPeriph_Driver/src/stm32f10x_adc.c ****   * @param  Length: The sequencer length. 
 990:Drivers/STM32F10x_StdPeriph_Driver/src/stm32f10x_adc.c ****   *   This parameter must be a number between 1 to 4.
 991:Drivers/STM32F10x_StdPeriph_Driver/src/stm32f10x_adc.c ****   * @retval None
 992:Drivers/STM32F10x_StdPeriph_Driver/src/stm32f10x_adc.c ****   */
 993:Drivers/STM32F10x_StdPeriph_Driver/src/stm32f10x_adc.c **** void ADC_InjectedSequencerLengthConfig(ADC_TypeDef* ADCx, uint8_t Length)
 994:Drivers/STM32F10x_StdPeriph_Driver/src/stm32f10x_adc.c **** {
 1359              		.loc 1 994 1 is_stmt 1 view -0
 1360              		.cfi_startproc
 1361              		@ args = 0, pretend = 0, frame = 0
 1362              		@ frame_needed = 0, uses_anonymous_args = 0
 1363              		@ link register save eliminated.
 995:Drivers/STM32F10x_StdPeriph_Driver/src/stm32f10x_adc.c ****   uint32_t tmpreg1 = 0;
 1364              		.loc 1 995 3 view .LVU442
 996:Drivers/STM32F10x_StdPeriph_Driver/src/stm32f10x_adc.c ****   uint32_t tmpreg2 = 0;
 1365              		.loc 1 996 3 view .LVU443
 997:Drivers/STM32F10x_StdPeriph_Driver/src/stm32f10x_adc.c ****   /* Check the parameters */
 998:Drivers/STM32F10x_StdPeriph_Driver/src/stm32f10x_adc.c ****   assert_param(IS_ADC_ALL_PERIPH(ADCx));
 1366              		.loc 1 998 3 view .LVU444
 999:Drivers/STM32F10x_StdPeriph_Driver/src/stm32f10x_adc.c ****   assert_param(IS_ADC_INJECTED_LENGTH(Length));
 1367              		.loc 1 999 3 view .LVU445
1000:Drivers/STM32F10x_StdPeriph_Driver/src/stm32f10x_adc.c ****   
1001:Drivers/STM32F10x_StdPeriph_Driver/src/stm32f10x_adc.c ****   /* Get the old register value */
1002:Drivers/STM32F10x_StdPeriph_Driver/src/stm32f10x_adc.c ****   tmpreg1 = ADCx->JSQR;
 1368              		.loc 1 1002 3 view .LVU446
 1369              		.loc 1 1002 11 is_stmt 0 view .LVU447
 1370 0000 836B     		ldr	r3, [r0, #56]
 1371              	.LVL131:
1003:Drivers/STM32F10x_StdPeriph_Driver/src/stm32f10x_adc.c ****   /* Clear the old injected sequnence lenght JL bits */
1004:Drivers/STM32F10x_StdPeriph_Driver/src/stm32f10x_adc.c ****   tmpreg1 &= JSQR_JL_Reset;
 1372              		.loc 1 1004 3 is_stmt 1 view .LVU448
 1373              		.loc 1 1004 11 is_stmt 0 view .LVU449
 1374 0002 23F44013 		bic	r3, r3, #3145728
ARM GAS  /tmp/ccJ7FcFp.s 			page 43


 1375              	.LVL132:
1005:Drivers/STM32F10x_StdPeriph_Driver/src/stm32f10x_adc.c ****   /* Set the injected sequnence lenght JL bits */
1006:Drivers/STM32F10x_StdPeriph_Driver/src/stm32f10x_adc.c ****   tmpreg2 = Length - 1; 
 1376              		.loc 1 1006 3 is_stmt 1 view .LVU450
 1377              		.loc 1 1006 20 is_stmt 0 view .LVU451
 1378 0006 0139     		subs	r1, r1, #1
 1379              	.LVL133:
1007:Drivers/STM32F10x_StdPeriph_Driver/src/stm32f10x_adc.c ****   tmpreg1 |= tmpreg2 << 20;
 1380              		.loc 1 1007 3 is_stmt 1 view .LVU452
 1381              		.loc 1 1007 11 is_stmt 0 view .LVU453
 1382 0008 43EA0153 		orr	r3, r3, r1, lsl #20
 1383              	.LVL134:
1008:Drivers/STM32F10x_StdPeriph_Driver/src/stm32f10x_adc.c ****   /* Store the new register value */
1009:Drivers/STM32F10x_StdPeriph_Driver/src/stm32f10x_adc.c ****   ADCx->JSQR = tmpreg1;
 1384              		.loc 1 1009 3 is_stmt 1 view .LVU454
 1385              		.loc 1 1009 14 is_stmt 0 view .LVU455
 1386 000c 8363     		str	r3, [r0, #56]
1010:Drivers/STM32F10x_StdPeriph_Driver/src/stm32f10x_adc.c **** }
 1387              		.loc 1 1010 1 view .LVU456
 1388 000e 7047     		bx	lr
 1389              		.cfi_endproc
 1390              	.LFE90:
 1392              		.section	.text.ADC_SetInjectedOffset,"ax",%progbits
 1393              		.align	1
 1394              		.global	ADC_SetInjectedOffset
 1395              		.syntax unified
 1396              		.thumb
 1397              		.thumb_func
 1399              	ADC_SetInjectedOffset:
 1400              	.LVL135:
 1401              	.LFB91:
1011:Drivers/STM32F10x_StdPeriph_Driver/src/stm32f10x_adc.c **** 
1012:Drivers/STM32F10x_StdPeriph_Driver/src/stm32f10x_adc.c **** /**
1013:Drivers/STM32F10x_StdPeriph_Driver/src/stm32f10x_adc.c ****   * @brief  Set the injected channels conversion value offset
1014:Drivers/STM32F10x_StdPeriph_Driver/src/stm32f10x_adc.c ****   * @param  ADCx: where x can be 1, 2 or 3 to select the ADC peripheral.
1015:Drivers/STM32F10x_StdPeriph_Driver/src/stm32f10x_adc.c ****   * @param  ADC_InjectedChannel: the ADC injected channel to set its offset. 
1016:Drivers/STM32F10x_StdPeriph_Driver/src/stm32f10x_adc.c ****   *   This parameter can be one of the following values:
1017:Drivers/STM32F10x_StdPeriph_Driver/src/stm32f10x_adc.c ****   *     @arg ADC_InjectedChannel_1: Injected Channel1 selected
1018:Drivers/STM32F10x_StdPeriph_Driver/src/stm32f10x_adc.c ****   *     @arg ADC_InjectedChannel_2: Injected Channel2 selected
1019:Drivers/STM32F10x_StdPeriph_Driver/src/stm32f10x_adc.c ****   *     @arg ADC_InjectedChannel_3: Injected Channel3 selected
1020:Drivers/STM32F10x_StdPeriph_Driver/src/stm32f10x_adc.c ****   *     @arg ADC_InjectedChannel_4: Injected Channel4 selected
1021:Drivers/STM32F10x_StdPeriph_Driver/src/stm32f10x_adc.c ****   * @param  Offset: the offset value for the selected ADC injected channel
1022:Drivers/STM32F10x_StdPeriph_Driver/src/stm32f10x_adc.c ****   *   This parameter must be a 12bit value.
1023:Drivers/STM32F10x_StdPeriph_Driver/src/stm32f10x_adc.c ****   * @retval None
1024:Drivers/STM32F10x_StdPeriph_Driver/src/stm32f10x_adc.c ****   */
1025:Drivers/STM32F10x_StdPeriph_Driver/src/stm32f10x_adc.c **** void ADC_SetInjectedOffset(ADC_TypeDef* ADCx, uint8_t ADC_InjectedChannel, uint16_t Offset)
1026:Drivers/STM32F10x_StdPeriph_Driver/src/stm32f10x_adc.c **** {
 1402              		.loc 1 1026 1 is_stmt 1 view -0
 1403              		.cfi_startproc
 1404              		@ args = 0, pretend = 0, frame = 8
 1405              		@ frame_needed = 0, uses_anonymous_args = 0
 1406              		@ link register save eliminated.
 1407              		.loc 1 1026 1 is_stmt 0 view .LVU458
 1408 0000 82B0     		sub	sp, sp, #8
 1409              	.LCFI5:
 1410              		.cfi_def_cfa_offset 8
1027:Drivers/STM32F10x_StdPeriph_Driver/src/stm32f10x_adc.c ****   __IO uint32_t tmp = 0;
ARM GAS  /tmp/ccJ7FcFp.s 			page 44


 1411              		.loc 1 1027 3 is_stmt 1 view .LVU459
 1412              		.loc 1 1027 17 is_stmt 0 view .LVU460
 1413 0002 0023     		movs	r3, #0
 1414 0004 0193     		str	r3, [sp, #4]
1028:Drivers/STM32F10x_StdPeriph_Driver/src/stm32f10x_adc.c ****   
1029:Drivers/STM32F10x_StdPeriph_Driver/src/stm32f10x_adc.c ****   /* Check the parameters */
1030:Drivers/STM32F10x_StdPeriph_Driver/src/stm32f10x_adc.c ****   assert_param(IS_ADC_ALL_PERIPH(ADCx));
 1415              		.loc 1 1030 3 is_stmt 1 view .LVU461
1031:Drivers/STM32F10x_StdPeriph_Driver/src/stm32f10x_adc.c ****   assert_param(IS_ADC_INJECTED_CHANNEL(ADC_InjectedChannel));
 1416              		.loc 1 1031 3 view .LVU462
1032:Drivers/STM32F10x_StdPeriph_Driver/src/stm32f10x_adc.c ****   assert_param(IS_ADC_OFFSET(Offset));  
 1417              		.loc 1 1032 3 view .LVU463
1033:Drivers/STM32F10x_StdPeriph_Driver/src/stm32f10x_adc.c ****   
1034:Drivers/STM32F10x_StdPeriph_Driver/src/stm32f10x_adc.c ****   tmp = (uint32_t)ADCx;
 1418              		.loc 1 1034 3 view .LVU464
 1419              		.loc 1 1034 7 is_stmt 0 view .LVU465
 1420 0006 0190     		str	r0, [sp, #4]
1035:Drivers/STM32F10x_StdPeriph_Driver/src/stm32f10x_adc.c ****   tmp += ADC_InjectedChannel;
 1421              		.loc 1 1035 3 is_stmt 1 view .LVU466
 1422              		.loc 1 1035 7 is_stmt 0 view .LVU467
 1423 0008 019B     		ldr	r3, [sp, #4]
 1424 000a 1944     		add	r1, r1, r3
 1425              	.LVL136:
 1426              		.loc 1 1035 7 view .LVU468
 1427 000c 0191     		str	r1, [sp, #4]
1036:Drivers/STM32F10x_StdPeriph_Driver/src/stm32f10x_adc.c ****   
1037:Drivers/STM32F10x_StdPeriph_Driver/src/stm32f10x_adc.c ****   /* Set the selected injected channel data offset */
1038:Drivers/STM32F10x_StdPeriph_Driver/src/stm32f10x_adc.c ****   *(__IO uint32_t *) tmp = (uint32_t)Offset;
 1428              		.loc 1 1038 3 is_stmt 1 view .LVU469
 1429              		.loc 1 1038 4 is_stmt 0 view .LVU470
 1430 000e 019B     		ldr	r3, [sp, #4]
 1431              		.loc 1 1038 26 view .LVU471
 1432 0010 1A60     		str	r2, [r3]
1039:Drivers/STM32F10x_StdPeriph_Driver/src/stm32f10x_adc.c **** }
 1433              		.loc 1 1039 1 view .LVU472
 1434 0012 02B0     		add	sp, sp, #8
 1435              	.LCFI6:
 1436              		.cfi_def_cfa_offset 0
 1437              		@ sp needed
 1438 0014 7047     		bx	lr
 1439              		.cfi_endproc
 1440              	.LFE91:
 1442              		.section	.text.ADC_GetInjectedConversionValue,"ax",%progbits
 1443              		.align	1
 1444              		.global	ADC_GetInjectedConversionValue
 1445              		.syntax unified
 1446              		.thumb
 1447              		.thumb_func
 1449              	ADC_GetInjectedConversionValue:
 1450              	.LVL137:
 1451              	.LFB92:
1040:Drivers/STM32F10x_StdPeriph_Driver/src/stm32f10x_adc.c **** 
1041:Drivers/STM32F10x_StdPeriph_Driver/src/stm32f10x_adc.c **** /**
1042:Drivers/STM32F10x_StdPeriph_Driver/src/stm32f10x_adc.c ****   * @brief  Returns the ADC injected channel conversion result
1043:Drivers/STM32F10x_StdPeriph_Driver/src/stm32f10x_adc.c ****   * @param  ADCx: where x can be 1, 2 or 3 to select the ADC peripheral.
1044:Drivers/STM32F10x_StdPeriph_Driver/src/stm32f10x_adc.c ****   * @param  ADC_InjectedChannel: the converted ADC injected channel.
1045:Drivers/STM32F10x_StdPeriph_Driver/src/stm32f10x_adc.c ****   *   This parameter can be one of the following values:
ARM GAS  /tmp/ccJ7FcFp.s 			page 45


1046:Drivers/STM32F10x_StdPeriph_Driver/src/stm32f10x_adc.c ****   *     @arg ADC_InjectedChannel_1: Injected Channel1 selected
1047:Drivers/STM32F10x_StdPeriph_Driver/src/stm32f10x_adc.c ****   *     @arg ADC_InjectedChannel_2: Injected Channel2 selected
1048:Drivers/STM32F10x_StdPeriph_Driver/src/stm32f10x_adc.c ****   *     @arg ADC_InjectedChannel_3: Injected Channel3 selected
1049:Drivers/STM32F10x_StdPeriph_Driver/src/stm32f10x_adc.c ****   *     @arg ADC_InjectedChannel_4: Injected Channel4 selected
1050:Drivers/STM32F10x_StdPeriph_Driver/src/stm32f10x_adc.c ****   * @retval The Data conversion value.
1051:Drivers/STM32F10x_StdPeriph_Driver/src/stm32f10x_adc.c ****   */
1052:Drivers/STM32F10x_StdPeriph_Driver/src/stm32f10x_adc.c **** uint16_t ADC_GetInjectedConversionValue(ADC_TypeDef* ADCx, uint8_t ADC_InjectedChannel)
1053:Drivers/STM32F10x_StdPeriph_Driver/src/stm32f10x_adc.c **** {
 1452              		.loc 1 1053 1 is_stmt 1 view -0
 1453              		.cfi_startproc
 1454              		@ args = 0, pretend = 0, frame = 8
 1455              		@ frame_needed = 0, uses_anonymous_args = 0
 1456              		@ link register save eliminated.
 1457              		.loc 1 1053 1 is_stmt 0 view .LVU474
 1458 0000 82B0     		sub	sp, sp, #8
 1459              	.LCFI7:
 1460              		.cfi_def_cfa_offset 8
1054:Drivers/STM32F10x_StdPeriph_Driver/src/stm32f10x_adc.c ****   __IO uint32_t tmp = 0;
 1461              		.loc 1 1054 3 is_stmt 1 view .LVU475
 1462              		.loc 1 1054 17 is_stmt 0 view .LVU476
 1463 0002 0023     		movs	r3, #0
 1464 0004 0193     		str	r3, [sp, #4]
1055:Drivers/STM32F10x_StdPeriph_Driver/src/stm32f10x_adc.c ****   
1056:Drivers/STM32F10x_StdPeriph_Driver/src/stm32f10x_adc.c ****   /* Check the parameters */
1057:Drivers/STM32F10x_StdPeriph_Driver/src/stm32f10x_adc.c ****   assert_param(IS_ADC_ALL_PERIPH(ADCx));
 1465              		.loc 1 1057 3 is_stmt 1 view .LVU477
1058:Drivers/STM32F10x_StdPeriph_Driver/src/stm32f10x_adc.c ****   assert_param(IS_ADC_INJECTED_CHANNEL(ADC_InjectedChannel));
 1466              		.loc 1 1058 3 view .LVU478
1059:Drivers/STM32F10x_StdPeriph_Driver/src/stm32f10x_adc.c **** 
1060:Drivers/STM32F10x_StdPeriph_Driver/src/stm32f10x_adc.c ****   tmp = (uint32_t)ADCx;
 1467              		.loc 1 1060 3 view .LVU479
 1468              		.loc 1 1060 7 is_stmt 0 view .LVU480
 1469 0006 0190     		str	r0, [sp, #4]
1061:Drivers/STM32F10x_StdPeriph_Driver/src/stm32f10x_adc.c ****   tmp += ADC_InjectedChannel + JDR_Offset;
 1470              		.loc 1 1061 3 is_stmt 1 view .LVU481
 1471              		.loc 1 1061 7 is_stmt 0 view .LVU482
 1472 0008 019B     		ldr	r3, [sp, #4]
 1473 000a 1944     		add	r1, r1, r3
 1474              	.LVL138:
 1475              		.loc 1 1061 7 view .LVU483
 1476 000c 2831     		adds	r1, r1, #40
 1477 000e 0191     		str	r1, [sp, #4]
1062:Drivers/STM32F10x_StdPeriph_Driver/src/stm32f10x_adc.c ****   
1063:Drivers/STM32F10x_StdPeriph_Driver/src/stm32f10x_adc.c ****   /* Returns the selected injected channel conversion data value */
1064:Drivers/STM32F10x_StdPeriph_Driver/src/stm32f10x_adc.c ****   return (uint16_t) (*(__IO uint32_t*)  tmp);   
 1478              		.loc 1 1064 3 is_stmt 1 view .LVU484
 1479              		.loc 1 1064 23 is_stmt 0 view .LVU485
 1480 0010 019B     		ldr	r3, [sp, #4]
 1481              		.loc 1 1064 22 view .LVU486
 1482 0012 1868     		ldr	r0, [r3]
 1483              	.LVL139:
1065:Drivers/STM32F10x_StdPeriph_Driver/src/stm32f10x_adc.c **** }
 1484              		.loc 1 1065 1 view .LVU487
 1485 0014 80B2     		uxth	r0, r0
 1486 0016 02B0     		add	sp, sp, #8
 1487              	.LCFI8:
 1488              		.cfi_def_cfa_offset 0
ARM GAS  /tmp/ccJ7FcFp.s 			page 46


 1489              		@ sp needed
 1490 0018 7047     		bx	lr
 1491              		.cfi_endproc
 1492              	.LFE92:
 1494              		.section	.text.ADC_AnalogWatchdogCmd,"ax",%progbits
 1495              		.align	1
 1496              		.global	ADC_AnalogWatchdogCmd
 1497              		.syntax unified
 1498              		.thumb
 1499              		.thumb_func
 1501              	ADC_AnalogWatchdogCmd:
 1502              	.LVL140:
 1503              	.LFB93:
1066:Drivers/STM32F10x_StdPeriph_Driver/src/stm32f10x_adc.c **** 
1067:Drivers/STM32F10x_StdPeriph_Driver/src/stm32f10x_adc.c **** /**
1068:Drivers/STM32F10x_StdPeriph_Driver/src/stm32f10x_adc.c ****   * @brief  Enables or disables the analog watchdog on single/all regular
1069:Drivers/STM32F10x_StdPeriph_Driver/src/stm32f10x_adc.c ****   *         or injected channels
1070:Drivers/STM32F10x_StdPeriph_Driver/src/stm32f10x_adc.c ****   * @param  ADCx: where x can be 1, 2 or 3 to select the ADC peripheral.
1071:Drivers/STM32F10x_StdPeriph_Driver/src/stm32f10x_adc.c ****   * @param  ADC_AnalogWatchdog: the ADC analog watchdog configuration.
1072:Drivers/STM32F10x_StdPeriph_Driver/src/stm32f10x_adc.c ****   *   This parameter can be one of the following values:
1073:Drivers/STM32F10x_StdPeriph_Driver/src/stm32f10x_adc.c ****   *     @arg ADC_AnalogWatchdog_SingleRegEnable: Analog watchdog on a single regular channel
1074:Drivers/STM32F10x_StdPeriph_Driver/src/stm32f10x_adc.c ****   *     @arg ADC_AnalogWatchdog_SingleInjecEnable: Analog watchdog on a single injected channel
1075:Drivers/STM32F10x_StdPeriph_Driver/src/stm32f10x_adc.c ****   *     @arg ADC_AnalogWatchdog_SingleRegOrInjecEnable: Analog watchdog on a single regular or inje
1076:Drivers/STM32F10x_StdPeriph_Driver/src/stm32f10x_adc.c ****   *     @arg ADC_AnalogWatchdog_AllRegEnable: Analog watchdog on  all regular channel
1077:Drivers/STM32F10x_StdPeriph_Driver/src/stm32f10x_adc.c ****   *     @arg ADC_AnalogWatchdog_AllInjecEnable: Analog watchdog on  all injected channel
1078:Drivers/STM32F10x_StdPeriph_Driver/src/stm32f10x_adc.c ****   *     @arg ADC_AnalogWatchdog_AllRegAllInjecEnable: Analog watchdog on all regular and injected c
1079:Drivers/STM32F10x_StdPeriph_Driver/src/stm32f10x_adc.c ****   *     @arg ADC_AnalogWatchdog_None: No channel guarded by the analog watchdog
1080:Drivers/STM32F10x_StdPeriph_Driver/src/stm32f10x_adc.c ****   * @retval None	  
1081:Drivers/STM32F10x_StdPeriph_Driver/src/stm32f10x_adc.c ****   */
1082:Drivers/STM32F10x_StdPeriph_Driver/src/stm32f10x_adc.c **** void ADC_AnalogWatchdogCmd(ADC_TypeDef* ADCx, uint32_t ADC_AnalogWatchdog)
1083:Drivers/STM32F10x_StdPeriph_Driver/src/stm32f10x_adc.c **** {
 1504              		.loc 1 1083 1 is_stmt 1 view -0
 1505              		.cfi_startproc
 1506              		@ args = 0, pretend = 0, frame = 0
 1507              		@ frame_needed = 0, uses_anonymous_args = 0
 1508              		@ link register save eliminated.
1084:Drivers/STM32F10x_StdPeriph_Driver/src/stm32f10x_adc.c ****   uint32_t tmpreg = 0;
 1509              		.loc 1 1084 3 view .LVU489
1085:Drivers/STM32F10x_StdPeriph_Driver/src/stm32f10x_adc.c ****   /* Check the parameters */
1086:Drivers/STM32F10x_StdPeriph_Driver/src/stm32f10x_adc.c ****   assert_param(IS_ADC_ALL_PERIPH(ADCx));
 1510              		.loc 1 1086 3 view .LVU490
1087:Drivers/STM32F10x_StdPeriph_Driver/src/stm32f10x_adc.c ****   assert_param(IS_ADC_ANALOG_WATCHDOG(ADC_AnalogWatchdog));
 1511              		.loc 1 1087 3 view .LVU491
1088:Drivers/STM32F10x_StdPeriph_Driver/src/stm32f10x_adc.c ****   /* Get the old register value */
1089:Drivers/STM32F10x_StdPeriph_Driver/src/stm32f10x_adc.c ****   tmpreg = ADCx->CR1;
 1512              		.loc 1 1089 3 view .LVU492
 1513              		.loc 1 1089 10 is_stmt 0 view .LVU493
 1514 0000 4368     		ldr	r3, [r0, #4]
 1515              	.LVL141:
1090:Drivers/STM32F10x_StdPeriph_Driver/src/stm32f10x_adc.c ****   /* Clear AWDEN, AWDENJ and AWDSGL bits */
1091:Drivers/STM32F10x_StdPeriph_Driver/src/stm32f10x_adc.c ****   tmpreg &= CR1_AWDMode_Reset;
 1516              		.loc 1 1091 3 is_stmt 1 view .LVU494
 1517              		.loc 1 1091 10 is_stmt 0 view .LVU495
 1518 0002 23F44003 		bic	r3, r3, #12582912
 1519              	.LVL142:
 1520              		.loc 1 1091 10 view .LVU496
 1521 0006 23F40073 		bic	r3, r3, #512
ARM GAS  /tmp/ccJ7FcFp.s 			page 47


 1522              	.LVL143:
1092:Drivers/STM32F10x_StdPeriph_Driver/src/stm32f10x_adc.c ****   /* Set the analog watchdog enable mode */
1093:Drivers/STM32F10x_StdPeriph_Driver/src/stm32f10x_adc.c ****   tmpreg |= ADC_AnalogWatchdog;
 1523              		.loc 1 1093 3 is_stmt 1 view .LVU497
 1524              		.loc 1 1093 10 is_stmt 0 view .LVU498
 1525 000a 0B43     		orrs	r3, r3, r1
 1526              	.LVL144:
1094:Drivers/STM32F10x_StdPeriph_Driver/src/stm32f10x_adc.c ****   /* Store the new register value */
1095:Drivers/STM32F10x_StdPeriph_Driver/src/stm32f10x_adc.c ****   ADCx->CR1 = tmpreg;
 1527              		.loc 1 1095 3 is_stmt 1 view .LVU499
 1528              		.loc 1 1095 13 is_stmt 0 view .LVU500
 1529 000c 4360     		str	r3, [r0, #4]
1096:Drivers/STM32F10x_StdPeriph_Driver/src/stm32f10x_adc.c **** }
 1530              		.loc 1 1096 1 view .LVU501
 1531 000e 7047     		bx	lr
 1532              		.cfi_endproc
 1533              	.LFE93:
 1535              		.section	.text.ADC_AnalogWatchdogThresholdsConfig,"ax",%progbits
 1536              		.align	1
 1537              		.global	ADC_AnalogWatchdogThresholdsConfig
 1538              		.syntax unified
 1539              		.thumb
 1540              		.thumb_func
 1542              	ADC_AnalogWatchdogThresholdsConfig:
 1543              	.LVL145:
 1544              	.LFB94:
1097:Drivers/STM32F10x_StdPeriph_Driver/src/stm32f10x_adc.c **** 
1098:Drivers/STM32F10x_StdPeriph_Driver/src/stm32f10x_adc.c **** /**
1099:Drivers/STM32F10x_StdPeriph_Driver/src/stm32f10x_adc.c ****   * @brief  Configures the high and low thresholds of the analog watchdog.
1100:Drivers/STM32F10x_StdPeriph_Driver/src/stm32f10x_adc.c ****   * @param  ADCx: where x can be 1, 2 or 3 to select the ADC peripheral.
1101:Drivers/STM32F10x_StdPeriph_Driver/src/stm32f10x_adc.c ****   * @param  HighThreshold: the ADC analog watchdog High threshold value.
1102:Drivers/STM32F10x_StdPeriph_Driver/src/stm32f10x_adc.c ****   *   This parameter must be a 12bit value.
1103:Drivers/STM32F10x_StdPeriph_Driver/src/stm32f10x_adc.c ****   * @param  LowThreshold: the ADC analog watchdog Low threshold value.
1104:Drivers/STM32F10x_StdPeriph_Driver/src/stm32f10x_adc.c ****   *   This parameter must be a 12bit value.
1105:Drivers/STM32F10x_StdPeriph_Driver/src/stm32f10x_adc.c ****   * @retval None
1106:Drivers/STM32F10x_StdPeriph_Driver/src/stm32f10x_adc.c ****   */
1107:Drivers/STM32F10x_StdPeriph_Driver/src/stm32f10x_adc.c **** void ADC_AnalogWatchdogThresholdsConfig(ADC_TypeDef* ADCx, uint16_t HighThreshold,
1108:Drivers/STM32F10x_StdPeriph_Driver/src/stm32f10x_adc.c ****                                         uint16_t LowThreshold)
1109:Drivers/STM32F10x_StdPeriph_Driver/src/stm32f10x_adc.c **** {
 1545              		.loc 1 1109 1 is_stmt 1 view -0
 1546              		.cfi_startproc
 1547              		@ args = 0, pretend = 0, frame = 0
 1548              		@ frame_needed = 0, uses_anonymous_args = 0
 1549              		@ link register save eliminated.
1110:Drivers/STM32F10x_StdPeriph_Driver/src/stm32f10x_adc.c ****   /* Check the parameters */
1111:Drivers/STM32F10x_StdPeriph_Driver/src/stm32f10x_adc.c ****   assert_param(IS_ADC_ALL_PERIPH(ADCx));
 1550              		.loc 1 1111 3 view .LVU503
1112:Drivers/STM32F10x_StdPeriph_Driver/src/stm32f10x_adc.c ****   assert_param(IS_ADC_THRESHOLD(HighThreshold));
 1551              		.loc 1 1112 3 view .LVU504
1113:Drivers/STM32F10x_StdPeriph_Driver/src/stm32f10x_adc.c ****   assert_param(IS_ADC_THRESHOLD(LowThreshold));
 1552              		.loc 1 1113 3 view .LVU505
1114:Drivers/STM32F10x_StdPeriph_Driver/src/stm32f10x_adc.c ****   /* Set the ADCx high threshold */
1115:Drivers/STM32F10x_StdPeriph_Driver/src/stm32f10x_adc.c ****   ADCx->HTR = HighThreshold;
 1553              		.loc 1 1115 3 view .LVU506
 1554              		.loc 1 1115 13 is_stmt 0 view .LVU507
 1555 0000 4162     		str	r1, [r0, #36]
1116:Drivers/STM32F10x_StdPeriph_Driver/src/stm32f10x_adc.c ****   /* Set the ADCx low threshold */
ARM GAS  /tmp/ccJ7FcFp.s 			page 48


1117:Drivers/STM32F10x_StdPeriph_Driver/src/stm32f10x_adc.c ****   ADCx->LTR = LowThreshold;
 1556              		.loc 1 1117 3 is_stmt 1 view .LVU508
 1557              		.loc 1 1117 13 is_stmt 0 view .LVU509
 1558 0002 8262     		str	r2, [r0, #40]
1118:Drivers/STM32F10x_StdPeriph_Driver/src/stm32f10x_adc.c **** }
 1559              		.loc 1 1118 1 view .LVU510
 1560 0004 7047     		bx	lr
 1561              		.cfi_endproc
 1562              	.LFE94:
 1564              		.section	.text.ADC_AnalogWatchdogSingleChannelConfig,"ax",%progbits
 1565              		.align	1
 1566              		.global	ADC_AnalogWatchdogSingleChannelConfig
 1567              		.syntax unified
 1568              		.thumb
 1569              		.thumb_func
 1571              	ADC_AnalogWatchdogSingleChannelConfig:
 1572              	.LVL146:
 1573              	.LFB95:
1119:Drivers/STM32F10x_StdPeriph_Driver/src/stm32f10x_adc.c **** 
1120:Drivers/STM32F10x_StdPeriph_Driver/src/stm32f10x_adc.c **** /**
1121:Drivers/STM32F10x_StdPeriph_Driver/src/stm32f10x_adc.c ****   * @brief  Configures the analog watchdog guarded single channel
1122:Drivers/STM32F10x_StdPeriph_Driver/src/stm32f10x_adc.c ****   * @param  ADCx: where x can be 1, 2 or 3 to select the ADC peripheral.
1123:Drivers/STM32F10x_StdPeriph_Driver/src/stm32f10x_adc.c ****   * @param  ADC_Channel: the ADC channel to configure for the analog watchdog. 
1124:Drivers/STM32F10x_StdPeriph_Driver/src/stm32f10x_adc.c ****   *   This parameter can be one of the following values:
1125:Drivers/STM32F10x_StdPeriph_Driver/src/stm32f10x_adc.c ****   *     @arg ADC_Channel_0: ADC Channel0 selected
1126:Drivers/STM32F10x_StdPeriph_Driver/src/stm32f10x_adc.c ****   *     @arg ADC_Channel_1: ADC Channel1 selected
1127:Drivers/STM32F10x_StdPeriph_Driver/src/stm32f10x_adc.c ****   *     @arg ADC_Channel_2: ADC Channel2 selected
1128:Drivers/STM32F10x_StdPeriph_Driver/src/stm32f10x_adc.c ****   *     @arg ADC_Channel_3: ADC Channel3 selected
1129:Drivers/STM32F10x_StdPeriph_Driver/src/stm32f10x_adc.c ****   *     @arg ADC_Channel_4: ADC Channel4 selected
1130:Drivers/STM32F10x_StdPeriph_Driver/src/stm32f10x_adc.c ****   *     @arg ADC_Channel_5: ADC Channel5 selected
1131:Drivers/STM32F10x_StdPeriph_Driver/src/stm32f10x_adc.c ****   *     @arg ADC_Channel_6: ADC Channel6 selected
1132:Drivers/STM32F10x_StdPeriph_Driver/src/stm32f10x_adc.c ****   *     @arg ADC_Channel_7: ADC Channel7 selected
1133:Drivers/STM32F10x_StdPeriph_Driver/src/stm32f10x_adc.c ****   *     @arg ADC_Channel_8: ADC Channel8 selected
1134:Drivers/STM32F10x_StdPeriph_Driver/src/stm32f10x_adc.c ****   *     @arg ADC_Channel_9: ADC Channel9 selected
1135:Drivers/STM32F10x_StdPeriph_Driver/src/stm32f10x_adc.c ****   *     @arg ADC_Channel_10: ADC Channel10 selected
1136:Drivers/STM32F10x_StdPeriph_Driver/src/stm32f10x_adc.c ****   *     @arg ADC_Channel_11: ADC Channel11 selected
1137:Drivers/STM32F10x_StdPeriph_Driver/src/stm32f10x_adc.c ****   *     @arg ADC_Channel_12: ADC Channel12 selected
1138:Drivers/STM32F10x_StdPeriph_Driver/src/stm32f10x_adc.c ****   *     @arg ADC_Channel_13: ADC Channel13 selected
1139:Drivers/STM32F10x_StdPeriph_Driver/src/stm32f10x_adc.c ****   *     @arg ADC_Channel_14: ADC Channel14 selected
1140:Drivers/STM32F10x_StdPeriph_Driver/src/stm32f10x_adc.c ****   *     @arg ADC_Channel_15: ADC Channel15 selected
1141:Drivers/STM32F10x_StdPeriph_Driver/src/stm32f10x_adc.c ****   *     @arg ADC_Channel_16: ADC Channel16 selected
1142:Drivers/STM32F10x_StdPeriph_Driver/src/stm32f10x_adc.c ****   *     @arg ADC_Channel_17: ADC Channel17 selected
1143:Drivers/STM32F10x_StdPeriph_Driver/src/stm32f10x_adc.c ****   * @retval None
1144:Drivers/STM32F10x_StdPeriph_Driver/src/stm32f10x_adc.c ****   */
1145:Drivers/STM32F10x_StdPeriph_Driver/src/stm32f10x_adc.c **** void ADC_AnalogWatchdogSingleChannelConfig(ADC_TypeDef* ADCx, uint8_t ADC_Channel)
1146:Drivers/STM32F10x_StdPeriph_Driver/src/stm32f10x_adc.c **** {
 1574              		.loc 1 1146 1 is_stmt 1 view -0
 1575              		.cfi_startproc
 1576              		@ args = 0, pretend = 0, frame = 0
 1577              		@ frame_needed = 0, uses_anonymous_args = 0
 1578              		@ link register save eliminated.
1147:Drivers/STM32F10x_StdPeriph_Driver/src/stm32f10x_adc.c ****   uint32_t tmpreg = 0;
 1579              		.loc 1 1147 3 view .LVU512
1148:Drivers/STM32F10x_StdPeriph_Driver/src/stm32f10x_adc.c ****   /* Check the parameters */
1149:Drivers/STM32F10x_StdPeriph_Driver/src/stm32f10x_adc.c ****   assert_param(IS_ADC_ALL_PERIPH(ADCx));
 1580              		.loc 1 1149 3 view .LVU513
1150:Drivers/STM32F10x_StdPeriph_Driver/src/stm32f10x_adc.c ****   assert_param(IS_ADC_CHANNEL(ADC_Channel));
ARM GAS  /tmp/ccJ7FcFp.s 			page 49


 1581              		.loc 1 1150 3 view .LVU514
1151:Drivers/STM32F10x_StdPeriph_Driver/src/stm32f10x_adc.c ****   /* Get the old register value */
1152:Drivers/STM32F10x_StdPeriph_Driver/src/stm32f10x_adc.c ****   tmpreg = ADCx->CR1;
 1582              		.loc 1 1152 3 view .LVU515
 1583              		.loc 1 1152 10 is_stmt 0 view .LVU516
 1584 0000 4368     		ldr	r3, [r0, #4]
 1585              	.LVL147:
1153:Drivers/STM32F10x_StdPeriph_Driver/src/stm32f10x_adc.c ****   /* Clear the Analog watchdog channel select bits */
1154:Drivers/STM32F10x_StdPeriph_Driver/src/stm32f10x_adc.c ****   tmpreg &= CR1_AWDCH_Reset;
 1586              		.loc 1 1154 3 is_stmt 1 view .LVU517
 1587              		.loc 1 1154 10 is_stmt 0 view .LVU518
 1588 0002 23F01F03 		bic	r3, r3, #31
 1589              	.LVL148:
1155:Drivers/STM32F10x_StdPeriph_Driver/src/stm32f10x_adc.c ****   /* Set the Analog watchdog channel */
1156:Drivers/STM32F10x_StdPeriph_Driver/src/stm32f10x_adc.c ****   tmpreg |= ADC_Channel;
 1590              		.loc 1 1156 3 is_stmt 1 view .LVU519
 1591              		.loc 1 1156 10 is_stmt 0 view .LVU520
 1592 0006 1943     		orrs	r1, r1, r3
 1593              	.LVL149:
1157:Drivers/STM32F10x_StdPeriph_Driver/src/stm32f10x_adc.c ****   /* Store the new register value */
1158:Drivers/STM32F10x_StdPeriph_Driver/src/stm32f10x_adc.c ****   ADCx->CR1 = tmpreg;
 1594              		.loc 1 1158 3 is_stmt 1 view .LVU521
 1595              		.loc 1 1158 13 is_stmt 0 view .LVU522
 1596 0008 4160     		str	r1, [r0, #4]
1159:Drivers/STM32F10x_StdPeriph_Driver/src/stm32f10x_adc.c **** }
 1597              		.loc 1 1159 1 view .LVU523
 1598 000a 7047     		bx	lr
 1599              		.cfi_endproc
 1600              	.LFE95:
 1602              		.section	.text.ADC_TempSensorVrefintCmd,"ax",%progbits
 1603              		.align	1
 1604              		.global	ADC_TempSensorVrefintCmd
 1605              		.syntax unified
 1606              		.thumb
 1607              		.thumb_func
 1609              	ADC_TempSensorVrefintCmd:
 1610              	.LVL150:
 1611              	.LFB96:
1160:Drivers/STM32F10x_StdPeriph_Driver/src/stm32f10x_adc.c **** 
1161:Drivers/STM32F10x_StdPeriph_Driver/src/stm32f10x_adc.c **** /**
1162:Drivers/STM32F10x_StdPeriph_Driver/src/stm32f10x_adc.c ****   * @brief  Enables or disables the temperature sensor and Vrefint channel.
1163:Drivers/STM32F10x_StdPeriph_Driver/src/stm32f10x_adc.c ****   * @param  NewState: new state of the temperature sensor.
1164:Drivers/STM32F10x_StdPeriph_Driver/src/stm32f10x_adc.c ****   *   This parameter can be: ENABLE or DISABLE.
1165:Drivers/STM32F10x_StdPeriph_Driver/src/stm32f10x_adc.c ****   * @retval None
1166:Drivers/STM32F10x_StdPeriph_Driver/src/stm32f10x_adc.c ****   */
1167:Drivers/STM32F10x_StdPeriph_Driver/src/stm32f10x_adc.c **** void ADC_TempSensorVrefintCmd(FunctionalState NewState)
1168:Drivers/STM32F10x_StdPeriph_Driver/src/stm32f10x_adc.c **** {
 1612              		.loc 1 1168 1 is_stmt 1 view -0
 1613              		.cfi_startproc
 1614              		@ args = 0, pretend = 0, frame = 0
 1615              		@ frame_needed = 0, uses_anonymous_args = 0
 1616              		@ link register save eliminated.
1169:Drivers/STM32F10x_StdPeriph_Driver/src/stm32f10x_adc.c ****   /* Check the parameters */
1170:Drivers/STM32F10x_StdPeriph_Driver/src/stm32f10x_adc.c ****   assert_param(IS_FUNCTIONAL_STATE(NewState));
 1617              		.loc 1 1170 3 view .LVU525
1171:Drivers/STM32F10x_StdPeriph_Driver/src/stm32f10x_adc.c ****   if (NewState != DISABLE)
 1618              		.loc 1 1171 3 view .LVU526
ARM GAS  /tmp/ccJ7FcFp.s 			page 50


 1619              		.loc 1 1171 6 is_stmt 0 view .LVU527
 1620 0000 28B1     		cbz	r0, .L86
1172:Drivers/STM32F10x_StdPeriph_Driver/src/stm32f10x_adc.c ****   {
1173:Drivers/STM32F10x_StdPeriph_Driver/src/stm32f10x_adc.c ****     /* Enable the temperature sensor and Vrefint channel*/
1174:Drivers/STM32F10x_StdPeriph_Driver/src/stm32f10x_adc.c ****     ADC1->CR2 |= CR2_TSVREFE_Set;
 1621              		.loc 1 1174 5 is_stmt 1 view .LVU528
 1622              		.loc 1 1174 9 is_stmt 0 view .LVU529
 1623 0002 064A     		ldr	r2, .L88
 1624 0004 9368     		ldr	r3, [r2, #8]
 1625              		.loc 1 1174 15 view .LVU530
 1626 0006 43F40003 		orr	r3, r3, #8388608
 1627 000a 9360     		str	r3, [r2, #8]
 1628 000c 7047     		bx	lr
 1629              	.L86:
1175:Drivers/STM32F10x_StdPeriph_Driver/src/stm32f10x_adc.c ****   }
1176:Drivers/STM32F10x_StdPeriph_Driver/src/stm32f10x_adc.c ****   else
1177:Drivers/STM32F10x_StdPeriph_Driver/src/stm32f10x_adc.c ****   {
1178:Drivers/STM32F10x_StdPeriph_Driver/src/stm32f10x_adc.c ****     /* Disable the temperature sensor and Vrefint channel*/
1179:Drivers/STM32F10x_StdPeriph_Driver/src/stm32f10x_adc.c ****     ADC1->CR2 &= CR2_TSVREFE_Reset;
 1630              		.loc 1 1179 5 is_stmt 1 view .LVU531
 1631              		.loc 1 1179 9 is_stmt 0 view .LVU532
 1632 000e 034A     		ldr	r2, .L88
 1633 0010 9368     		ldr	r3, [r2, #8]
 1634              		.loc 1 1179 15 view .LVU533
 1635 0012 23F40003 		bic	r3, r3, #8388608
 1636 0016 9360     		str	r3, [r2, #8]
1180:Drivers/STM32F10x_StdPeriph_Driver/src/stm32f10x_adc.c ****   }
1181:Drivers/STM32F10x_StdPeriph_Driver/src/stm32f10x_adc.c **** }
 1637              		.loc 1 1181 1 view .LVU534
 1638 0018 7047     		bx	lr
 1639              	.L89:
 1640 001a 00BF     		.align	2
 1641              	.L88:
 1642 001c 00240140 		.word	1073816576
 1643              		.cfi_endproc
 1644              	.LFE96:
 1646              		.section	.text.ADC_GetFlagStatus,"ax",%progbits
 1647              		.align	1
 1648              		.global	ADC_GetFlagStatus
 1649              		.syntax unified
 1650              		.thumb
 1651              		.thumb_func
 1653              	ADC_GetFlagStatus:
 1654              	.LVL151:
 1655              	.LFB97:
1182:Drivers/STM32F10x_StdPeriph_Driver/src/stm32f10x_adc.c **** 
1183:Drivers/STM32F10x_StdPeriph_Driver/src/stm32f10x_adc.c **** /**
1184:Drivers/STM32F10x_StdPeriph_Driver/src/stm32f10x_adc.c ****   * @brief  Checks whether the specified ADC flag is set or not.
1185:Drivers/STM32F10x_StdPeriph_Driver/src/stm32f10x_adc.c ****   * @param  ADCx: where x can be 1, 2 or 3 to select the ADC peripheral.
1186:Drivers/STM32F10x_StdPeriph_Driver/src/stm32f10x_adc.c ****   * @param  ADC_FLAG: specifies the flag to check. 
1187:Drivers/STM32F10x_StdPeriph_Driver/src/stm32f10x_adc.c ****   *   This parameter can be one of the following values:
1188:Drivers/STM32F10x_StdPeriph_Driver/src/stm32f10x_adc.c ****   *     @arg ADC_FLAG_AWD: Analog watchdog flag
1189:Drivers/STM32F10x_StdPeriph_Driver/src/stm32f10x_adc.c ****   *     @arg ADC_FLAG_EOC: End of conversion flag
1190:Drivers/STM32F10x_StdPeriph_Driver/src/stm32f10x_adc.c ****   *     @arg ADC_FLAG_JEOC: End of injected group conversion flag
1191:Drivers/STM32F10x_StdPeriph_Driver/src/stm32f10x_adc.c ****   *     @arg ADC_FLAG_JSTRT: Start of injected group conversion flag
1192:Drivers/STM32F10x_StdPeriph_Driver/src/stm32f10x_adc.c ****   *     @arg ADC_FLAG_STRT: Start of regular group conversion flag
1193:Drivers/STM32F10x_StdPeriph_Driver/src/stm32f10x_adc.c ****   * @retval The new state of ADC_FLAG (SET or RESET).
ARM GAS  /tmp/ccJ7FcFp.s 			page 51


1194:Drivers/STM32F10x_StdPeriph_Driver/src/stm32f10x_adc.c ****   */
1195:Drivers/STM32F10x_StdPeriph_Driver/src/stm32f10x_adc.c **** FlagStatus ADC_GetFlagStatus(ADC_TypeDef* ADCx, uint8_t ADC_FLAG)
1196:Drivers/STM32F10x_StdPeriph_Driver/src/stm32f10x_adc.c **** {
 1656              		.loc 1 1196 1 is_stmt 1 view -0
 1657              		.cfi_startproc
 1658              		@ args = 0, pretend = 0, frame = 0
 1659              		@ frame_needed = 0, uses_anonymous_args = 0
 1660              		@ link register save eliminated.
1197:Drivers/STM32F10x_StdPeriph_Driver/src/stm32f10x_adc.c ****   FlagStatus bitstatus = RESET;
 1661              		.loc 1 1197 3 view .LVU536
1198:Drivers/STM32F10x_StdPeriph_Driver/src/stm32f10x_adc.c ****   /* Check the parameters */
1199:Drivers/STM32F10x_StdPeriph_Driver/src/stm32f10x_adc.c ****   assert_param(IS_ADC_ALL_PERIPH(ADCx));
 1662              		.loc 1 1199 3 view .LVU537
1200:Drivers/STM32F10x_StdPeriph_Driver/src/stm32f10x_adc.c ****   assert_param(IS_ADC_GET_FLAG(ADC_FLAG));
 1663              		.loc 1 1200 3 view .LVU538
1201:Drivers/STM32F10x_StdPeriph_Driver/src/stm32f10x_adc.c ****   /* Check the status of the specified ADC flag */
1202:Drivers/STM32F10x_StdPeriph_Driver/src/stm32f10x_adc.c ****   if ((ADCx->SR & ADC_FLAG) != (uint8_t)RESET)
 1664              		.loc 1 1202 3 view .LVU539
 1665              		.loc 1 1202 12 is_stmt 0 view .LVU540
 1666 0000 0368     		ldr	r3, [r0]
 1667              		.loc 1 1202 6 view .LVU541
 1668 0002 1942     		tst	r1, r3
 1669 0004 01D0     		beq	.L92
1203:Drivers/STM32F10x_StdPeriph_Driver/src/stm32f10x_adc.c ****   {
1204:Drivers/STM32F10x_StdPeriph_Driver/src/stm32f10x_adc.c ****     /* ADC_FLAG is set */
1205:Drivers/STM32F10x_StdPeriph_Driver/src/stm32f10x_adc.c ****     bitstatus = SET;
 1670              		.loc 1 1205 15 view .LVU542
 1671 0006 0120     		movs	r0, #1
 1672              	.LVL152:
 1673              		.loc 1 1205 15 view .LVU543
 1674 0008 7047     		bx	lr
 1675              	.LVL153:
 1676              	.L92:
1206:Drivers/STM32F10x_StdPeriph_Driver/src/stm32f10x_adc.c ****   }
1207:Drivers/STM32F10x_StdPeriph_Driver/src/stm32f10x_adc.c ****   else
1208:Drivers/STM32F10x_StdPeriph_Driver/src/stm32f10x_adc.c ****   {
1209:Drivers/STM32F10x_StdPeriph_Driver/src/stm32f10x_adc.c ****     /* ADC_FLAG is reset */
1210:Drivers/STM32F10x_StdPeriph_Driver/src/stm32f10x_adc.c ****     bitstatus = RESET;
 1677              		.loc 1 1210 15 view .LVU544
 1678 000a 0020     		movs	r0, #0
 1679              	.LVL154:
1211:Drivers/STM32F10x_StdPeriph_Driver/src/stm32f10x_adc.c ****   }
1212:Drivers/STM32F10x_StdPeriph_Driver/src/stm32f10x_adc.c ****   /* Return the ADC_FLAG status */
1213:Drivers/STM32F10x_StdPeriph_Driver/src/stm32f10x_adc.c ****   return  bitstatus;
 1680              		.loc 1 1213 3 is_stmt 1 view .LVU545
1214:Drivers/STM32F10x_StdPeriph_Driver/src/stm32f10x_adc.c **** }
 1681              		.loc 1 1214 1 is_stmt 0 view .LVU546
 1682 000c 7047     		bx	lr
 1683              		.cfi_endproc
 1684              	.LFE97:
 1686              		.section	.text.ADC_ClearFlag,"ax",%progbits
 1687              		.align	1
 1688              		.global	ADC_ClearFlag
 1689              		.syntax unified
 1690              		.thumb
 1691              		.thumb_func
 1693              	ADC_ClearFlag:
ARM GAS  /tmp/ccJ7FcFp.s 			page 52


 1694              	.LVL155:
 1695              	.LFB98:
1215:Drivers/STM32F10x_StdPeriph_Driver/src/stm32f10x_adc.c **** 
1216:Drivers/STM32F10x_StdPeriph_Driver/src/stm32f10x_adc.c **** /**
1217:Drivers/STM32F10x_StdPeriph_Driver/src/stm32f10x_adc.c ****   * @brief  Clears the ADCx's pending flags.
1218:Drivers/STM32F10x_StdPeriph_Driver/src/stm32f10x_adc.c ****   * @param  ADCx: where x can be 1, 2 or 3 to select the ADC peripheral.
1219:Drivers/STM32F10x_StdPeriph_Driver/src/stm32f10x_adc.c ****   * @param  ADC_FLAG: specifies the flag to clear. 
1220:Drivers/STM32F10x_StdPeriph_Driver/src/stm32f10x_adc.c ****   *   This parameter can be any combination of the following values:
1221:Drivers/STM32F10x_StdPeriph_Driver/src/stm32f10x_adc.c ****   *     @arg ADC_FLAG_AWD: Analog watchdog flag
1222:Drivers/STM32F10x_StdPeriph_Driver/src/stm32f10x_adc.c ****   *     @arg ADC_FLAG_EOC: End of conversion flag
1223:Drivers/STM32F10x_StdPeriph_Driver/src/stm32f10x_adc.c ****   *     @arg ADC_FLAG_JEOC: End of injected group conversion flag
1224:Drivers/STM32F10x_StdPeriph_Driver/src/stm32f10x_adc.c ****   *     @arg ADC_FLAG_JSTRT: Start of injected group conversion flag
1225:Drivers/STM32F10x_StdPeriph_Driver/src/stm32f10x_adc.c ****   *     @arg ADC_FLAG_STRT: Start of regular group conversion flag
1226:Drivers/STM32F10x_StdPeriph_Driver/src/stm32f10x_adc.c ****   * @retval None
1227:Drivers/STM32F10x_StdPeriph_Driver/src/stm32f10x_adc.c ****   */
1228:Drivers/STM32F10x_StdPeriph_Driver/src/stm32f10x_adc.c **** void ADC_ClearFlag(ADC_TypeDef* ADCx, uint8_t ADC_FLAG)
1229:Drivers/STM32F10x_StdPeriph_Driver/src/stm32f10x_adc.c **** {
 1696              		.loc 1 1229 1 is_stmt 1 view -0
 1697              		.cfi_startproc
 1698              		@ args = 0, pretend = 0, frame = 0
 1699              		@ frame_needed = 0, uses_anonymous_args = 0
 1700              		@ link register save eliminated.
1230:Drivers/STM32F10x_StdPeriph_Driver/src/stm32f10x_adc.c ****   /* Check the parameters */
1231:Drivers/STM32F10x_StdPeriph_Driver/src/stm32f10x_adc.c ****   assert_param(IS_ADC_ALL_PERIPH(ADCx));
 1701              		.loc 1 1231 3 view .LVU548
1232:Drivers/STM32F10x_StdPeriph_Driver/src/stm32f10x_adc.c ****   assert_param(IS_ADC_CLEAR_FLAG(ADC_FLAG));
 1702              		.loc 1 1232 3 view .LVU549
1233:Drivers/STM32F10x_StdPeriph_Driver/src/stm32f10x_adc.c ****   /* Clear the selected ADC flags */
1234:Drivers/STM32F10x_StdPeriph_Driver/src/stm32f10x_adc.c ****   ADCx->SR = ~(uint32_t)ADC_FLAG;
 1703              		.loc 1 1234 3 view .LVU550
 1704              		.loc 1 1234 14 is_stmt 0 view .LVU551
 1705 0000 C943     		mvns	r1, r1
 1706              	.LVL156:
 1707              		.loc 1 1234 12 view .LVU552
 1708 0002 0160     		str	r1, [r0]
1235:Drivers/STM32F10x_StdPeriph_Driver/src/stm32f10x_adc.c **** }
 1709              		.loc 1 1235 1 view .LVU553
 1710 0004 7047     		bx	lr
 1711              		.cfi_endproc
 1712              	.LFE98:
 1714              		.section	.text.ADC_GetITStatus,"ax",%progbits
 1715              		.align	1
 1716              		.global	ADC_GetITStatus
 1717              		.syntax unified
 1718              		.thumb
 1719              		.thumb_func
 1721              	ADC_GetITStatus:
 1722              	.LVL157:
 1723              	.LFB99:
1236:Drivers/STM32F10x_StdPeriph_Driver/src/stm32f10x_adc.c **** 
1237:Drivers/STM32F10x_StdPeriph_Driver/src/stm32f10x_adc.c **** /**
1238:Drivers/STM32F10x_StdPeriph_Driver/src/stm32f10x_adc.c ****   * @brief  Checks whether the specified ADC interrupt has occurred or not.
1239:Drivers/STM32F10x_StdPeriph_Driver/src/stm32f10x_adc.c ****   * @param  ADCx: where x can be 1, 2 or 3 to select the ADC peripheral.
1240:Drivers/STM32F10x_StdPeriph_Driver/src/stm32f10x_adc.c ****   * @param  ADC_IT: specifies the ADC interrupt source to check. 
1241:Drivers/STM32F10x_StdPeriph_Driver/src/stm32f10x_adc.c ****   *   This parameter can be one of the following values:
1242:Drivers/STM32F10x_StdPeriph_Driver/src/stm32f10x_adc.c ****   *     @arg ADC_IT_EOC: End of conversion interrupt mask
1243:Drivers/STM32F10x_StdPeriph_Driver/src/stm32f10x_adc.c ****   *     @arg ADC_IT_AWD: Analog watchdog interrupt mask
ARM GAS  /tmp/ccJ7FcFp.s 			page 53


1244:Drivers/STM32F10x_StdPeriph_Driver/src/stm32f10x_adc.c ****   *     @arg ADC_IT_JEOC: End of injected conversion interrupt mask
1245:Drivers/STM32F10x_StdPeriph_Driver/src/stm32f10x_adc.c ****   * @retval The new state of ADC_IT (SET or RESET).
1246:Drivers/STM32F10x_StdPeriph_Driver/src/stm32f10x_adc.c ****   */
1247:Drivers/STM32F10x_StdPeriph_Driver/src/stm32f10x_adc.c **** ITStatus ADC_GetITStatus(ADC_TypeDef* ADCx, uint16_t ADC_IT)
1248:Drivers/STM32F10x_StdPeriph_Driver/src/stm32f10x_adc.c **** {
 1724              		.loc 1 1248 1 is_stmt 1 view -0
 1725              		.cfi_startproc
 1726              		@ args = 0, pretend = 0, frame = 0
 1727              		@ frame_needed = 0, uses_anonymous_args = 0
 1728              		@ link register save eliminated.
1249:Drivers/STM32F10x_StdPeriph_Driver/src/stm32f10x_adc.c ****   ITStatus bitstatus = RESET;
 1729              		.loc 1 1249 3 view .LVU555
1250:Drivers/STM32F10x_StdPeriph_Driver/src/stm32f10x_adc.c ****   uint32_t itmask = 0, enablestatus = 0;
 1730              		.loc 1 1250 3 view .LVU556
1251:Drivers/STM32F10x_StdPeriph_Driver/src/stm32f10x_adc.c ****   /* Check the parameters */
1252:Drivers/STM32F10x_StdPeriph_Driver/src/stm32f10x_adc.c ****   assert_param(IS_ADC_ALL_PERIPH(ADCx));
 1731              		.loc 1 1252 3 view .LVU557
1253:Drivers/STM32F10x_StdPeriph_Driver/src/stm32f10x_adc.c ****   assert_param(IS_ADC_GET_IT(ADC_IT));
 1732              		.loc 1 1253 3 view .LVU558
1254:Drivers/STM32F10x_StdPeriph_Driver/src/stm32f10x_adc.c ****   /* Get the ADC IT index */
1255:Drivers/STM32F10x_StdPeriph_Driver/src/stm32f10x_adc.c ****   itmask = ADC_IT >> 8;
 1733              		.loc 1 1255 3 view .LVU559
1256:Drivers/STM32F10x_StdPeriph_Driver/src/stm32f10x_adc.c ****   /* Get the ADC_IT enable bit status */
1257:Drivers/STM32F10x_StdPeriph_Driver/src/stm32f10x_adc.c ****   enablestatus = (ADCx->CR1 & (uint8_t)ADC_IT) ;
 1734              		.loc 1 1257 3 view .LVU560
 1735              		.loc 1 1257 23 is_stmt 0 view .LVU561
 1736 0000 4368     		ldr	r3, [r0, #4]
 1737              		.loc 1 1257 31 view .LVU562
 1738 0002 CAB2     		uxtb	r2, r1
 1739              		.loc 1 1257 16 view .LVU563
 1740 0004 1340     		ands	r3, r3, r2
 1741              	.LVL158:
1258:Drivers/STM32F10x_StdPeriph_Driver/src/stm32f10x_adc.c ****   /* Check the status of the specified ADC interrupt */
1259:Drivers/STM32F10x_StdPeriph_Driver/src/stm32f10x_adc.c ****   if (((ADCx->SR & itmask) != (uint32_t)RESET) && enablestatus)
 1742              		.loc 1 1259 3 is_stmt 1 view .LVU564
 1743              		.loc 1 1259 13 is_stmt 0 view .LVU565
 1744 0006 0268     		ldr	r2, [r0]
 1745              		.loc 1 1259 6 view .LVU566
 1746 0008 12EA1122 		ands	r2, r2, r1, lsr #8
 1747 000c 02D0     		beq	.L96
 1748              		.loc 1 1259 48 discriminator 1 view .LVU567
 1749 000e 1BB9     		cbnz	r3, .L97
1260:Drivers/STM32F10x_StdPeriph_Driver/src/stm32f10x_adc.c ****   {
1261:Drivers/STM32F10x_StdPeriph_Driver/src/stm32f10x_adc.c ****     /* ADC_IT is set */
1262:Drivers/STM32F10x_StdPeriph_Driver/src/stm32f10x_adc.c ****     bitstatus = SET;
1263:Drivers/STM32F10x_StdPeriph_Driver/src/stm32f10x_adc.c ****   }
1264:Drivers/STM32F10x_StdPeriph_Driver/src/stm32f10x_adc.c ****   else
1265:Drivers/STM32F10x_StdPeriph_Driver/src/stm32f10x_adc.c ****   {
1266:Drivers/STM32F10x_StdPeriph_Driver/src/stm32f10x_adc.c ****     /* ADC_IT is reset */
1267:Drivers/STM32F10x_StdPeriph_Driver/src/stm32f10x_adc.c ****     bitstatus = RESET;
 1750              		.loc 1 1267 15 view .LVU568
 1751 0010 1846     		mov	r0, r3
 1752              	.LVL159:
 1753              		.loc 1 1267 15 view .LVU569
 1754 0012 7047     		bx	lr
 1755              	.LVL160:
 1756              	.L96:
ARM GAS  /tmp/ccJ7FcFp.s 			page 54


 1757              		.loc 1 1267 15 view .LVU570
 1758 0014 0020     		movs	r0, #0
 1759              	.LVL161:
 1760              		.loc 1 1267 15 view .LVU571
 1761 0016 7047     		bx	lr
 1762              	.LVL162:
 1763              	.L97:
1262:Drivers/STM32F10x_StdPeriph_Driver/src/stm32f10x_adc.c ****   }
 1764              		.loc 1 1262 15 view .LVU572
 1765 0018 0120     		movs	r0, #1
 1766              	.LVL163:
1268:Drivers/STM32F10x_StdPeriph_Driver/src/stm32f10x_adc.c ****   }
1269:Drivers/STM32F10x_StdPeriph_Driver/src/stm32f10x_adc.c ****   /* Return the ADC_IT status */
1270:Drivers/STM32F10x_StdPeriph_Driver/src/stm32f10x_adc.c ****   return  bitstatus;
 1767              		.loc 1 1270 3 is_stmt 1 view .LVU573
1271:Drivers/STM32F10x_StdPeriph_Driver/src/stm32f10x_adc.c **** }
 1768              		.loc 1 1271 1 is_stmt 0 view .LVU574
 1769 001a 7047     		bx	lr
 1770              		.cfi_endproc
 1771              	.LFE99:
 1773              		.section	.text.ADC_ClearITPendingBit,"ax",%progbits
 1774              		.align	1
 1775              		.global	ADC_ClearITPendingBit
 1776              		.syntax unified
 1777              		.thumb
 1778              		.thumb_func
 1780              	ADC_ClearITPendingBit:
 1781              	.LVL164:
 1782              	.LFB100:
1272:Drivers/STM32F10x_StdPeriph_Driver/src/stm32f10x_adc.c **** 
1273:Drivers/STM32F10x_StdPeriph_Driver/src/stm32f10x_adc.c **** /**
1274:Drivers/STM32F10x_StdPeriph_Driver/src/stm32f10x_adc.c ****   * @brief  Clears the ADCx's interrupt pending bits.
1275:Drivers/STM32F10x_StdPeriph_Driver/src/stm32f10x_adc.c ****   * @param  ADCx: where x can be 1, 2 or 3 to select the ADC peripheral.
1276:Drivers/STM32F10x_StdPeriph_Driver/src/stm32f10x_adc.c ****   * @param  ADC_IT: specifies the ADC interrupt pending bit to clear.
1277:Drivers/STM32F10x_StdPeriph_Driver/src/stm32f10x_adc.c ****   *   This parameter can be any combination of the following values:
1278:Drivers/STM32F10x_StdPeriph_Driver/src/stm32f10x_adc.c ****   *     @arg ADC_IT_EOC: End of conversion interrupt mask
1279:Drivers/STM32F10x_StdPeriph_Driver/src/stm32f10x_adc.c ****   *     @arg ADC_IT_AWD: Analog watchdog interrupt mask
1280:Drivers/STM32F10x_StdPeriph_Driver/src/stm32f10x_adc.c ****   *     @arg ADC_IT_JEOC: End of injected conversion interrupt mask
1281:Drivers/STM32F10x_StdPeriph_Driver/src/stm32f10x_adc.c ****   * @retval None
1282:Drivers/STM32F10x_StdPeriph_Driver/src/stm32f10x_adc.c ****   */
1283:Drivers/STM32F10x_StdPeriph_Driver/src/stm32f10x_adc.c **** void ADC_ClearITPendingBit(ADC_TypeDef* ADCx, uint16_t ADC_IT)
1284:Drivers/STM32F10x_StdPeriph_Driver/src/stm32f10x_adc.c **** {
 1783              		.loc 1 1284 1 is_stmt 1 view -0
 1784              		.cfi_startproc
 1785              		@ args = 0, pretend = 0, frame = 0
 1786              		@ frame_needed = 0, uses_anonymous_args = 0
 1787              		@ link register save eliminated.
1285:Drivers/STM32F10x_StdPeriph_Driver/src/stm32f10x_adc.c ****   uint8_t itmask = 0;
 1788              		.loc 1 1285 3 view .LVU576
1286:Drivers/STM32F10x_StdPeriph_Driver/src/stm32f10x_adc.c ****   /* Check the parameters */
1287:Drivers/STM32F10x_StdPeriph_Driver/src/stm32f10x_adc.c ****   assert_param(IS_ADC_ALL_PERIPH(ADCx));
 1789              		.loc 1 1287 3 view .LVU577
1288:Drivers/STM32F10x_StdPeriph_Driver/src/stm32f10x_adc.c ****   assert_param(IS_ADC_IT(ADC_IT));
 1790              		.loc 1 1288 3 view .LVU578
1289:Drivers/STM32F10x_StdPeriph_Driver/src/stm32f10x_adc.c ****   /* Get the ADC IT index */
1290:Drivers/STM32F10x_StdPeriph_Driver/src/stm32f10x_adc.c ****   itmask = (uint8_t)(ADC_IT >> 8);
 1791              		.loc 1 1290 3 view .LVU579
ARM GAS  /tmp/ccJ7FcFp.s 			page 55


1291:Drivers/STM32F10x_StdPeriph_Driver/src/stm32f10x_adc.c ****   /* Clear the selected ADC interrupt pending bits */
1292:Drivers/STM32F10x_StdPeriph_Driver/src/stm32f10x_adc.c ****   ADCx->SR = ~(uint32_t)itmask;
 1792              		.loc 1 1292 3 view .LVU580
 1793              		.loc 1 1292 14 is_stmt 0 view .LVU581
 1794 0000 6FEA1121 		mvn	r1, r1, lsr #8
 1795              	.LVL165:
 1796              		.loc 1 1292 12 view .LVU582
 1797 0004 0160     		str	r1, [r0]
1293:Drivers/STM32F10x_StdPeriph_Driver/src/stm32f10x_adc.c **** }
 1798              		.loc 1 1293 1 view .LVU583
 1799 0006 7047     		bx	lr
 1800              		.cfi_endproc
 1801              	.LFE100:
 1803              		.text
 1804              	.Letext0:
 1805              		.file 2 "/home/pi/arm_gcc/arm-gnu-toolchain-15.2.rel1-aarch64-arm-none-eabi/arm-none-eabi/include/
 1806              		.file 3 "/home/pi/arm_gcc/arm-gnu-toolchain-15.2.rel1-aarch64-arm-none-eabi/arm-none-eabi/include/
 1807              		.file 4 "Drivers/CMSIS/Device/ST/STM32F1xx/Include/stm32f10x.h"
 1808              		.file 5 "Drivers/STM32F10x_StdPeriph_Driver/inc/stm32f10x_adc.h"
 1809              		.file 6 "Drivers/STM32F10x_StdPeriph_Driver/inc/stm32f10x_rcc.h"
ARM GAS  /tmp/ccJ7FcFp.s 			page 56

